
USB_Audio_Processor.elf:     file format elf32-littlearm

Sections:
Idx Name          Size      VMA       LMA       File off  Algn
  0 .isr_vector   00000188  08000000  08000000  00001000  2**0
                  CONTENTS, ALLOC, LOAD, READONLY, DATA
  1 .text         00007830  08000188  08000188  00001188  2**3
                  CONTENTS, ALLOC, LOAD, READONLY, CODE
  2 .rodata       00000460  080079b8  080079b8  000089b8  2**2
                  CONTENTS, ALLOC, LOAD, READONLY, DATA
  3 .ARM.extab    00000000  08007e18  08007e18  00009184  2**0
                  CONTENTS, READONLY
  4 .ARM          00000008  08007e18  08007e18  00008e18  2**2
                  CONTENTS, ALLOC, LOAD, READONLY, DATA
  5 .preinit_array 00000000  08007e20  08007e20  00009184  2**0
                  CONTENTS, ALLOC, LOAD, DATA
  6 .init_array   00000004  08007e20  08007e20  00008e20  2**2
                  CONTENTS, ALLOC, LOAD, READONLY, DATA
  7 .fini_array   00000004  08007e24  08007e24  00008e24  2**2
                  CONTENTS, ALLOC, LOAD, READONLY, DATA
  8 .data         00000184  20000000  08007e28  00009000  2**2
                  CONTENTS, ALLOC, LOAD, DATA
  9 .ccmram       00000000  10000000  10000000  00009184  2**0
                  CONTENTS
 10 .bss          0001cc58  20000188  20000188  00009188  2**3
                  ALLOC
 11 ._user_heap_stack 00002000  2001cde0  2001cde0  00009188  2**0
                  ALLOC
 12 .ARM.attributes 00000030  00000000  00000000  00009184  2**0
                  CONTENTS, READONLY
 13 .debug_info   000191ac  00000000  00000000  000091b4  2**0
                  CONTENTS, READONLY, DEBUGGING, OCTETS
 14 .debug_abbrev 0000501e  00000000  00000000  00022360  2**0
                  CONTENTS, READONLY, DEBUGGING, OCTETS
 15 .debug_loclists 0000ae49  00000000  00000000  0002737e  2**0
                  CONTENTS, READONLY, DEBUGGING, OCTETS
 16 .debug_aranges 00000e50  00000000  00000000  000321c8  2**3
                  CONTENTS, READONLY, DEBUGGING, OCTETS
 17 .debug_rnglists 0000124e  00000000  00000000  00033018  2**0
                  CONTENTS, READONLY, DEBUGGING, OCTETS
 18 .debug_macro  00025440  00000000  00000000  00034266  2**0
                  CONTENTS, READONLY, DEBUGGING, OCTETS
 19 .debug_line   0001d76a  00000000  00000000  000596a6  2**0
                  CONTENTS, READONLY, DEBUGGING, OCTETS
 20 .debug_str    000d41c8  00000000  00000000  00076e10  2**0
                  CONTENTS, READONLY, DEBUGGING, OCTETS
 21 .comment      00000043  00000000  00000000  0014afd8  2**0
                  CONTENTS, READONLY
 22 .debug_frame  00002ab8  00000000  00000000  0014b01c  2**2
                  CONTENTS, READONLY, DEBUGGING, OCTETS
 23 .debug_line_str 0000004a  00000000  00000000  0014dad4  2**0
                  CONTENTS, READONLY, DEBUGGING, OCTETS

Disassembly of section .text:

08000188 <__do_global_dtors_aux>:
 8000188:	b510      	push	{r4, lr}
 800018a:	4c05      	ldr	r4, [pc, #20]	@ (80001a0 <__do_global_dtors_aux+0x18>)
 800018c:	7823      	ldrb	r3, [r4, #0]
 800018e:	b933      	cbnz	r3, 800019e <__do_global_dtors_aux+0x16>
 8000190:	4b04      	ldr	r3, [pc, #16]	@ (80001a4 <__do_global_dtors_aux+0x1c>)
 8000192:	b113      	cbz	r3, 800019a <__do_global_dtors_aux+0x12>
 8000194:	4804      	ldr	r0, [pc, #16]	@ (80001a8 <__do_global_dtors_aux+0x20>)
 8000196:	f3af 8000 	nop.w
 800019a:	2301      	movs	r3, #1
 800019c:	7023      	strb	r3, [r4, #0]
 800019e:	bd10      	pop	{r4, pc}
 80001a0:	20000188 	.word	0x20000188
 80001a4:	00000000 	.word	0x00000000
 80001a8:	080079a0 	.word	0x080079a0

080001ac <frame_dummy>:
 80001ac:	b508      	push	{r3, lr}
 80001ae:	4b03      	ldr	r3, [pc, #12]	@ (80001bc <frame_dummy+0x10>)
 80001b0:	b11b      	cbz	r3, 80001ba <frame_dummy+0xe>
 80001b2:	4903      	ldr	r1, [pc, #12]	@ (80001c0 <frame_dummy+0x14>)
 80001b4:	4803      	ldr	r0, [pc, #12]	@ (80001c4 <frame_dummy+0x18>)
 80001b6:	f3af 8000 	nop.w
 80001ba:	bd08      	pop	{r3, pc}
 80001bc:	00000000 	.word	0x00000000
 80001c0:	2000018c 	.word	0x2000018c
 80001c4:	080079a0 	.word	0x080079a0

080001c8 <strlen>:
 80001c8:	4603      	mov	r3, r0
 80001ca:	f813 2b01 	ldrb.w	r2, [r3], #1
 80001ce:	2a00      	cmp	r2, #0
 80001d0:	d1fb      	bne.n	80001ca <strlen+0x2>
 80001d2:	1a18      	subs	r0, r3, r0
 80001d4:	3801      	subs	r0, #1
 80001d6:	4770      	bx	lr

080001d8 <__aeabi_uldivmod>:
 80001d8:	b953      	cbnz	r3, 80001f0 <__aeabi_uldivmod+0x18>
 80001da:	b94a      	cbnz	r2, 80001f0 <__aeabi_uldivmod+0x18>
 80001dc:	2900      	cmp	r1, #0
 80001de:	bf08      	it	eq
 80001e0:	2800      	cmpeq	r0, #0
 80001e2:	bf1c      	itt	ne
 80001e4:	f04f 31ff 	movne.w	r1, #4294967295
 80001e8:	f04f 30ff 	movne.w	r0, #4294967295
 80001ec:	f000 b988 	b.w	8000500 <__aeabi_idiv0>
 80001f0:	f1ad 0c08 	sub.w	ip, sp, #8
 80001f4:	e96d ce04 	strd	ip, lr, [sp, #-16]!
 80001f8:	f000 f806 	bl	8000208 <__udivmoddi4>
 80001fc:	f8dd e004 	ldr.w	lr, [sp, #4]
 8000200:	e9dd 2302 	ldrd	r2, r3, [sp, #8]
 8000204:	b004      	add	sp, #16
 8000206:	4770      	bx	lr

08000208 <__udivmoddi4>:
 8000208:	e92d 47f0 	stmdb	sp!, {r4, r5, r6, r7, r8, r9, sl, lr}
 800020c:	9d08      	ldr	r5, [sp, #32]
 800020e:	468e      	mov	lr, r1
 8000210:	4604      	mov	r4, r0
 8000212:	4688      	mov	r8, r1
 8000214:	2b00      	cmp	r3, #0
 8000216:	d14a      	bne.n	80002ae <__udivmoddi4+0xa6>
 8000218:	428a      	cmp	r2, r1
 800021a:	4617      	mov	r7, r2
 800021c:	d962      	bls.n	80002e4 <__udivmoddi4+0xdc>
 800021e:	fab2 f682 	clz	r6, r2
 8000222:	b14e      	cbz	r6, 8000238 <__udivmoddi4+0x30>
 8000224:	f1c6 0320 	rsb	r3, r6, #32
 8000228:	fa01 f806 	lsl.w	r8, r1, r6
 800022c:	fa20 f303 	lsr.w	r3, r0, r3
 8000230:	40b7      	lsls	r7, r6
 8000232:	ea43 0808 	orr.w	r8, r3, r8
 8000236:	40b4      	lsls	r4, r6
 8000238:	ea4f 4e17 	mov.w	lr, r7, lsr #16
 800023c:	fa1f fc87 	uxth.w	ip, r7
 8000240:	fbb8 f1fe 	udiv	r1, r8, lr
 8000244:	0c23      	lsrs	r3, r4, #16
 8000246:	fb0e 8811 	mls	r8, lr, r1, r8
 800024a:	ea43 4308 	orr.w	r3, r3, r8, lsl #16
 800024e:	fb01 f20c 	mul.w	r2, r1, ip
 8000252:	429a      	cmp	r2, r3
 8000254:	d909      	bls.n	800026a <__udivmoddi4+0x62>
 8000256:	18fb      	adds	r3, r7, r3
 8000258:	f101 30ff 	add.w	r0, r1, #4294967295
 800025c:	f080 80ea 	bcs.w	8000434 <__udivmoddi4+0x22c>
 8000260:	429a      	cmp	r2, r3
 8000262:	f240 80e7 	bls.w	8000434 <__udivmoddi4+0x22c>
 8000266:	3902      	subs	r1, #2
 8000268:	443b      	add	r3, r7
 800026a:	1a9a      	subs	r2, r3, r2
 800026c:	b2a3      	uxth	r3, r4
 800026e:	fbb2 f0fe 	udiv	r0, r2, lr
 8000272:	fb0e 2210 	mls	r2, lr, r0, r2
 8000276:	ea43 4302 	orr.w	r3, r3, r2, lsl #16
 800027a:	fb00 fc0c 	mul.w	ip, r0, ip
 800027e:	459c      	cmp	ip, r3
 8000280:	d909      	bls.n	8000296 <__udivmoddi4+0x8e>
 8000282:	18fb      	adds	r3, r7, r3
 8000284:	f100 32ff 	add.w	r2, r0, #4294967295
 8000288:	f080 80d6 	bcs.w	8000438 <__udivmoddi4+0x230>
 800028c:	459c      	cmp	ip, r3
 800028e:	f240 80d3 	bls.w	8000438 <__udivmoddi4+0x230>
 8000292:	443b      	add	r3, r7
 8000294:	3802      	subs	r0, #2
 8000296:	ea40 4001 	orr.w	r0, r0, r1, lsl #16
 800029a:	eba3 030c 	sub.w	r3, r3, ip
 800029e:	2100      	movs	r1, #0
 80002a0:	b11d      	cbz	r5, 80002aa <__udivmoddi4+0xa2>
 80002a2:	40f3      	lsrs	r3, r6
 80002a4:	2200      	movs	r2, #0
 80002a6:	e9c5 3200 	strd	r3, r2, [r5]
 80002aa:	e8bd 87f0 	ldmia.w	sp!, {r4, r5, r6, r7, r8, r9, sl, pc}
 80002ae:	428b      	cmp	r3, r1
 80002b0:	d905      	bls.n	80002be <__udivmoddi4+0xb6>
 80002b2:	b10d      	cbz	r5, 80002b8 <__udivmoddi4+0xb0>
 80002b4:	e9c5 0100 	strd	r0, r1, [r5]
 80002b8:	2100      	movs	r1, #0
 80002ba:	4608      	mov	r0, r1
 80002bc:	e7f5      	b.n	80002aa <__udivmoddi4+0xa2>
 80002be:	fab3 f183 	clz	r1, r3
 80002c2:	2900      	cmp	r1, #0
 80002c4:	d146      	bne.n	8000354 <__udivmoddi4+0x14c>
 80002c6:	4573      	cmp	r3, lr
 80002c8:	d302      	bcc.n	80002d0 <__udivmoddi4+0xc8>
 80002ca:	4282      	cmp	r2, r0
 80002cc:	f200 8105 	bhi.w	80004da <__udivmoddi4+0x2d2>
 80002d0:	1a84      	subs	r4, r0, r2
 80002d2:	eb6e 0203 	sbc.w	r2, lr, r3
 80002d6:	2001      	movs	r0, #1
 80002d8:	4690      	mov	r8, r2
 80002da:	2d00      	cmp	r5, #0
 80002dc:	d0e5      	beq.n	80002aa <__udivmoddi4+0xa2>
 80002de:	e9c5 4800 	strd	r4, r8, [r5]
 80002e2:	e7e2      	b.n	80002aa <__udivmoddi4+0xa2>
 80002e4:	2a00      	cmp	r2, #0
 80002e6:	f000 8090 	beq.w	800040a <__udivmoddi4+0x202>
 80002ea:	fab2 f682 	clz	r6, r2
 80002ee:	2e00      	cmp	r6, #0
 80002f0:	f040 80a4 	bne.w	800043c <__udivmoddi4+0x234>
 80002f4:	1a8a      	subs	r2, r1, r2
 80002f6:	0c03      	lsrs	r3, r0, #16
 80002f8:	ea4f 4e17 	mov.w	lr, r7, lsr #16
 80002fc:	b280      	uxth	r0, r0
 80002fe:	b2bc      	uxth	r4, r7
 8000300:	2101      	movs	r1, #1
 8000302:	fbb2 fcfe 	udiv	ip, r2, lr
 8000306:	fb0e 221c 	mls	r2, lr, ip, r2
 800030a:	ea43 4302 	orr.w	r3, r3, r2, lsl #16
 800030e:	fb04 f20c 	mul.w	r2, r4, ip
 8000312:	429a      	cmp	r2, r3
 8000314:	d907      	bls.n	8000326 <__udivmoddi4+0x11e>
 8000316:	18fb      	adds	r3, r7, r3
 8000318:	f10c 38ff 	add.w	r8, ip, #4294967295
 800031c:	d202      	bcs.n	8000324 <__udivmoddi4+0x11c>
 800031e:	429a      	cmp	r2, r3
 8000320:	f200 80e0 	bhi.w	80004e4 <__udivmoddi4+0x2dc>
 8000324:	46c4      	mov	ip, r8
 8000326:	1a9b      	subs	r3, r3, r2
 8000328:	fbb3 f2fe 	udiv	r2, r3, lr
 800032c:	fb0e 3312 	mls	r3, lr, r2, r3
 8000330:	ea40 4303 	orr.w	r3, r0, r3, lsl #16
 8000334:	fb02 f404 	mul.w	r4, r2, r4
 8000338:	429c      	cmp	r4, r3
 800033a:	d907      	bls.n	800034c <__udivmoddi4+0x144>
 800033c:	18fb      	adds	r3, r7, r3
 800033e:	f102 30ff 	add.w	r0, r2, #4294967295
 8000342:	d202      	bcs.n	800034a <__udivmoddi4+0x142>
 8000344:	429c      	cmp	r4, r3
 8000346:	f200 80ca 	bhi.w	80004de <__udivmoddi4+0x2d6>
 800034a:	4602      	mov	r2, r0
 800034c:	1b1b      	subs	r3, r3, r4
 800034e:	ea42 400c 	orr.w	r0, r2, ip, lsl #16
 8000352:	e7a5      	b.n	80002a0 <__udivmoddi4+0x98>
 8000354:	f1c1 0620 	rsb	r6, r1, #32
 8000358:	408b      	lsls	r3, r1
 800035a:	fa22 f706 	lsr.w	r7, r2, r6
 800035e:	431f      	orrs	r7, r3
 8000360:	fa0e f401 	lsl.w	r4, lr, r1
 8000364:	fa20 f306 	lsr.w	r3, r0, r6
 8000368:	fa2e fe06 	lsr.w	lr, lr, r6
 800036c:	ea4f 4917 	mov.w	r9, r7, lsr #16
 8000370:	4323      	orrs	r3, r4
 8000372:	fa00 f801 	lsl.w	r8, r0, r1
 8000376:	fa1f fc87 	uxth.w	ip, r7
 800037a:	fbbe f0f9 	udiv	r0, lr, r9
 800037e:	0c1c      	lsrs	r4, r3, #16
 8000380:	fb09 ee10 	mls	lr, r9, r0, lr
 8000384:	ea44 440e 	orr.w	r4, r4, lr, lsl #16
 8000388:	fb00 fe0c 	mul.w	lr, r0, ip
 800038c:	45a6      	cmp	lr, r4
 800038e:	fa02 f201 	lsl.w	r2, r2, r1
 8000392:	d909      	bls.n	80003a8 <__udivmoddi4+0x1a0>
 8000394:	193c      	adds	r4, r7, r4
 8000396:	f100 3aff 	add.w	sl, r0, #4294967295
 800039a:	f080 809c 	bcs.w	80004d6 <__udivmoddi4+0x2ce>
 800039e:	45a6      	cmp	lr, r4
 80003a0:	f240 8099 	bls.w	80004d6 <__udivmoddi4+0x2ce>
 80003a4:	3802      	subs	r0, #2
 80003a6:	443c      	add	r4, r7
 80003a8:	eba4 040e 	sub.w	r4, r4, lr
 80003ac:	fa1f fe83 	uxth.w	lr, r3
 80003b0:	fbb4 f3f9 	udiv	r3, r4, r9
 80003b4:	fb09 4413 	mls	r4, r9, r3, r4
 80003b8:	ea4e 4404 	orr.w	r4, lr, r4, lsl #16
 80003bc:	fb03 fc0c 	mul.w	ip, r3, ip
 80003c0:	45a4      	cmp	ip, r4
 80003c2:	d908      	bls.n	80003d6 <__udivmoddi4+0x1ce>
 80003c4:	193c      	adds	r4, r7, r4
 80003c6:	f103 3eff 	add.w	lr, r3, #4294967295
 80003ca:	f080 8082 	bcs.w	80004d2 <__udivmoddi4+0x2ca>
 80003ce:	45a4      	cmp	ip, r4
 80003d0:	d97f      	bls.n	80004d2 <__udivmoddi4+0x2ca>
 80003d2:	3b02      	subs	r3, #2
 80003d4:	443c      	add	r4, r7
 80003d6:	ea43 4000 	orr.w	r0, r3, r0, lsl #16
 80003da:	eba4 040c 	sub.w	r4, r4, ip
 80003de:	fba0 ec02 	umull	lr, ip, r0, r2
 80003e2:	4564      	cmp	r4, ip
 80003e4:	4673      	mov	r3, lr
 80003e6:	46e1      	mov	r9, ip
 80003e8:	d362      	bcc.n	80004b0 <__udivmoddi4+0x2a8>
 80003ea:	d05f      	beq.n	80004ac <__udivmoddi4+0x2a4>
 80003ec:	b15d      	cbz	r5, 8000406 <__udivmoddi4+0x1fe>
 80003ee:	ebb8 0203 	subs.w	r2, r8, r3
 80003f2:	eb64 0409 	sbc.w	r4, r4, r9
 80003f6:	fa04 f606 	lsl.w	r6, r4, r6
 80003fa:	fa22 f301 	lsr.w	r3, r2, r1
 80003fe:	431e      	orrs	r6, r3
 8000400:	40cc      	lsrs	r4, r1
 8000402:	e9c5 6400 	strd	r6, r4, [r5]
 8000406:	2100      	movs	r1, #0
 8000408:	e74f      	b.n	80002aa <__udivmoddi4+0xa2>
 800040a:	fbb1 fcf2 	udiv	ip, r1, r2
 800040e:	0c01      	lsrs	r1, r0, #16
 8000410:	ea41 410e 	orr.w	r1, r1, lr, lsl #16
 8000414:	b280      	uxth	r0, r0
 8000416:	ea40 4201 	orr.w	r2, r0, r1, lsl #16
 800041a:	463b      	mov	r3, r7
 800041c:	4638      	mov	r0, r7
 800041e:	463c      	mov	r4, r7
 8000420:	46b8      	mov	r8, r7
 8000422:	46be      	mov	lr, r7
 8000424:	2620      	movs	r6, #32
 8000426:	fbb1 f1f7 	udiv	r1, r1, r7
 800042a:	eba2 0208 	sub.w	r2, r2, r8
 800042e:	ea41 410c 	orr.w	r1, r1, ip, lsl #16
 8000432:	e766      	b.n	8000302 <__udivmoddi4+0xfa>
 8000434:	4601      	mov	r1, r0
 8000436:	e718      	b.n	800026a <__udivmoddi4+0x62>
 8000438:	4610      	mov	r0, r2
 800043a:	e72c      	b.n	8000296 <__udivmoddi4+0x8e>
 800043c:	f1c6 0220 	rsb	r2, r6, #32
 8000440:	fa2e f302 	lsr.w	r3, lr, r2
 8000444:	40b7      	lsls	r7, r6
 8000446:	40b1      	lsls	r1, r6
 8000448:	fa20 f202 	lsr.w	r2, r0, r2
 800044c:	ea4f 4e17 	mov.w	lr, r7, lsr #16
 8000450:	430a      	orrs	r2, r1
 8000452:	fbb3 f8fe 	udiv	r8, r3, lr
 8000456:	b2bc      	uxth	r4, r7
 8000458:	fb0e 3318 	mls	r3, lr, r8, r3
 800045c:	0c11      	lsrs	r1, r2, #16
 800045e:	ea41 4103 	orr.w	r1, r1, r3, lsl #16
 8000462:	fb08 f904 	mul.w	r9, r8, r4
 8000466:	40b0      	lsls	r0, r6
 8000468:	4589      	cmp	r9, r1
 800046a:	ea4f 4310 	mov.w	r3, r0, lsr #16
 800046e:	b280      	uxth	r0, r0
 8000470:	d93e      	bls.n	80004f0 <__udivmoddi4+0x2e8>
 8000472:	1879      	adds	r1, r7, r1
 8000474:	f108 3cff 	add.w	ip, r8, #4294967295
 8000478:	d201      	bcs.n	800047e <__udivmoddi4+0x276>
 800047a:	4589      	cmp	r9, r1
 800047c:	d81f      	bhi.n	80004be <__udivmoddi4+0x2b6>
 800047e:	eba1 0109 	sub.w	r1, r1, r9
 8000482:	fbb1 f9fe 	udiv	r9, r1, lr
 8000486:	fb09 f804 	mul.w	r8, r9, r4
 800048a:	fb0e 1119 	mls	r1, lr, r9, r1
 800048e:	b292      	uxth	r2, r2
 8000490:	ea42 4201 	orr.w	r2, r2, r1, lsl #16
 8000494:	4542      	cmp	r2, r8
 8000496:	d229      	bcs.n	80004ec <__udivmoddi4+0x2e4>
 8000498:	18ba      	adds	r2, r7, r2
 800049a:	f109 31ff 	add.w	r1, r9, #4294967295
 800049e:	d2c4      	bcs.n	800042a <__udivmoddi4+0x222>
 80004a0:	4542      	cmp	r2, r8
 80004a2:	d2c2      	bcs.n	800042a <__udivmoddi4+0x222>
 80004a4:	f1a9 0102 	sub.w	r1, r9, #2
 80004a8:	443a      	add	r2, r7
 80004aa:	e7be      	b.n	800042a <__udivmoddi4+0x222>
 80004ac:	45f0      	cmp	r8, lr
 80004ae:	d29d      	bcs.n	80003ec <__udivmoddi4+0x1e4>
 80004b0:	ebbe 0302 	subs.w	r3, lr, r2
 80004b4:	eb6c 0c07 	sbc.w	ip, ip, r7
 80004b8:	3801      	subs	r0, #1
 80004ba:	46e1      	mov	r9, ip
 80004bc:	e796      	b.n	80003ec <__udivmoddi4+0x1e4>
 80004be:	eba7 0909 	sub.w	r9, r7, r9
 80004c2:	4449      	add	r1, r9
 80004c4:	f1a8 0c02 	sub.w	ip, r8, #2
 80004c8:	fbb1 f9fe 	udiv	r9, r1, lr
 80004cc:	fb09 f804 	mul.w	r8, r9, r4
 80004d0:	e7db      	b.n	800048a <__udivmoddi4+0x282>
 80004d2:	4673      	mov	r3, lr
 80004d4:	e77f      	b.n	80003d6 <__udivmoddi4+0x1ce>
 80004d6:	4650      	mov	r0, sl
 80004d8:	e766      	b.n	80003a8 <__udivmoddi4+0x1a0>
 80004da:	4608      	mov	r0, r1
 80004dc:	e6fd      	b.n	80002da <__udivmoddi4+0xd2>
 80004de:	443b      	add	r3, r7
 80004e0:	3a02      	subs	r2, #2
 80004e2:	e733      	b.n	800034c <__udivmoddi4+0x144>
 80004e4:	f1ac 0c02 	sub.w	ip, ip, #2
 80004e8:	443b      	add	r3, r7
 80004ea:	e71c      	b.n	8000326 <__udivmoddi4+0x11e>
 80004ec:	4649      	mov	r1, r9
 80004ee:	e79c      	b.n	800042a <__udivmoddi4+0x222>
 80004f0:	eba1 0109 	sub.w	r1, r1, r9
 80004f4:	46c4      	mov	ip, r8
 80004f6:	fbb1 f9fe 	udiv	r9, r1, lr
 80004fa:	fb09 f804 	mul.w	r8, r9, r4
 80004fe:	e7c4      	b.n	800048a <__udivmoddi4+0x282>

08000500 <__aeabi_idiv0>:
 8000500:	4770      	bx	lr
 8000502:	bf00      	nop

08000504 <Pot_ReadAll>:

    return val;
}

static void Pot_ReadAll(void)
{
 8000504:	e92d 4ff0 	stmdb	sp!, {r4, r5, r6, r7, r8, r9, sl, fp, lr}
 8000508:	4e23      	ldr	r6, [pc, #140]	@ (8000598 <Pot_ReadAll+0x94>)
 800050a:	f8df b098 	ldr.w	fp, [pc, #152]	@ 80005a4 <Pot_ReadAll+0xa0>
 800050e:	f8df 8098 	ldr.w	r8, [pc, #152]	@ 80005a8 <Pot_ReadAll+0xa4>
 8000512:	4f22      	ldr	r7, [pc, #136]	@ (800059c <Pot_ReadAll+0x98>)
    HAL_ADC_ConfigChannel(&hadc1, &sConfig);
 8000514:	4d22      	ldr	r5, [pc, #136]	@ (80005a0 <Pot_ReadAll+0x9c>)
{
 8000516:	b085      	sub	sp, #20
 8000518:	f106 0a18 	add.w	sl, r6, #24
    ADC_ChannelConfTypeDef sConfig = {0};
 800051c:	f04f 0900 	mov.w	r9, #0
    for (uint8_t i = 0; i < POT_COUNT; i++) {
        uint16_t raw = Pot_ReadChannel(POT_CHANNELS[i]);
 8000520:	f856 0b04 	ldr.w	r0, [r6], #4
    sConfig.Channel      = channel;
 8000524:	9000      	str	r0, [sp, #0]
    sConfig.SamplingTime = ADC_SAMPLETIME_84CYCLES;
 8000526:	2204      	movs	r2, #4
    sConfig.Rank         = 1;
 8000528:	2301      	movs	r3, #1
    HAL_ADC_ConfigChannel(&hadc1, &sConfig);
 800052a:	4669      	mov	r1, sp
 800052c:	4628      	mov	r0, r5
    sConfig.SamplingTime = ADC_SAMPLETIME_84CYCLES;
 800052e:	e9cd 3201 	strd	r3, r2, [sp, #4]
    ADC_ChannelConfTypeDef sConfig = {0};
 8000532:	f8cd 900c 	str.w	r9, [sp, #12]
    HAL_ADC_ConfigChannel(&hadc1, &sConfig);
 8000536:	f001 fccd 	bl	8001ed4 <HAL_ADC_ConfigChannel>
    HAL_ADC_Start(&hadc1);
 800053a:	4628      	mov	r0, r5
 800053c:	f001 fbcc 	bl	8001cd8 <HAL_ADC_Start>
    HAL_ADC_PollForConversion(&hadc1, 1);
 8000540:	2101      	movs	r1, #1
 8000542:	4628      	mov	r0, r5
 8000544:	f001 fc68 	bl	8001e18 <HAL_ADC_PollForConversion>
    uint16_t val = (uint16_t)HAL_ADC_GetValue(&hadc1);
 8000548:	4628      	mov	r0, r5
 800054a:	f001 fcbf 	bl	8001ecc <HAL_ADC_GetValue>
 800054e:	4604      	mov	r4, r0
    HAL_ADC_Stop(&hadc1);
 8000550:	4628      	mov	r0, r5
 8000552:	f001 fc45 	bl	8001de0 <HAL_ADC_Stop>

        if (first_read) {
 8000556:	783a      	ldrb	r2, [r7, #0]
 8000558:	b2a1      	uxth	r1, r4
 800055a:	b992      	cbnz	r2, 8000582 <Pot_ReadAll+0x7e>
            smooth_pot[i] = raw;
        } else {
            smooth_pot[i] = (uint16_t)(((uint32_t)smooth_pot[i] * 7u + (uint32_t)raw) / 8u);
 800055c:	f8bb 2000 	ldrh.w	r2, [fp]
 8000560:	ebc2 02c2 	rsb	r2, r2, r2, lsl #3
 8000564:	fa12 f484 	uxtah	r4, r2, r4
 8000568:	f3c4 04cf 	ubfx	r4, r4, #3, #16
    for (uint8_t i = 0; i < POT_COUNT; i++) {
 800056c:	4556      	cmp	r6, sl
 800056e:	f82b 4b02 	strh.w	r4, [fp], #2
        }
        pot_values[i] = smooth_pot[i];
 8000572:	f828 4b02 	strh.w	r4, [r8], #2
    for (uint8_t i = 0; i < POT_COUNT; i++) {
 8000576:	d1d3      	bne.n	8000520 <Pot_ReadAll+0x1c>
    }
    first_read = 0;
 8000578:	2300      	movs	r3, #0
 800057a:	703b      	strb	r3, [r7, #0]
}
 800057c:	b005      	add	sp, #20
 800057e:	e8bd 8ff0 	ldmia.w	sp!, {r4, r5, r6, r7, r8, r9, sl, fp, pc}
    for (uint8_t i = 0; i < POT_COUNT; i++) {
 8000582:	4556      	cmp	r6, sl
 8000584:	f82b 1b02 	strh.w	r1, [fp], #2
        pot_values[i] = smooth_pot[i];
 8000588:	f828 1b02 	strh.w	r1, [r8], #2
    for (uint8_t i = 0; i < POT_COUNT; i++) {
 800058c:	d1c8      	bne.n	8000520 <Pot_ReadAll+0x1c>
    first_read = 0;
 800058e:	2300      	movs	r3, #0
 8000590:	703b      	strb	r3, [r7, #0]
}
 8000592:	b005      	add	sp, #20
 8000594:	e8bd 8ff0 	ldmia.w	sp!, {r4, r5, r6, r7, r8, r9, sl, fp, pc}
 8000598:	080079b8 	.word	0x080079b8
 800059c:	20000000 	.word	0x20000000
 80005a0:	20018640 	.word	0x20018640
 80005a4:	200001a8 	.word	0x200001a8
 80005a8:	200001b4 	.word	0x200001b4

080005ac <Pot_ApplyToParams>:
/* ════════════════════════════════════════════
   POT → PARAMETRE HARİTALAMA
   ════════════════════════════════════════════ */

static void Pot_ApplyToParams(void)
{
 80005ac:	b538      	push	{r3, r4, r5, lr}
    return min_val + ((float)pot_values[idx] / 4095.0f) * (max_val - min_val);
 80005ae:	4d3f      	ldr	r5, [pc, #252]	@ (80006ac <Pot_ApplyToParams+0x100>)
 80005b0:	eddf 6a3f 	vldr	s13, [pc, #252]	@ 80006b0 <Pot_ApplyToParams+0x104>
 80005b4:	896b      	ldrh	r3, [r5, #10]
        } else {
            // Pot en sola dayandığında filtre devreden çıkar
            app_filter_params.lpf_enable = 0;
        }*/
    /* ── POT3 (idx 2) → HPF Cutoff (LOGARİTMİK YAPI) ───────────── */
        if (pot_values[2] < 100) {
 80005b6:	88aa      	ldrh	r2, [r5, #4]
    app_filter_params.master_volume = Pot_Map(5, 0.0f, 1.5f);
 80005b8:	4c3e      	ldr	r4, [pc, #248]	@ (80006b4 <Pot_ApplyToParams+0x108>)
    return min_val + ((float)pot_values[idx] / 4095.0f) * (max_val - min_val);
 80005ba:	ee07 3a90 	vmov	s15, r3
    if (pot_values[1] >= 100) {
 80005be:	886b      	ldrh	r3, [r5, #2]
    return min_val + ((float)pot_values[idx] / 4095.0f) * (max_val - min_val);
 80005c0:	eef8 7a67 	vcvt.f32.u32	s15, s15
    app_filter_params.lpf_cutoff_freq = ((float)pot_values[1] / 4095.0f) * 10000.0f;
 80005c4:	ee07 3a10 	vmov	s14, r3
    return min_val + ((float)pot_values[idx] / 4095.0f) * (max_val - min_val);
 80005c8:	ee87 5aa6 	vdiv.f32	s10, s15, s13
    if (pot_values[1] >= 100) {
 80005cc:	2b63      	cmp	r3, #99	@ 0x63
 80005ce:	bf94      	ite	ls
 80005d0:	2300      	movls	r3, #0
 80005d2:	2301      	movhi	r3, #1
        if (pot_values[2] < 100) {
 80005d4:	2a63      	cmp	r2, #99	@ 0x63
    if (pot_values[1] >= 100) {
 80005d6:	7423      	strb	r3, [r4, #16]
    app_filter_params.lpf_cutoff_freq = ((float)pot_values[1] / 4095.0f) * 10000.0f;
 80005d8:	eeb8 6a47 	vcvt.f32.u32	s12, s14
    return min_val + ((float)pot_values[idx] / 4095.0f) * (max_val - min_val);
 80005dc:	eddf 7a36 	vldr	s15, [pc, #216]	@ 80006b8 <Pot_ApplyToParams+0x10c>
    app_filter_params.lpf_cutoff_freq = ((float)pot_values[1] / 4095.0f) * 10000.0f;
 80005e0:	ee86 7a26 	vdiv.f32	s14, s12, s13
    return min_val + ((float)pot_values[idx] / 4095.0f) * (max_val - min_val);
 80005e4:	eef7 5a08 	vmov.f32	s11, #120	@ 0x3fc00000  1.5
 80005e8:	eee5 7a25 	vfma.f32	s15, s10, s11
    app_filter_params.lpf_cutoff_freq = ((float)pot_values[1] / 4095.0f) * 10000.0f;
 80005ec:	ed9f 6a33 	vldr	s12, [pc, #204]	@ 80006bc <Pot_ApplyToParams+0x110>
    app_filter_params.master_volume = Pot_Map(5, 0.0f, 1.5f);
 80005f0:	edc4 7a00 	vstr	s15, [r4]
    app_filter_params.lpf_cutoff_freq = ((float)pot_values[1] / 4095.0f) * 10000.0f;
 80005f4:	ee27 7a06 	vmul.f32	s14, s14, s12
 80005f8:	ed84 7a05 	vstr	s14, [r4, #20]
        if (pot_values[2] < 100) {
 80005fc:	d82d      	bhi.n	800065a <Pot_ApplyToParams+0xae>
            // Pot sıfıra yakınken HPF tamamen devreden çıkar (Sesi hiç kesmez)
            app_filter_params.hpf_enable = 0;
 80005fe:	2300      	movs	r3, #0
 8000600:	7623      	strb	r3, [r4, #24]
            // Logaritmik geçiş: 20 Hz ile 1500 Hz arası (1500 / 20 = 75 çarpanı)
            // Böylece bas frekanslarda milim milim, hassas bir kontrolünüz olur.
            app_filter_params.hpf_cutoff_freq = 20.0f * powf(100.0f, norm);
        }
        /* POT4 → Delay Feedback */
            float fb = ((float)pot_values[3] / 4095.0f) * 0.45f;
 8000602:	88eb      	ldrh	r3, [r5, #6]
 8000604:	ed9f 6a2a 	vldr	s12, [pc, #168]	@ 80006b0 <Pot_ApplyToParams+0x104>
 8000608:	eddf 6a2d 	vldr	s13, [pc, #180]	@ 80006c0 <Pot_ApplyToParams+0x114>
 800060c:	ee07 3a10 	vmov	s14, r3
 8000610:	eeb8 7a47 	vcvt.f32.u32	s14, s14
                app_filter_params.delay_enable   = 1;
                app_filter_params.delay_feedback = fb;
            }

            /* ── POT5 (idx 4) → Ring Mod Frekans  ──────── */
                if (pot_values[4] < 100) {
 8000614:	892b      	ldrh	r3, [r5, #8]
            float fb = ((float)pot_values[3] / 4095.0f) * 0.45f;
 8000616:	eec7 7a06 	vdiv.f32	s15, s14, s12
            if (fb < 0.02f) {
 800061a:	ed9f 7a2a 	vldr	s14, [pc, #168]	@ 80006c4 <Pot_ApplyToParams+0x118>
            float fb = ((float)pot_values[3] / 4095.0f) * 0.45f;
 800061e:	ee67 7aa6 	vmul.f32	s15, s15, s13
            if (fb < 0.02f) {
 8000622:	eef4 7ac7 	vcmpe.f32	s15, s14
 8000626:	eef1 fa10 	vmrs	APSR_nzcv, fpscr
                app_filter_params.delay_feedback = 0.0f;
 800062a:	bf46      	itte	mi
 800062c:	eddf 7a22 	vldrmi	s15, [pc, #136]	@ 80006b8 <Pot_ApplyToParams+0x10c>
                app_filter_params.delay_enable   = 0;
 8000630:	2200      	movmi	r2, #0
                app_filter_params.delay_enable   = 1;
 8000632:	2201      	movpl	r2, #1
                if (pot_values[4] < 100) {
 8000634:	2b63      	cmp	r3, #99	@ 0x63
 8000636:	edc4 7a0c 	vstr	s15, [r4, #48]	@ 0x30
 800063a:	f884 202c 	strb.w	r2, [r4, #44]	@ 0x2c
 800063e:	d81f      	bhi.n	8000680 <Pot_ApplyToParams+0xd4>
                    // En soldayken  efekt tamamen kapanır
                    app_filter_params.ring_mod_enable = 0;
 8000640:	2300      	movs	r3, #0
 8000642:	7123      	strb	r3, [r4, #4]
                    // Oran: 3000 / 150 = 20
                    app_filter_params.ring_mod_freq = 150.0f * powf(20.0f, norm);
                }

    /* Güncellenmiş parametreleri DSP modülüne ilet */
    HAL_NVIC_DisableIRQ(DMA1_Stream4_IRQn);
 8000644:	200f      	movs	r0, #15
 8000646:	f001 fd49 	bl	80020dc <HAL_NVIC_DisableIRQ>
    Filter_Set_Params(&app_filter_params);
 800064a:	481a      	ldr	r0, [pc, #104]	@ (80006b4 <Pot_ApplyToParams+0x108>)
 800064c:	f000 f9d0 	bl	80009f0 <Filter_Set_Params>
    HAL_NVIC_EnableIRQ(DMA1_Stream4_IRQn);
}
 8000650:	e8bd 4038 	ldmia.w	sp!, {r3, r4, r5, lr}
    HAL_NVIC_EnableIRQ(DMA1_Stream4_IRQn);
 8000654:	200f      	movs	r0, #15
 8000656:	f001 bd33 	b.w	80020c0 <HAL_NVIC_EnableIRQ>
            float norm = (float)pot_values[2] / 4095.0f;
 800065a:	ee07 2a90 	vmov	s15, r2
 800065e:	eef8 0a67 	vcvt.f32.u32	s1, s15
            app_filter_params.hpf_enable = 1;
 8000662:	2301      	movs	r3, #1
            app_filter_params.hpf_cutoff_freq = 20.0f * powf(100.0f, norm);
 8000664:	eec0 0aa6 	vdiv.f32	s1, s1, s13
            app_filter_params.hpf_enable = 1;
 8000668:	7623      	strb	r3, [r4, #24]
            app_filter_params.hpf_cutoff_freq = 20.0f * powf(100.0f, norm);
 800066a:	ed9f 0a17 	vldr	s0, [pc, #92]	@ 80006c8 <Pot_ApplyToParams+0x11c>
 800066e:	f006 f8b7 	bl	80067e0 <powf>
 8000672:	eef3 7a04 	vmov.f32	s15, #52	@ 0x41a00000  20.0
 8000676:	ee20 0a27 	vmul.f32	s0, s0, s15
 800067a:	ed84 0a07 	vstr	s0, [r4, #28]
 800067e:	e7c0      	b.n	8000602 <Pot_ApplyToParams+0x56>
                    float norm = (float)pot_values[4] / 4095.0f;
 8000680:	ee07 3a90 	vmov	s15, r3
 8000684:	eddf 0a0a 	vldr	s1, [pc, #40]	@ 80006b0 <Pot_ApplyToParams+0x104>
 8000688:	eef8 7a67 	vcvt.f32.u32	s15, s15
                    app_filter_params.ring_mod_enable = 1;
 800068c:	2301      	movs	r3, #1
                    app_filter_params.ring_mod_freq = 150.0f * powf(20.0f, norm);
 800068e:	eec7 0aa0 	vdiv.f32	s1, s15, s1
                    app_filter_params.ring_mod_enable = 1;
 8000692:	7123      	strb	r3, [r4, #4]
                    app_filter_params.ring_mod_freq = 150.0f * powf(20.0f, norm);
 8000694:	eeb3 0a04 	vmov.f32	s0, #52	@ 0x41a00000  20.0
 8000698:	f006 f8a2 	bl	80067e0 <powf>
 800069c:	eddf 7a0b 	vldr	s15, [pc, #44]	@ 80006cc <Pot_ApplyToParams+0x120>
 80006a0:	ee20 0a27 	vmul.f32	s0, s0, s15
 80006a4:	ed84 0a02 	vstr	s0, [r4, #8]
 80006a8:	e7cc      	b.n	8000644 <Pot_ApplyToParams+0x98>
 80006aa:	bf00      	nop
 80006ac:	200001b4 	.word	0x200001b4
 80006b0:	457ff000 	.word	0x457ff000
 80006b4:	200001c0 	.word	0x200001c0
 80006b8:	00000000 	.word	0x00000000
 80006bc:	461c4000 	.word	0x461c4000
 80006c0:	3ee66666 	.word	0x3ee66666
 80006c4:	3ca3d70a 	.word	0x3ca3d70a
 80006c8:	42c80000 	.word	0x42c80000
 80006cc:	43160000 	.word	0x43160000

080006d0 <App_Init>:

/* ════════════════════════════════════════════
   APP_INIT
   ════════════════════════════════════════════ */
void App_Init(void)
{
 80006d0:	b508      	push	{r3, lr}
    /* Tüm efektler kapalı, sadece LPF aktifleşebilecek */
    app_filter_params.ring_mod_enable    = 1;
 80006d2:	4817      	ldr	r0, [pc, #92]	@ (8000730 <App_Init+0x60>)
    app_filter_params.ring_mod_freq      = 300.0f;
    app_filter_params.wah_sensitivity    = 0.5f;
    app_filter_params.delay_feedback     = 0.0f;

    app_filter_params.ring_mod_intensity = 0.7f;
    app_filter_params.wah_mix            = 0.8f;
 80006d4:	4a17      	ldr	r2, [pc, #92]	@ (8000734 <App_Init+0x64>)
    app_filter_params.ring_mod_freq      = 300.0f;
 80006d6:	f8df c068 	ldr.w	ip, [pc, #104]	@ 8000740 <App_Init+0x70>
    app_filter_params.lpf_cutoff_freq    =1000.0f;
 80006da:	f8df e068 	ldr.w	lr, [pc, #104]	@ 8000744 <App_Init+0x74>
    app_filter_params.ring_mod_freq      = 300.0f;
 80006de:	f8c0 c008 	str.w	ip, [r0, #8]
    app_filter_params.ring_mod_enable    = 1;
 80006e2:	2301      	movs	r3, #1
 80006e4:	7103      	strb	r3, [r0, #4]
    app_filter_params.hpf_enable         = 1;
 80006e6:	7603      	strb	r3, [r0, #24]
    app_filter_params.delay_enable       = 1;
 80006e8:	f880 302c 	strb.w	r3, [r0, #44]	@ 0x2c
    app_filter_params.lpf_enable         = 1;
 80006ec:	7403      	strb	r3, [r0, #16]
    app_filter_params.master_volume      = 1.0f;
 80006ee:	f04f 537e 	mov.w	r3, #1065353216	@ 0x3f800000
 80006f2:	6003      	str	r3, [r0, #0]
    app_filter_params.ring_mod_intensity = 0.7f;
 80006f4:	4b10      	ldr	r3, [pc, #64]	@ (8000738 <App_Init+0x68>)
 80006f6:	60c3      	str	r3, [r0, #12]
    app_filter_params.delay_feedback     = 0.0f;
 80006f8:	2100      	movs	r1, #0
    app_filter_params.hpf_cutoff_freq    = 20.0f;
 80006fa:	4b10      	ldr	r3, [pc, #64]	@ (800073c <App_Init+0x6c>)
    app_filter_params.wah_mix            = 0.8f;
 80006fc:	6282      	str	r2, [r0, #40]	@ 0x28
    app_filter_params.wah_sensitivity    = 0.5f;
 80006fe:	f04f 5c7c 	mov.w	ip, #1056964608	@ 0x3f000000
    app_filter_params.delay_mix          = 0.8f;
 8000702:	6342      	str	r2, [r0, #52]	@ 0x34
    app_filter_params.wah_enable         = 0;
 8000704:	2200      	movs	r2, #0
    app_filter_params.lpf_cutoff_freq    =1000.0f;
 8000706:	f8c0 e014 	str.w	lr, [r0, #20]
    app_filter_params.hpf_cutoff_freq    = 20.0f;
 800070a:	61c3      	str	r3, [r0, #28]
    app_filter_params.wah_sensitivity    = 0.5f;
 800070c:	f8c0 c024 	str.w	ip, [r0, #36]	@ 0x24
    app_filter_params.delay_feedback     = 0.0f;
 8000710:	6301      	str	r1, [r0, #48]	@ 0x30
    app_filter_params.wah_enable         = 0;
 8000712:	f880 2020 	strb.w	r2, [r0, #32]

    /* Filtre motoru ve audio stream başlat */
    Filter_Init(&app_filter_params);
 8000716:	f000 f9fb 	bl	8000b10 <Filter_Init>
    AudioStream_Init();
 800071a:	f000 f829 	bl	8000770 <AudioStream_Init>
    AudioStream_Start();
 800071e:	f000 f847 	bl	80007b0 <AudioStream_Start>

    /* İlk pot okuma */
    Pot_ReadAll();
 8000722:	f7ff feef 	bl	8000504 <Pot_ReadAll>
    Pot_ApplyToParams();
}
 8000726:	e8bd 4008 	ldmia.w	sp!, {r3, lr}
    Pot_ApplyToParams();
 800072a:	f7ff bf3f 	b.w	80005ac <Pot_ApplyToParams>
 800072e:	bf00      	nop
 8000730:	200001c0 	.word	0x200001c0
 8000734:	3f4ccccd 	.word	0x3f4ccccd
 8000738:	3f333333 	.word	0x3f333333
 800073c:	41a00000 	.word	0x41a00000
 8000740:	43960000 	.word	0x43960000
 8000744:	447a0000 	.word	0x447a0000

08000748 <App_Loop>:

/* ════════════════════════════════════════════
   APP_LOOP
   ════════════════════════════════════════════ */
void App_Loop(void)
{
 8000748:	b510      	push	{r4, lr}
    static uint32_t last_pot_tick = 0;

    if ((HAL_GetTick() - last_pot_tick) >= POT_UPDATE_MS) {
 800074a:	4c08      	ldr	r4, [pc, #32]	@ (800076c <App_Loop+0x24>)
 800074c:	f001 fa00 	bl	8001b50 <HAL_GetTick>
 8000750:	6823      	ldr	r3, [r4, #0]
 8000752:	1ac0      	subs	r0, r0, r3
 8000754:	2813      	cmp	r0, #19
 8000756:	d800      	bhi.n	800075a <App_Loop+0x12>
        last_pot_tick = HAL_GetTick();

        Pot_ReadAll();
        Pot_ApplyToParams();
    }
}
 8000758:	bd10      	pop	{r4, pc}
        last_pot_tick = HAL_GetTick();
 800075a:	f001 f9f9 	bl	8001b50 <HAL_GetTick>
 800075e:	6020      	str	r0, [r4, #0]
        Pot_ReadAll();
 8000760:	f7ff fed0 	bl	8000504 <Pot_ReadAll>
}
 8000764:	e8bd 4010 	ldmia.w	sp!, {r4, lr}
        Pot_ApplyToParams();
 8000768:	f7ff bf20 	b.w	80005ac <Pot_ApplyToParams>
 800076c:	200001a4 	.word	0x200001a4

08000770 <AudioStream_Init>:

/* ══════════════════════════════════════════════
   DIŞARIYA AÇILAN FONKSİYONLAR
   ══════════════════════════════════════════════ */

void AudioStream_Init(void) {
 8000770:	b510      	push	{r4, lr}
    // Circular DMA başlat. TX_FULL_SAMPLES kadar veri gönder.
    HAL_I2S_Transmit_DMA(&hi2s2, (uint16_t*)Audio_Tx_Buffer, TX_FULL_SAMPLES);
}

void AudioStream_Reset(void) {
    ring_write_ptr = 0;
 8000772:	480a      	ldr	r0, [pc, #40]	@ (800079c <AudioStream_Init+0x2c>)
    ring_read_ptr = 0;
 8000774:	490a      	ldr	r1, [pc, #40]	@ (80007a0 <AudioStream_Init+0x30>)
    ring_available_bytes = 0;
 8000776:	4b0b      	ldr	r3, [pc, #44]	@ (80007a4 <AudioStream_Init+0x34>)
    ring_write_ptr = 0;
 8000778:	2400      	movs	r4, #0
 800077a:	6004      	str	r4, [r0, #0]

    memset(Audio_Tx_Buffer, 0, sizeof(Audio_Tx_Buffer));
 800077c:	f44f 7240 	mov.w	r2, #768	@ 0x300
    ring_read_ptr = 0;
 8000780:	600c      	str	r4, [r1, #0]
    memset(Audio_Tx_Buffer, 0, sizeof(Audio_Tx_Buffer));
 8000782:	4809      	ldr	r0, [pc, #36]	@ (80007a8 <AudioStream_Init+0x38>)
    ring_available_bytes = 0;
 8000784:	601c      	str	r4, [r3, #0]
    memset(Audio_Tx_Buffer, 0, sizeof(Audio_Tx_Buffer));
 8000786:	4621      	mov	r1, r4
 8000788:	f005 fff8 	bl	800677c <memset>
    memset(Ring_Buffer, 0, sizeof(Ring_Buffer));
 800078c:	4621      	mov	r1, r4
 800078e:	4807      	ldr	r0, [pc, #28]	@ (80007ac <AudioStream_Init+0x3c>)
}
 8000790:	e8bd 4010 	ldmia.w	sp!, {r4, lr}
    memset(Ring_Buffer, 0, sizeof(Ring_Buffer));
 8000794:	f44f 3280 	mov.w	r2, #65536	@ 0x10000
 8000798:	f005 bff0 	b.w	800677c <memset>
 800079c:	20000500 	.word	0x20000500
 80007a0:	200004fc 	.word	0x200004fc
 80007a4:	200004f8 	.word	0x200004f8
 80007a8:	200001f8 	.word	0x200001f8
 80007ac:	20000504 	.word	0x20000504

080007b0 <AudioStream_Start>:
    HAL_I2S_Transmit_DMA(&hi2s2, (uint16_t*)Audio_Tx_Buffer, TX_FULL_SAMPLES);
 80007b0:	4902      	ldr	r1, [pc, #8]	@ (80007bc <AudioStream_Start+0xc>)
 80007b2:	4803      	ldr	r0, [pc, #12]	@ (80007c0 <AudioStream_Start+0x10>)
 80007b4:	f44f 72c0 	mov.w	r2, #384	@ 0x180
 80007b8:	f002 b8fc 	b.w	80029b4 <HAL_I2S_Transmit_DMA>
 80007bc:	200001f8 	.word	0x200001f8
 80007c0:	200185f8 	.word	0x200185f8

080007c4 <AudioStream_Reset>:
void AudioStream_Reset(void) {
 80007c4:	b510      	push	{r4, lr}
    ring_write_ptr = 0;
 80007c6:	480a      	ldr	r0, [pc, #40]	@ (80007f0 <AudioStream_Reset+0x2c>)
    ring_read_ptr = 0;
 80007c8:	490a      	ldr	r1, [pc, #40]	@ (80007f4 <AudioStream_Reset+0x30>)
    ring_available_bytes = 0;
 80007ca:	4b0b      	ldr	r3, [pc, #44]	@ (80007f8 <AudioStream_Reset+0x34>)
    ring_write_ptr = 0;
 80007cc:	2400      	movs	r4, #0
 80007ce:	6004      	str	r4, [r0, #0]
    memset(Audio_Tx_Buffer, 0, sizeof(Audio_Tx_Buffer));
 80007d0:	f44f 7240 	mov.w	r2, #768	@ 0x300
    ring_read_ptr = 0;
 80007d4:	600c      	str	r4, [r1, #0]
    memset(Audio_Tx_Buffer, 0, sizeof(Audio_Tx_Buffer));
 80007d6:	4809      	ldr	r0, [pc, #36]	@ (80007fc <AudioStream_Reset+0x38>)
    ring_available_bytes = 0;
 80007d8:	601c      	str	r4, [r3, #0]
    memset(Audio_Tx_Buffer, 0, sizeof(Audio_Tx_Buffer));
 80007da:	4621      	mov	r1, r4
 80007dc:	f005 ffce 	bl	800677c <memset>
    memset(Ring_Buffer, 0, sizeof(Ring_Buffer));
 80007e0:	4621      	mov	r1, r4
 80007e2:	4807      	ldr	r0, [pc, #28]	@ (8000800 <AudioStream_Reset+0x3c>)
}
 80007e4:	e8bd 4010 	ldmia.w	sp!, {r4, lr}
    memset(Ring_Buffer, 0, sizeof(Ring_Buffer));
 80007e8:	f44f 3280 	mov.w	r2, #65536	@ 0x10000
 80007ec:	f005 bfc6 	b.w	800677c <memset>
 80007f0:	20000500 	.word	0x20000500
 80007f4:	200004fc 	.word	0x200004fc
 80007f8:	200004f8 	.word	0x200004f8
 80007fc:	200001f8 	.word	0x200001f8
 8000800:	20000504 	.word	0x20000504

08000804 <AudioStream_Write_USB_Packet>:

// USB'den gelen veriyi buraya atıyoruz (USB kesmesi içinden çağrılır)
void AudioStream_Write_USB_Packet(uint8_t* pbuf, uint32_t len) {
 8000804:	b570      	push	{r4, r5, r6, lr}
    // Buffer taşma koruması
    if ((ring_available_bytes + len) > RING_BUFFER_SIZE) {
 8000806:	4d0e      	ldr	r5, [pc, #56]	@ (8000840 <AudioStream_Write_USB_Packet+0x3c>)
 8000808:	682b      	ldr	r3, [r5, #0]
 800080a:	440b      	add	r3, r1
 800080c:	f5b3 3f80 	cmp.w	r3, #65536	@ 0x10000
 8000810:	d815      	bhi.n	800083e <AudioStream_Write_USB_Packet+0x3a>
        return; // Veri kaybı (Overrun)
    }

    // Veriyi ring buffer'a yaz
    for (uint32_t i = 0; i < len; i++) {
 8000812:	b189      	cbz	r1, 8000838 <AudioStream_Write_USB_Packet+0x34>
 8000814:	eb00 0e01 	add.w	lr, r0, r1
 8000818:	4a0a      	ldr	r2, [pc, #40]	@ (8000844 <AudioStream_Write_USB_Packet+0x40>)
 800081a:	4e0b      	ldr	r6, [pc, #44]	@ (8000848 <AudioStream_Write_USB_Packet+0x44>)
 800081c:	3801      	subs	r0, #1
 800081e:	f10e 3eff 	add.w	lr, lr, #4294967295
        Ring_Buffer[ring_write_ptr] = pbuf[i];
 8000822:	6814      	ldr	r4, [r2, #0]
        ring_write_ptr = (ring_write_ptr + 1) % RING_BUFFER_SIZE;
 8000824:	6813      	ldr	r3, [r2, #0]
        Ring_Buffer[ring_write_ptr] = pbuf[i];
 8000826:	f810 cf01 	ldrb.w	ip, [r0, #1]!
 800082a:	f806 c004 	strb.w	ip, [r6, r4]
        ring_write_ptr = (ring_write_ptr + 1) % RING_BUFFER_SIZE;
 800082e:	3301      	adds	r3, #1
 8000830:	b29b      	uxth	r3, r3
    for (uint32_t i = 0; i < len; i++) {
 8000832:	4570      	cmp	r0, lr
        ring_write_ptr = (ring_write_ptr + 1) % RING_BUFFER_SIZE;
 8000834:	6013      	str	r3, [r2, #0]
    for (uint32_t i = 0; i < len; i++) {
 8000836:	d1f4      	bne.n	8000822 <AudioStream_Write_USB_Packet+0x1e>
    }

    // Mevcut bayt sayısını artır (Kesme korumaları kaldırıldı)
    ring_available_bytes += len;
 8000838:	682b      	ldr	r3, [r5, #0]
 800083a:	440b      	add	r3, r1
 800083c:	602b      	str	r3, [r5, #0]
}
 800083e:	bd70      	pop	{r4, r5, r6, pc}
 8000840:	200004f8 	.word	0x200004f8
 8000844:	20000500 	.word	0x20000500
 8000848:	20000504 	.word	0x20000504

0800084c <AudioStream_Is_Ready_To_Play>:

uint8_t AudioStream_Is_Ready_To_Play(void) {
    return (ring_available_bytes >= TARGET_LEVEL) ? 1 : 0;
 800084c:	4b03      	ldr	r3, [pc, #12]	@ (800085c <AudioStream_Is_Ready_To_Play+0x10>)
 800084e:	6818      	ldr	r0, [r3, #0]
}
 8000850:	f5b0 4f00 	cmp.w	r0, #32768	@ 0x8000
 8000854:	bfb4      	ite	lt
 8000856:	2000      	movlt	r0, #0
 8000858:	2001      	movge	r0, #1
 800085a:	4770      	bx	lr
 800085c:	200004f8 	.word	0x200004f8

08000860 <AudioStream_Process_Half_Transfer>:
        ring_available_bytes -= bytes_needed;
    }
}

// DMA Buffer'ın İLK yarısı bittiğinde çalışır (I2S DMA Kesmesi)
void AudioStream_Process_Half_Transfer(void) {
 8000860:	b538      	push	{r3, r4, r5, lr}
    if (ring_available_bytes > (TARGET_LEVEL + DRIFT_THRESHOLD)) {
 8000862:	4c26      	ldr	r4, [pc, #152]	@ (80008fc <AudioStream_Process_Half_Transfer+0x9c>)
    USBD_AUDIO_Sync(&hUsbDeviceFS, AUDIO_OFFSET_HALF);
 8000864:	4826      	ldr	r0, [pc, #152]	@ (8000900 <AudioStream_Process_Half_Transfer+0xa0>)
 8000866:	2101      	movs	r1, #1
 8000868:	f004 ff96 	bl	8005798 <USBD_AUDIO_Sync>
    if (ring_available_bytes > (TARGET_LEVEL + DRIFT_THRESHOLD)) {
 800086c:	6823      	ldr	r3, [r4, #0]
 800086e:	f5b3 4f08 	cmp.w	r3, #34816	@ 0x8800
 8000872:	dd24      	ble.n	80008be <AudioStream_Process_Half_Transfer+0x5e>
        ring_read_ptr = (ring_read_ptr + (AUDIO_CHANNELS * BYTES_PER_SAMPLE)) % RING_BUFFER_SIZE;
 8000874:	4a23      	ldr	r2, [pc, #140]	@ (8000904 <AudioStream_Process_Half_Transfer+0xa4>)
 8000876:	6813      	ldr	r3, [r2, #0]
 8000878:	3304      	adds	r3, #4
 800087a:	b29b      	uxth	r3, r3
 800087c:	6013      	str	r3, [r2, #0]
        ring_available_bytes -= (AUDIO_CHANNELS * BYTES_PER_SAMPLE);
 800087e:	6823      	ldr	r3, [r4, #0]
 8000880:	3b04      	subs	r3, #4
 8000882:	6023      	str	r3, [r4, #0]
    if (ring_available_bytes < bytes_needed) {
 8000884:	6823      	ldr	r3, [r4, #0]
 8000886:	f5b3 7fc0 	cmp.w	r3, #384	@ 0x180
 800088a:	d32a      	bcc.n	80008e2 <AudioStream_Process_Half_Transfer+0x82>
 800088c:	491e      	ldr	r1, [pc, #120]	@ (8000908 <AudioStream_Process_Half_Transfer+0xa8>)
 800088e:	4a1d      	ldr	r2, [pc, #116]	@ (8000904 <AudioStream_Process_Half_Transfer+0xa4>)
 8000890:	4d1e      	ldr	r5, [pc, #120]	@ (800090c <AudioStream_Process_Half_Transfer+0xac>)
 8000892:	f501 7cc0 	add.w	ip, r1, #384	@ 0x180
            pOut8[i] = Ring_Buffer[ring_read_ptr];
 8000896:	6810      	ldr	r0, [r2, #0]
            ring_read_ptr = (ring_read_ptr + 1) % RING_BUFFER_SIZE;
 8000898:	6813      	ldr	r3, [r2, #0]
            pOut8[i] = Ring_Buffer[ring_read_ptr];
 800089a:	5c28      	ldrb	r0, [r5, r0]
 800089c:	f801 0f01 	strb.w	r0, [r1, #1]!
            ring_read_ptr = (ring_read_ptr + 1) % RING_BUFFER_SIZE;
 80008a0:	3301      	adds	r3, #1
 80008a2:	b29b      	uxth	r3, r3
        for (uint32_t i = 0; i < bytes_needed; i++) {
 80008a4:	4561      	cmp	r1, ip
            ring_read_ptr = (ring_read_ptr + 1) % RING_BUFFER_SIZE;
 80008a6:	6013      	str	r3, [r2, #0]
        for (uint32_t i = 0; i < bytes_needed; i++) {
 80008a8:	d1f5      	bne.n	8000896 <AudioStream_Process_Half_Transfer+0x36>
        ring_available_bytes -= bytes_needed;
 80008aa:	6823      	ldr	r3, [r4, #0]
    int16_t* pSafeZone = &Audio_Tx_Buffer[0];

    // USB Buffer'ından veriyi çek
    Process_Audio_Chunk(pSafeZone, TX_HALF_SAMPLES);
    // Çekilen veriye DSP filtrelerini uygula
    Filter_Apply(pSafeZone, TX_HALF_SAMPLES);
 80008ac:	4818      	ldr	r0, [pc, #96]	@ (8000910 <AudioStream_Process_Half_Transfer+0xb0>)
        ring_available_bytes -= bytes_needed;
 80008ae:	f5a3 73c0 	sub.w	r3, r3, #384	@ 0x180
 80008b2:	6023      	str	r3, [r4, #0]
    Filter_Apply(pSafeZone, TX_HALF_SAMPLES);
 80008b4:	21c0      	movs	r1, #192	@ 0xc0
}
 80008b6:	e8bd 4038 	ldmia.w	sp!, {r3, r4, r5, lr}
    Filter_Apply(pSafeZone, TX_HALF_SAMPLES);
 80008ba:	f000 b9b3 	b.w	8000c24 <Filter_Apply>
    else if (ring_available_bytes < (TARGET_LEVEL - DRIFT_THRESHOLD)) {
 80008be:	6823      	ldr	r3, [r4, #0]
 80008c0:	f5b3 4ff0 	cmp.w	r3, #30720	@ 0x7800
 80008c4:	dade      	bge.n	8000884 <AudioStream_Process_Half_Transfer+0x24>
        ring_read_ptr = (ring_read_ptr - (AUDIO_CHANNELS * BYTES_PER_SAMPLE) + RING_BUFFER_SIZE) % RING_BUFFER_SIZE;
 80008c6:	4a0f      	ldr	r2, [pc, #60]	@ (8000904 <AudioStream_Process_Half_Transfer+0xa4>)
 80008c8:	6813      	ldr	r3, [r2, #0]
 80008ca:	f503 437f 	add.w	r3, r3, #65280	@ 0xff00
 80008ce:	33fc      	adds	r3, #252	@ 0xfc
 80008d0:	b29b      	uxth	r3, r3
 80008d2:	6013      	str	r3, [r2, #0]
        ring_available_bytes += (AUDIO_CHANNELS * BYTES_PER_SAMPLE);
 80008d4:	6823      	ldr	r3, [r4, #0]
 80008d6:	3304      	adds	r3, #4
 80008d8:	6023      	str	r3, [r4, #0]
    if (ring_available_bytes < bytes_needed) {
 80008da:	6823      	ldr	r3, [r4, #0]
 80008dc:	f5b3 7fc0 	cmp.w	r3, #384	@ 0x180
 80008e0:	d2d4      	bcs.n	800088c <AudioStream_Process_Half_Transfer+0x2c>
        memset(pOutputBuffer, 0, bytes_needed);
 80008e2:	2100      	movs	r1, #0
 80008e4:	480a      	ldr	r0, [pc, #40]	@ (8000910 <AudioStream_Process_Half_Transfer+0xb0>)
 80008e6:	f44f 72c0 	mov.w	r2, #384	@ 0x180
 80008ea:	f005 ff47 	bl	800677c <memset>
}
 80008ee:	e8bd 4038 	ldmia.w	sp!, {r3, r4, r5, lr}
    Filter_Apply(pSafeZone, TX_HALF_SAMPLES);
 80008f2:	4807      	ldr	r0, [pc, #28]	@ (8000910 <AudioStream_Process_Half_Transfer+0xb0>)
 80008f4:	21c0      	movs	r1, #192	@ 0xc0
 80008f6:	f000 b995 	b.w	8000c24 <Filter_Apply>
 80008fa:	bf00      	nop
 80008fc:	200004f8 	.word	0x200004f8
 8000900:	20018690 	.word	0x20018690
 8000904:	200004fc 	.word	0x200004fc
 8000908:	200001f7 	.word	0x200001f7
 800090c:	20000504 	.word	0x20000504
 8000910:	200001f8 	.word	0x200001f8

08000914 <AudioStream_Process_Full_Transfer>:

// DMA Buffer'ın İKİNCİ yarısı bittiğinde çalışır (I2S DMA Kesmesi)
void AudioStream_Process_Full_Transfer(void) {
 8000914:	b538      	push	{r3, r4, r5, lr}
    if (ring_available_bytes > (TARGET_LEVEL + DRIFT_THRESHOLD)) {
 8000916:	4c26      	ldr	r4, [pc, #152]	@ (80009b0 <AudioStream_Process_Full_Transfer+0x9c>)
    USBD_AUDIO_Sync(&hUsbDeviceFS, AUDIO_OFFSET_FULL);
 8000918:	4826      	ldr	r0, [pc, #152]	@ (80009b4 <AudioStream_Process_Full_Transfer+0xa0>)
 800091a:	2102      	movs	r1, #2
 800091c:	f004 ff3c 	bl	8005798 <USBD_AUDIO_Sync>
    if (ring_available_bytes > (TARGET_LEVEL + DRIFT_THRESHOLD)) {
 8000920:	6823      	ldr	r3, [r4, #0]
 8000922:	f5b3 4f08 	cmp.w	r3, #34816	@ 0x8800
 8000926:	dd24      	ble.n	8000972 <AudioStream_Process_Full_Transfer+0x5e>
        ring_read_ptr = (ring_read_ptr + (AUDIO_CHANNELS * BYTES_PER_SAMPLE)) % RING_BUFFER_SIZE;
 8000928:	4a23      	ldr	r2, [pc, #140]	@ (80009b8 <AudioStream_Process_Full_Transfer+0xa4>)
 800092a:	6813      	ldr	r3, [r2, #0]
 800092c:	3304      	adds	r3, #4
 800092e:	b29b      	uxth	r3, r3
 8000930:	6013      	str	r3, [r2, #0]
        ring_available_bytes -= (AUDIO_CHANNELS * BYTES_PER_SAMPLE);
 8000932:	6823      	ldr	r3, [r4, #0]
 8000934:	3b04      	subs	r3, #4
 8000936:	6023      	str	r3, [r4, #0]
    if (ring_available_bytes < bytes_needed) {
 8000938:	6823      	ldr	r3, [r4, #0]
 800093a:	f5b3 7fc0 	cmp.w	r3, #384	@ 0x180
 800093e:	d32a      	bcc.n	8000996 <AudioStream_Process_Full_Transfer+0x82>
 8000940:	491e      	ldr	r1, [pc, #120]	@ (80009bc <AudioStream_Process_Full_Transfer+0xa8>)
 8000942:	4a1d      	ldr	r2, [pc, #116]	@ (80009b8 <AudioStream_Process_Full_Transfer+0xa4>)
 8000944:	4d1e      	ldr	r5, [pc, #120]	@ (80009c0 <AudioStream_Process_Full_Transfer+0xac>)
 8000946:	f501 7cc0 	add.w	ip, r1, #384	@ 0x180
            pOut8[i] = Ring_Buffer[ring_read_ptr];
 800094a:	6810      	ldr	r0, [r2, #0]
            ring_read_ptr = (ring_read_ptr + 1) % RING_BUFFER_SIZE;
 800094c:	6813      	ldr	r3, [r2, #0]
            pOut8[i] = Ring_Buffer[ring_read_ptr];
 800094e:	5c28      	ldrb	r0, [r5, r0]
 8000950:	f801 0f01 	strb.w	r0, [r1, #1]!
            ring_read_ptr = (ring_read_ptr + 1) % RING_BUFFER_SIZE;
 8000954:	3301      	adds	r3, #1
 8000956:	b29b      	uxth	r3, r3
        for (uint32_t i = 0; i < bytes_needed; i++) {
 8000958:	4561      	cmp	r1, ip
            ring_read_ptr = (ring_read_ptr + 1) % RING_BUFFER_SIZE;
 800095a:	6013      	str	r3, [r2, #0]
        for (uint32_t i = 0; i < bytes_needed; i++) {
 800095c:	d1f5      	bne.n	800094a <AudioStream_Process_Full_Transfer+0x36>
        ring_available_bytes -= bytes_needed;
 800095e:	6823      	ldr	r3, [r4, #0]
    int16_t* pSafeZone = &Audio_Tx_Buffer[TX_HALF_SAMPLES];

    // USB Buffer'ından veriyi çek
    Process_Audio_Chunk(pSafeZone, TX_HALF_SAMPLES);
    // Çekilen veriye DSP filtrelerini uygula
    Filter_Apply(pSafeZone, TX_HALF_SAMPLES);
 8000960:	4818      	ldr	r0, [pc, #96]	@ (80009c4 <AudioStream_Process_Full_Transfer+0xb0>)
        ring_available_bytes -= bytes_needed;
 8000962:	f5a3 73c0 	sub.w	r3, r3, #384	@ 0x180
 8000966:	6023      	str	r3, [r4, #0]
    Filter_Apply(pSafeZone, TX_HALF_SAMPLES);
 8000968:	21c0      	movs	r1, #192	@ 0xc0
}
 800096a:	e8bd 4038 	ldmia.w	sp!, {r3, r4, r5, lr}
    Filter_Apply(pSafeZone, TX_HALF_SAMPLES);
 800096e:	f000 b959 	b.w	8000c24 <Filter_Apply>
    else if (ring_available_bytes < (TARGET_LEVEL - DRIFT_THRESHOLD)) {
 8000972:	6823      	ldr	r3, [r4, #0]
 8000974:	f5b3 4ff0 	cmp.w	r3, #30720	@ 0x7800
 8000978:	dade      	bge.n	8000938 <AudioStream_Process_Full_Transfer+0x24>
        ring_read_ptr = (ring_read_ptr - (AUDIO_CHANNELS * BYTES_PER_SAMPLE) + RING_BUFFER_SIZE) % RING_BUFFER_SIZE;
 800097a:	4a0f      	ldr	r2, [pc, #60]	@ (80009b8 <AudioStream_Process_Full_Transfer+0xa4>)
 800097c:	6813      	ldr	r3, [r2, #0]
 800097e:	f503 437f 	add.w	r3, r3, #65280	@ 0xff00
 8000982:	33fc      	adds	r3, #252	@ 0xfc
 8000984:	b29b      	uxth	r3, r3
 8000986:	6013      	str	r3, [r2, #0]
        ring_available_bytes += (AUDIO_CHANNELS * BYTES_PER_SAMPLE);
 8000988:	6823      	ldr	r3, [r4, #0]
 800098a:	3304      	adds	r3, #4
 800098c:	6023      	str	r3, [r4, #0]
    if (ring_available_bytes < bytes_needed) {
 800098e:	6823      	ldr	r3, [r4, #0]
 8000990:	f5b3 7fc0 	cmp.w	r3, #384	@ 0x180
 8000994:	d2d4      	bcs.n	8000940 <AudioStream_Process_Full_Transfer+0x2c>
        memset(pOutputBuffer, 0, bytes_needed);
 8000996:	2100      	movs	r1, #0
 8000998:	480a      	ldr	r0, [pc, #40]	@ (80009c4 <AudioStream_Process_Full_Transfer+0xb0>)
 800099a:	f44f 72c0 	mov.w	r2, #384	@ 0x180
 800099e:	f005 feed 	bl	800677c <memset>
}
 80009a2:	e8bd 4038 	ldmia.w	sp!, {r3, r4, r5, lr}
    Filter_Apply(pSafeZone, TX_HALF_SAMPLES);
 80009a6:	4807      	ldr	r0, [pc, #28]	@ (80009c4 <AudioStream_Process_Full_Transfer+0xb0>)
 80009a8:	21c0      	movs	r1, #192	@ 0xc0
 80009aa:	f000 b93b 	b.w	8000c24 <Filter_Apply>
 80009ae:	bf00      	nop
 80009b0:	200004f8 	.word	0x200004f8
 80009b4:	20018690 	.word	0x20018690
 80009b8:	200004fc 	.word	0x200004fc
 80009bc:	20000377 	.word	0x20000377
 80009c0:	20000504 	.word	0x20000504
 80009c4:	20000378 	.word	0x20000378

080009c8 <HAL_I2S_TxHalfCpltCallback>:
   HAL CALLBACK'LERİ (DMA Kesme Yakalayıcılar)
   ══════════════════════════════════════════════ */

// I2S (SPI2) Yarım Aktarım Tamamlandı (Half Transfer Complete)
void HAL_I2S_TxHalfCpltCallback(I2S_HandleTypeDef *hi2s) {
    if(hi2s->Instance == SPI2) {
 80009c8:	4b03      	ldr	r3, [pc, #12]	@ (80009d8 <HAL_I2S_TxHalfCpltCallback+0x10>)
 80009ca:	6802      	ldr	r2, [r0, #0]
 80009cc:	429a      	cmp	r2, r3
 80009ce:	d000      	beq.n	80009d2 <HAL_I2S_TxHalfCpltCallback+0xa>
        AudioStream_Process_Half_Transfer();
    }
}
 80009d0:	4770      	bx	lr
        AudioStream_Process_Half_Transfer();
 80009d2:	f7ff bf45 	b.w	8000860 <AudioStream_Process_Half_Transfer>
 80009d6:	bf00      	nop
 80009d8:	40003800 	.word	0x40003800

080009dc <HAL_I2S_TxCpltCallback>:

// I2S (SPI2) Tam Aktarım Tamamlandı (Transfer Complete)
void HAL_I2S_TxCpltCallback(I2S_HandleTypeDef *hi2s) {
    if(hi2s->Instance == SPI2) {
 80009dc:	4b03      	ldr	r3, [pc, #12]	@ (80009ec <HAL_I2S_TxCpltCallback+0x10>)
 80009de:	6802      	ldr	r2, [r0, #0]
 80009e0:	429a      	cmp	r2, r3
 80009e2:	d000      	beq.n	80009e6 <HAL_I2S_TxCpltCallback+0xa>
        AudioStream_Process_Full_Transfer();
    }
}
 80009e4:	4770      	bx	lr
        AudioStream_Process_Full_Transfer();
 80009e6:	f7ff bf95 	b.w	8000914 <AudioStream_Process_Full_Transfer>
 80009ea:	bf00      	nop
 80009ec:	40003800 	.word	0x40003800

080009f0 <Filter_Set_Params>:

    Filter_Set_Params(&current_params);
}

void Filter_Set_Params(filter_params_t *new_params) {
    current_params = *new_params;
 80009f0:	4684      	mov	ip, r0
 80009f2:	e8bc 000f 	ldmia.w	ip!, {r0, r1, r2, r3}
void Filter_Set_Params(filter_params_t *new_params) {
 80009f6:	b530      	push	{r4, r5, lr}
    current_params = *new_params;
 80009f8:	4c3c      	ldr	r4, [pc, #240]	@ (8000aec <Filter_Set_Params+0xfc>)

    carrier_increment = (2.0f * PI * current_params.ring_mod_freq) / SAMPLE_RATE;
 80009fa:	ed9f 7a3d 	vldr	s14, [pc, #244]	@ 8000af0 <Filter_Set_Params+0x100>
 80009fe:	ed9f 6a3d 	vldr	s12, [pc, #244]	@ 8000af4 <Filter_Set_Params+0x104>
 8000a02:	4d3d      	ldr	r5, [pc, #244]	@ (8000af8 <Filter_Set_Params+0x108>)
    current_params = *new_params;
 8000a04:	46a6      	mov	lr, r4
 8000a06:	e8ae 000f 	stmia.w	lr!, {r0, r1, r2, r3}
 8000a0a:	e8bc 000f 	ldmia.w	ip!, {r0, r1, r2, r3}
    carrier_increment = (2.0f * PI * current_params.ring_mod_freq) / SAMPLE_RATE;
 8000a0e:	edd4 7a02 	vldr	s15, [r4, #8]
 8000a12:	ee67 7a87 	vmul.f32	s15, s15, s14
    current_params = *new_params;
 8000a16:	e8ae 000f 	stmia.w	lr!, {r0, r1, r2, r3}
    carrier_increment = (2.0f * PI * current_params.ring_mod_freq) / SAMPLE_RATE;
 8000a1a:	eec7 6a86 	vdiv.f32	s13, s15, s12
    current_params = *new_params;
 8000a1e:	e8bc 000f 	ldmia.w	ip!, {r0, r1, r2, r3}
 8000a22:	e8ae 000f 	stmia.w	lr!, {r0, r1, r2, r3}
 8000a26:	e89c 0003 	ldmia.w	ip, {r0, r1}
    carrier_increment = (2.0f * PI * current_params.ring_mod_freq) / SAMPLE_RATE;
 8000a2a:	edc5 6a00 	vstr	s13, [r5]

    lpf_alpha = current_params.lpf_enable ? Calculate_LPF_Alpha(current_params.lpf_cutoff_freq) : 1.0f;
 8000a2e:	7c25      	ldrb	r5, [r4, #16]
    current_params = *new_params;
 8000a30:	e88e 0003 	stmia.w	lr, {r0, r1}
    lpf_alpha = current_params.lpf_enable ? Calculate_LPF_Alpha(current_params.lpf_cutoff_freq) : 1.0f;
 8000a34:	b335      	cbz	r5, 8000a84 <Filter_Set_Params+0x94>
 8000a36:	edd4 7a05 	vldr	s15, [r4, #20]
    if (cutoff_freq >= (SAMPLE_RATE / 2.0f)) return 1.0f;
 8000a3a:	eddf 6a30 	vldr	s13, [pc, #192]	@ 8000afc <Filter_Set_Params+0x10c>
 8000a3e:	eef4 7ae6 	vcmpe.f32	s15, s13
 8000a42:	eef1 fa10 	vmrs	APSR_nzcv, fpscr
 8000a46:	da1d      	bge.n	8000a84 <Filter_Set_Params+0x94>
    if (cutoff_freq <= 20.0f) return 0.0f;
 8000a48:	eef3 6a04 	vmov.f32	s13, #52	@ 0x41a00000  20.0
 8000a4c:	eef4 7ae6 	vcmpe.f32	s15, s13
 8000a50:	eef1 fa10 	vmrs	APSR_nzcv, fpscr
 8000a54:	d946      	bls.n	8000ae4 <Filter_Set_Params+0xf4>
    float rc = 1.0f / (2.0f * PI * cutoff_freq);
 8000a56:	ee67 7a87 	vmul.f32	s15, s15, s14
 8000a5a:	eef7 6a00 	vmov.f32	s13, #112	@ 0x3f800000  1.0
 8000a5e:	ee86 7aa7 	vdiv.f32	s14, s13, s15
    lpf_alpha = current_params.lpf_enable ? Calculate_LPF_Alpha(current_params.lpf_cutoff_freq) : 1.0f;
 8000a62:	4a27      	ldr	r2, [pc, #156]	@ (8000b00 <Filter_Set_Params+0x110>)
    hpf_alpha = current_params.hpf_enable ? Calculate_HPF_Alpha(current_params.hpf_cutoff_freq) : 1.0f;
 8000a64:	7e23      	ldrb	r3, [r4, #24]
    return dt / (rc + dt);
 8000a66:	eddf 6a27 	vldr	s13, [pc, #156]	@ 8000b04 <Filter_Set_Params+0x114>
 8000a6a:	ee37 7a26 	vadd.f32	s14, s14, s13
 8000a6e:	eec6 7a87 	vdiv.f32	s15, s13, s14
    lpf_alpha = current_params.lpf_enable ? Calculate_LPF_Alpha(current_params.lpf_cutoff_freq) : 1.0f;
 8000a72:	edc2 7a00 	vstr	s15, [r2]
    hpf_alpha = current_params.hpf_enable ? Calculate_HPF_Alpha(current_params.hpf_cutoff_freq) : 1.0f;
 8000a76:	b96b      	cbnz	r3, 8000a94 <Filter_Set_Params+0xa4>
 8000a78:	4b23      	ldr	r3, [pc, #140]	@ (8000b08 <Filter_Set_Params+0x118>)
    if (cutoff_freq <= 20.0f) return 1.0f;
 8000a7a:	eef7 7a00 	vmov.f32	s15, #112	@ 0x3f800000  1.0
    hpf_alpha = current_params.hpf_enable ? Calculate_HPF_Alpha(current_params.hpf_cutoff_freq) : 1.0f;
 8000a7e:	edc3 7a00 	vstr	s15, [r3]
}
 8000a82:	bd30      	pop	{r4, r5, pc}
    lpf_alpha = current_params.lpf_enable ? Calculate_LPF_Alpha(current_params.lpf_cutoff_freq) : 1.0f;
 8000a84:	eef7 7a00 	vmov.f32	s15, #112	@ 0x3f800000  1.0
 8000a88:	4a1d      	ldr	r2, [pc, #116]	@ (8000b00 <Filter_Set_Params+0x110>)
    hpf_alpha = current_params.hpf_enable ? Calculate_HPF_Alpha(current_params.hpf_cutoff_freq) : 1.0f;
 8000a8a:	7e23      	ldrb	r3, [r4, #24]
    lpf_alpha = current_params.lpf_enable ? Calculate_LPF_Alpha(current_params.lpf_cutoff_freq) : 1.0f;
 8000a8c:	edc2 7a00 	vstr	s15, [r2]
    hpf_alpha = current_params.hpf_enable ? Calculate_HPF_Alpha(current_params.hpf_cutoff_freq) : 1.0f;
 8000a90:	2b00      	cmp	r3, #0
 8000a92:	d0f1      	beq.n	8000a78 <Filter_Set_Params+0x88>
 8000a94:	edd4 7a07 	vldr	s15, [r4, #28]
    if (cutoff_freq >= (SAMPLE_RATE / 2.0f)) return 0.0f;
 8000a98:	ed9f 7a18 	vldr	s14, [pc, #96]	@ 8000afc <Filter_Set_Params+0x10c>
 8000a9c:	eef4 7ac7 	vcmpe.f32	s15, s14
 8000aa0:	eef1 fa10 	vmrs	APSR_nzcv, fpscr
 8000aa4:	da18      	bge.n	8000ad8 <Filter_Set_Params+0xe8>
    if (cutoff_freq <= 20.0f) return 1.0f;
 8000aa6:	eeb3 7a04 	vmov.f32	s14, #52	@ 0x41a00000  20.0
 8000aaa:	eef4 7ac7 	vcmpe.f32	s15, s14
 8000aae:	eef1 fa10 	vmrs	APSR_nzcv, fpscr
 8000ab2:	d9e1      	bls.n	8000a78 <Filter_Set_Params+0x88>
    float rc = 1.0f / (2.0f * PI * cutoff_freq);
 8000ab4:	ed9f 7a0e 	vldr	s14, [pc, #56]	@ 8000af0 <Filter_Set_Params+0x100>
    hpf_alpha = current_params.hpf_enable ? Calculate_HPF_Alpha(current_params.hpf_cutoff_freq) : 1.0f;
 8000ab8:	4b13      	ldr	r3, [pc, #76]	@ (8000b08 <Filter_Set_Params+0x118>)
    float rc = 1.0f / (2.0f * PI * cutoff_freq);
 8000aba:	ee67 7a87 	vmul.f32	s15, s15, s14
 8000abe:	eeb7 6a00 	vmov.f32	s12, #112	@ 0x3f800000  1.0
 8000ac2:	eec6 6a27 	vdiv.f32	s13, s12, s15
    return rc / (rc + dt);
 8000ac6:	ed9f 7a0f 	vldr	s14, [pc, #60]	@ 8000b04 <Filter_Set_Params+0x114>
 8000aca:	ee36 7a87 	vadd.f32	s14, s13, s14
 8000ace:	eec6 7a87 	vdiv.f32	s15, s13, s14
    hpf_alpha = current_params.hpf_enable ? Calculate_HPF_Alpha(current_params.hpf_cutoff_freq) : 1.0f;
 8000ad2:	edc3 7a00 	vstr	s15, [r3]
}
 8000ad6:	bd30      	pop	{r4, r5, pc}
    if (cutoff_freq >= (SAMPLE_RATE / 2.0f)) return 0.0f;
 8000ad8:	eddf 7a0c 	vldr	s15, [pc, #48]	@ 8000b0c <Filter_Set_Params+0x11c>
    hpf_alpha = current_params.hpf_enable ? Calculate_HPF_Alpha(current_params.hpf_cutoff_freq) : 1.0f;
 8000adc:	4b0a      	ldr	r3, [pc, #40]	@ (8000b08 <Filter_Set_Params+0x118>)
 8000ade:	edc3 7a00 	vstr	s15, [r3]
}
 8000ae2:	bd30      	pop	{r4, r5, pc}
    if (cutoff_freq <= 20.0f) return 0.0f;
 8000ae4:	eddf 7a09 	vldr	s15, [pc, #36]	@ 8000b0c <Filter_Set_Params+0x11c>
 8000ae8:	e7ce      	b.n	8000a88 <Filter_Set_Params+0x98>
 8000aea:	bf00      	nop
 8000aec:	20018560 	.word	0x20018560
 8000af0:	40c90fdb 	.word	0x40c90fdb
 8000af4:	473b8000 	.word	0x473b8000
 8000af8:	20018558 	.word	0x20018558
 8000afc:	46bb8000 	.word	0x46bb8000
 8000b00:	20000004 	.word	0x20000004
 8000b04:	37aec33e 	.word	0x37aec33e
 8000b08:	20018524 	.word	0x20018524
 8000b0c:	00000000 	.word	0x00000000

08000b10 <Filter_Init>:
void Filter_Init(filter_params_t *initial_params) {
 8000b10:	b510      	push	{r4, lr}
    if (initial_params != NULL) {
 8000b12:	4684      	mov	ip, r0
 8000b14:	2800      	cmp	r0, #0
 8000b16:	d042      	beq.n	8000b9e <Filter_Init+0x8e>
        current_params = *initial_params;
 8000b18:	e8bc 000f 	ldmia.w	ip!, {r0, r1, r2, r3}
 8000b1c:	4c29      	ldr	r4, [pc, #164]	@ (8000bc4 <Filter_Init+0xb4>)
 8000b1e:	c40f      	stmia	r4!, {r0, r1, r2, r3}
 8000b20:	e8bc 000f 	ldmia.w	ip!, {r0, r1, r2, r3}
 8000b24:	c40f      	stmia	r4!, {r0, r1, r2, r3}
 8000b26:	e8bc 000f 	ldmia.w	ip!, {r0, r1, r2, r3}
 8000b2a:	c40f      	stmia	r4!, {r0, r1, r2, r3}
 8000b2c:	e89c 0003 	ldmia.w	ip, {r0, r1}
 8000b30:	e884 0003 	stmia.w	r4, {r0, r1}
    carrier_phase = 0.0f;
 8000b34:	4824      	ldr	r0, [pc, #144]	@ (8000bc8 <Filter_Init+0xb8>)
    lpf_prev_out_L = 0.0f;  lpf_prev_out_R = 0.0f;
 8000b36:	4925      	ldr	r1, [pc, #148]	@ (8000bcc <Filter_Init+0xbc>)
 8000b38:	4c25      	ldr	r4, [pc, #148]	@ (8000bd0 <Filter_Init+0xc0>)
    lpf_prev_out2_L = 0.0f; lpf_prev_out2_R = 0.0f;
 8000b3a:	4a26      	ldr	r2, [pc, #152]	@ (8000bd4 <Filter_Init+0xc4>)
    carrier_phase = 0.0f;
 8000b3c:	2300      	movs	r3, #0
 8000b3e:	6003      	str	r3, [r0, #0]
    lpf_prev_out_L = 0.0f;  lpf_prev_out_R = 0.0f;
 8000b40:	600b      	str	r3, [r1, #0]
    lpf_prev_out2_L = 0.0f; lpf_prev_out2_R = 0.0f;
 8000b42:	4825      	ldr	r0, [pc, #148]	@ (8000bd8 <Filter_Init+0xc8>)
    hpf_prev_in_L = 0.0f;   hpf_prev_in_R = 0.0f;
 8000b44:	4925      	ldr	r1, [pc, #148]	@ (8000bdc <Filter_Init+0xcc>)
    lpf_prev_out_L = 0.0f;  lpf_prev_out_R = 0.0f;
 8000b46:	6023      	str	r3, [r4, #0]
    hpf_prev_in_L = 0.0f;   hpf_prev_in_R = 0.0f;
 8000b48:	4c25      	ldr	r4, [pc, #148]	@ (8000be0 <Filter_Init+0xd0>)
    lpf_prev_out2_L = 0.0f; lpf_prev_out2_R = 0.0f;
 8000b4a:	6013      	str	r3, [r2, #0]
 8000b4c:	6003      	str	r3, [r0, #0]
    hpf_prev_in_L = 0.0f;   hpf_prev_in_R = 0.0f;
 8000b4e:	600b      	str	r3, [r1, #0]
    hpf_prev_out_L = 0.0f;  hpf_prev_out_R = 0.0f;
 8000b50:	4a24      	ldr	r2, [pc, #144]	@ (8000be4 <Filter_Init+0xd4>)
 8000b52:	4825      	ldr	r0, [pc, #148]	@ (8000be8 <Filter_Init+0xd8>)
    hpf_prev_in2_L = 0.0f;  hpf_prev_in2_R = 0.0f;
 8000b54:	4925      	ldr	r1, [pc, #148]	@ (8000bec <Filter_Init+0xdc>)
    hpf_prev_in_L = 0.0f;   hpf_prev_in_R = 0.0f;
 8000b56:	6023      	str	r3, [r4, #0]
    hpf_prev_in2_L = 0.0f;  hpf_prev_in2_R = 0.0f;
 8000b58:	4c25      	ldr	r4, [pc, #148]	@ (8000bf0 <Filter_Init+0xe0>)
    hpf_prev_out_L = 0.0f;  hpf_prev_out_R = 0.0f;
 8000b5a:	6013      	str	r3, [r2, #0]
 8000b5c:	6003      	str	r3, [r0, #0]
    hpf_prev_in2_L = 0.0f;  hpf_prev_in2_R = 0.0f;
 8000b5e:	600b      	str	r3, [r1, #0]
    hpf_prev_out2_L = 0.0f; hpf_prev_out2_R = 0.0f;
 8000b60:	4a24      	ldr	r2, [pc, #144]	@ (8000bf4 <Filter_Init+0xe4>)
 8000b62:	4825      	ldr	r0, [pc, #148]	@ (8000bf8 <Filter_Init+0xe8>)
    env_level_L = 0.0f; env_level_R = 0.0f;
 8000b64:	4925      	ldr	r1, [pc, #148]	@ (8000bfc <Filter_Init+0xec>)
    hpf_prev_in2_L = 0.0f;  hpf_prev_in2_R = 0.0f;
 8000b66:	6023      	str	r3, [r4, #0]
    env_level_L = 0.0f; env_level_R = 0.0f;
 8000b68:	4c25      	ldr	r4, [pc, #148]	@ (8000c00 <Filter_Init+0xf0>)
    hpf_prev_out2_L = 0.0f; hpf_prev_out2_R = 0.0f;
 8000b6a:	6013      	str	r3, [r2, #0]
 8000b6c:	6003      	str	r3, [r0, #0]
    env_level_L = 0.0f; env_level_R = 0.0f;
 8000b6e:	600b      	str	r3, [r1, #0]
    svf_low_L = 0.0f;   svf_band_L = 0.0f;
 8000b70:	4a24      	ldr	r2, [pc, #144]	@ (8000c04 <Filter_Init+0xf4>)
 8000b72:	4825      	ldr	r0, [pc, #148]	@ (8000c08 <Filter_Init+0xf8>)
    svf_low_R = 0.0f;   svf_band_R = 0.0f;
 8000b74:	4925      	ldr	r1, [pc, #148]	@ (8000c0c <Filter_Init+0xfc>)
    env_level_L = 0.0f; env_level_R = 0.0f;
 8000b76:	6023      	str	r3, [r4, #0]
    svf_low_R = 0.0f;   svf_band_R = 0.0f;
 8000b78:	4c25      	ldr	r4, [pc, #148]	@ (8000c10 <Filter_Init+0x100>)
    svf_low_L = 0.0f;   svf_band_L = 0.0f;
 8000b7a:	6013      	str	r3, [r2, #0]
 8000b7c:	6003      	str	r3, [r0, #0]
    svf_low_R = 0.0f;   svf_band_R = 0.0f;
 8000b7e:	600b      	str	r3, [r1, #0]
    for (int i = 0; i < DELAY_BUFFER_SIZE; i++) delay_line[i] = 0;
 8000b80:	f44f 4200 	mov.w	r2, #32768	@ 0x8000
 8000b84:	4823      	ldr	r0, [pc, #140]	@ (8000c14 <Filter_Init+0x104>)
    svf_low_R = 0.0f;   svf_band_R = 0.0f;
 8000b86:	6023      	str	r3, [r4, #0]
    for (int i = 0; i < DELAY_BUFFER_SIZE; i++) delay_line[i] = 0;
 8000b88:	2100      	movs	r1, #0
 8000b8a:	f005 fdf7 	bl	800677c <memset>
    delay_head = 0;
 8000b8e:	4b22      	ldr	r3, [pc, #136]	@ (8000c18 <Filter_Init+0x108>)
    Filter_Set_Params(&current_params);
 8000b90:	480c      	ldr	r0, [pc, #48]	@ (8000bc4 <Filter_Init+0xb4>)
    delay_head = 0;
 8000b92:	2200      	movs	r2, #0
}
 8000b94:	e8bd 4010 	ldmia.w	sp!, {r4, lr}
    delay_head = 0;
 8000b98:	601a      	str	r2, [r3, #0]
    Filter_Set_Params(&current_params);
 8000b9a:	f7ff bf29 	b.w	80009f0 <Filter_Set_Params>
        current_params.master_volume      = 1.0f;
 8000b9e:	4b09      	ldr	r3, [pc, #36]	@ (8000bc4 <Filter_Init+0xb4>)
        current_params.lpf_cutoff_freq    = 20000.0f;
 8000ba0:	491e      	ldr	r1, [pc, #120]	@ (8000c1c <Filter_Init+0x10c>)
        current_params.hpf_cutoff_freq    = 20.0f;
 8000ba2:	4a1f      	ldr	r2, [pc, #124]	@ (8000c20 <Filter_Init+0x110>)
        current_params.ring_mod_enable    = 0;
 8000ba4:	f883 c004 	strb.w	ip, [r3, #4]
        current_params.master_volume      = 1.0f;
 8000ba8:	f04f 507e 	mov.w	r0, #1065353216	@ 0x3f800000
 8000bac:	6018      	str	r0, [r3, #0]
        current_params.lpf_enable         = 0;
 8000bae:	f883 c010 	strb.w	ip, [r3, #16]
        current_params.hpf_enable         = 0;
 8000bb2:	f883 c018 	strb.w	ip, [r3, #24]
        current_params.wah_enable         = 0;
 8000bb6:	f883 c020 	strb.w	ip, [r3, #32]
        current_params.delay_enable       = 0;
 8000bba:	f883 c02c 	strb.w	ip, [r3, #44]	@ 0x2c
        current_params.lpf_cutoff_freq    = 20000.0f;
 8000bbe:	6159      	str	r1, [r3, #20]
        current_params.hpf_cutoff_freq    = 20.0f;
 8000bc0:	61da      	str	r2, [r3, #28]
 8000bc2:	e7b7      	b.n	8000b34 <Filter_Init+0x24>
 8000bc4:	20018560 	.word	0x20018560
 8000bc8:	2001855c 	.word	0x2001855c
 8000bcc:	20018554 	.word	0x20018554
 8000bd0:	20018550 	.word	0x20018550
 8000bd4:	2001854c 	.word	0x2001854c
 8000bd8:	20018548 	.word	0x20018548
 8000bdc:	20018544 	.word	0x20018544
 8000be0:	20018540 	.word	0x20018540
 8000be4:	2001853c 	.word	0x2001853c
 8000be8:	20018538 	.word	0x20018538
 8000bec:	20018534 	.word	0x20018534
 8000bf0:	20018530 	.word	0x20018530
 8000bf4:	2001852c 	.word	0x2001852c
 8000bf8:	20018528 	.word	0x20018528
 8000bfc:	20018520 	.word	0x20018520
 8000c00:	2001851c 	.word	0x2001851c
 8000c04:	20018518 	.word	0x20018518
 8000c08:	20018514 	.word	0x20018514
 8000c0c:	20018510 	.word	0x20018510
 8000c10:	2001850c 	.word	0x2001850c
 8000c14:	2001050c 	.word	0x2001050c
 8000c18:	20010508 	.word	0x20010508
 8000c1c:	469c4000 	.word	0x469c4000
 8000c20:	41a00000 	.word	0x41a00000

08000c24 <Filter_Apply>:
   ANA İŞLEME FONKSİYONU
   ══════════════════════════════════════════════ */
void Filter_Apply(int16_t *buffer, uint32_t num_samples) {
    float sample_L, sample_R;

    for (uint32_t i = 0; i < num_samples; i += 2) {
 8000c24:	2900      	cmp	r1, #0
 8000c26:	f000 84ec 	beq.w	8001602 <Filter_Apply+0x9de>
void Filter_Apply(int16_t *buffer, uint32_t num_samples) {
 8000c2a:	e92d 4ff0 	stmdb	sp!, {r4, r5, r6, r7, r8, r9, sl, fp, lr}
    carrier_phase += carrier_increment;
 8000c2e:	4bea      	ldr	r3, [pc, #936]	@ (8000fd8 <Filter_Apply+0x3b4>)
    float mix = current_params.ring_mod_intensity;
 8000c30:	4aea      	ldr	r2, [pc, #936]	@ (8000fdc <Filter_Apply+0x3b8>)
    carrier_phase += carrier_increment;
 8000c32:	edd3 4a00 	vldr	s9, [r3]
 8000c36:	4bea      	ldr	r3, [pc, #936]	@ (8000fe0 <Filter_Apply+0x3bc>)
 8000c38:	4cea      	ldr	r4, [pc, #936]	@ (8000fe4 <Filter_Apply+0x3c0>)
    float mix = current_params.ring_mod_intensity;
 8000c3a:	ed92 5a03 	vldr	s10, [r2, #12]
void Filter_Apply(int16_t *buffer, uint32_t num_samples) {
 8000c3e:	ed2d 8b10 	vpush	{d8-d15}
 8000c42:	edd3 aa00 	vldr	s21, [r3]
    *sample_L = lpf_prev_out_L + lpf_alpha * ((*sample_L) - lpf_prev_out_L) + ANTI_DENORMAL;
 8000c46:	4be8      	ldr	r3, [pc, #928]	@ (8000fe8 <Filter_Apply+0x3c4>)
 8000c48:	edd4 da00 	vldr	s27, [r4]
 8000c4c:	edd3 ea00 	vldr	s29, [r3]
 8000c50:	4be6      	ldr	r3, [pc, #920]	@ (8000fec <Filter_Apply+0x3c8>)
    if (!current_params.lpf_enable) return;
 8000c52:	f892 8010 	ldrb.w	r8, [r2, #16]
 8000c56:	ed93 ba00 	vldr	s22, [r3]
 8000c5a:	4be5      	ldr	r3, [pc, #916]	@ (8000ff0 <Filter_Apply+0x3cc>)
    if (!current_params.hpf_enable) return;
 8000c5c:	7e17      	ldrb	r7, [r2, #24]
 8000c5e:	edd3 7a00 	vldr	s15, [r3]
 8000c62:	4be4      	ldr	r3, [pc, #912]	@ (8000ff4 <Filter_Apply+0x3d0>)
    if (!current_params.wah_enable) return;
 8000c64:	f892 6020 	ldrb.w	r6, [r2, #32]
 8000c68:	edd3 ba00 	vldr	s23, [r3]
 8000c6c:	4be2      	ldr	r3, [pc, #904]	@ (8000ff8 <Filter_Apply+0x3d4>)
 8000c6e:	ed93 8a00 	vldr	s16, [r3]
 8000c72:	4be2      	ldr	r3, [pc, #904]	@ (8000ffc <Filter_Apply+0x3d8>)
void Filter_Apply(int16_t *buffer, uint32_t num_samples) {
 8000c74:	b097      	sub	sp, #92	@ 0x5c
 8000c76:	edcd 7a08 	vstr	s15, [sp, #32]
 8000c7a:	edd3 7a00 	vldr	s15, [r3]
    float out_L = hpf_alpha * (hpf_prev_out_L + in_L - hpf_prev_in_L) + ANTI_DENORMAL;
 8000c7e:	4be0      	ldr	r3, [pc, #896]	@ (8001000 <Filter_Apply+0x3dc>)
 8000c80:	edcd 7a07 	vstr	s15, [sp, #28]
 8000c84:	ed93 ea00 	vldr	s28, [r3]
 8000c88:	4bde      	ldr	r3, [pc, #888]	@ (8001004 <Filter_Apply+0x3e0>)
 8000c8a:	edd3 8a00 	vldr	s17, [r3]
 8000c8e:	4bde      	ldr	r3, [pc, #888]	@ (8001008 <Filter_Apply+0x3e4>)
 8000c90:	edd3 7a00 	vldr	s15, [r3]
 8000c94:	4bdd      	ldr	r3, [pc, #884]	@ (800100c <Filter_Apply+0x3e8>)
 8000c96:	edcd 7a06 	vstr	s15, [sp, #24]
 8000c9a:	edd3 7a00 	vldr	s15, [r3]
 8000c9e:	4bdc      	ldr	r3, [pc, #880]	@ (8001010 <Filter_Apply+0x3ec>)
 8000ca0:	edcd 7a05 	vstr	s15, [sp, #20]
 8000ca4:	edd3 7a00 	vldr	s15, [r3]
 8000ca8:	4bda      	ldr	r3, [pc, #872]	@ (8001014 <Filter_Apply+0x3f0>)
 8000caa:	edcd 7a04 	vstr	s15, [sp, #16]
 8000cae:	edd3 9a00 	vldr	s19, [r3]
 8000cb2:	4bd9      	ldr	r3, [pc, #868]	@ (8001018 <Filter_Apply+0x3f4>)
 8000cb4:	edd3 7a00 	vldr	s15, [r3]
 8000cb8:	4bd8      	ldr	r3, [pc, #864]	@ (800101c <Filter_Apply+0x3f8>)
 8000cba:	edcd 7a03 	vstr	s15, [sp, #12]
 8000cbe:	edd3 fa00 	vldr	s31, [r3]
 8000cc2:	4bd7      	ldr	r3, [pc, #860]	@ (8001020 <Filter_Apply+0x3fc>)
 8000cc4:	ed93 ca00 	vldr	s24, [r3]
 8000cc8:	4bd6      	ldr	r3, [pc, #856]	@ (8001024 <Filter_Apply+0x400>)
    float mod_L = fminf(fmaxf((env_level_L / 16000.0f) * current_params.wah_sensitivity, 0.0f), 1.0f);
 8000cca:	edd2 7a09 	vldr	s15, [r2, #36]	@ 0x24
 8000cce:	edd3 ca00 	vldr	s25, [r3]
 8000cd2:	4bd5      	ldr	r3, [pc, #852]	@ (8001028 <Filter_Apply+0x404>)
 8000cd4:	edcd 7a09 	vstr	s15, [sp, #36]	@ 0x24
 8000cd8:	edd3 7a00 	vldr	s15, [r3]
 8000cdc:	4bd3      	ldr	r3, [pc, #844]	@ (800102c <Filter_Apply+0x408>)
 8000cde:	edcd 7a02 	vstr	s15, [sp, #8]
 8000ce2:	ed93 da00 	vldr	s26, [r3]
 8000ce6:	4bd2      	ldr	r3, [pc, #840]	@ (8001030 <Filter_Apply+0x40c>)
    if (!current_params.delay_enable) return;
 8000ce8:	f892 502c 	ldrb.w	r5, [r2, #44]	@ 0x2c
 8000cec:	edd3 7a00 	vldr	s15, [r3]
 8000cf0:	4bd0      	ldr	r3, [pc, #832]	@ (8001034 <Filter_Apply+0x410>)
 8000cf2:	edcd 7a01 	vstr	s15, [sp, #4]
    *sample_L = (clean_L * (1.0f - current_params.wah_mix)) + (svf_band_L * WAH_MAKEUP_GAIN * current_params.wah_mix);
 8000cf6:	edd2 7a0a 	vldr	s15, [r2, #40]	@ 0x28
 8000cfa:	681c      	ldr	r4, [r3, #0]
 8000cfc:	edcd 7a12 	vstr	s15, [sp, #72]	@ 0x48
    float write_val = input_mono + (delayed_sample * current_params.delay_feedback);
 8000d00:	edd2 7a0c 	vldr	s15, [r2, #48]	@ 0x30
 8000d04:	4bcc      	ldr	r3, [pc, #816]	@ (8001038 <Filter_Apply+0x414>)
 8000d06:	edcd 7a10 	vstr	s15, [sp, #64]	@ 0x40
    *sample_L += delayed_sample * current_params.delay_mix;
 8000d0a:	edd2 7a0d 	vldr	s15, [r2, #52]	@ 0x34
 8000d0e:	ed93 aa00 	vldr	s20, [r3]
 8000d12:	edcd 7a11 	vstr	s15, [sp, #68]	@ 0x44
 8000d16:	7913      	ldrb	r3, [r2, #4]
    *sample_L *= current_params.master_volume;
 8000d18:	edd2 7a00 	vldr	s15, [r2]
 8000d1c:	edcd 7a00 	vstr	s15, [sp]
 8000d20:	2b00      	cmp	r3, #0
 8000d22:	f000 82c9 	beq.w	80012b8 <Filter_Apply+0x694>
 8000d26:	f04f 0b00 	mov.w	fp, #0
    *sample_L = (*sample_L) * (1.0f - mix) + (*sample_L) * carrier * mix;
 8000d2a:	eef7 7a00 	vmov.f32	s15, #112	@ 0x3f800000  1.0
 8000d2e:	ee77 7ac5 	vsub.f32	s15, s15, s10
 8000d32:	3901      	subs	r1, #1
    *sample_L *= current_params.master_volume;
 8000d34:	e9cd bb0e 	strd	fp, fp, [sp, #56]	@ 0x38
 8000d38:	0849      	lsrs	r1, r1, #1
 8000d3a:	f100 0904 	add.w	r9, r0, #4
    *sample_L = lpf_prev_out_L + lpf_alpha * ((*sample_L) - lpf_prev_out_L) + ANTI_DENORMAL;
 8000d3e:	ed9f fabf 	vldr	s30, [pc, #764]	@ 800103c <Filter_Apply+0x418>
    *sample_L = (*sample_L) * (1.0f - mix) + (*sample_L) * carrier * mix;
 8000d42:	edcd 7a13 	vstr	s15, [sp, #76]	@ 0x4c
 8000d46:	4682      	mov	sl, r0
 8000d48:	eb09 0981 	add.w	r9, r9, r1, lsl #2
    *sample_L *= current_params.master_volume;
 8000d4c:	f8cd b030 	str.w	fp, [sp, #48]	@ 0x30
 8000d50:	edcd 4a14 	vstr	s9, [sp, #80]	@ 0x50
 8000d54:	ed8d 5a15 	vstr	s10, [sp, #84]	@ 0x54
 8000d58:	edcd 9a0b 	vstr	s19, [sp, #44]	@ 0x2c
        sample_L = (float)buffer[i];
 8000d5c:	f9ba 3000 	ldrsh.w	r3, [sl]
 8000d60:	ee06 3a10 	vmov	s12, r3
        sample_R = (float)buffer[i + 1];
 8000d64:	f9ba 3002 	ldrsh.w	r3, [sl, #2]
 8000d68:	ee06 3a90 	vmov	s13, r3
 8000d6c:	eef8 6ae6 	vcvt.f32.s32	s13, s13
    float carrier = sinf(carrier_phase);
 8000d70:	eeb0 0a6d 	vmov.f32	s0, s27
        sample_R = (float)buffer[i + 1];
 8000d74:	edcd 6a0a 	vstr	s13, [sp, #40]	@ 0x28
        sample_L = (float)buffer[i];
 8000d78:	eeb8 9ac6 	vcvt.f32.s32	s18, s12
    float carrier = sinf(carrier_phase);
 8000d7c:	f005 fd88 	bl	8006890 <sinf>
    carrier_phase += carrier_increment;
 8000d80:	eddd 7a14 	vldr	s15, [sp, #80]	@ 0x50
    if (carrier_phase >= 2.0f * PI) carrier_phase -= 2.0f * PI;
 8000d84:	eddd 6a0a 	vldr	s13, [sp, #40]	@ 0x28
    carrier_phase += carrier_increment;
 8000d88:	ee7d daa7 	vadd.f32	s27, s27, s15
    if (carrier_phase >= 2.0f * PI) carrier_phase -= 2.0f * PI;
 8000d8c:	eddf 7aac 	vldr	s15, [pc, #688]	@ 8001040 <Filter_Apply+0x41c>
 8000d90:	eef4 dae7 	vcmpe.f32	s27, s15
 8000d94:	eef1 fa10 	vmrs	APSR_nzcv, fpscr
 8000d98:	db03      	blt.n	8000da2 <Filter_Apply+0x17e>
 8000d9a:	eddf 7aa9 	vldr	s15, [pc, #676]	@ 8001040 <Filter_Apply+0x41c>
 8000d9e:	ee7d dae7 	vsub.f32	s27, s27, s15
    *sample_L = (*sample_L) * (1.0f - mix) + (*sample_L) * carrier * mix;
 8000da2:	ee20 7a09 	vmul.f32	s14, s0, s18
 8000da6:	ed9d 6a15 	vldr	s12, [sp, #84]	@ 0x54
 8000daa:	eddd 5a13 	vldr	s11, [sp, #76]	@ 0x4c
    *sample_R = (*sample_R) * (1.0f - mix) + (*sample_R) * carrier * mix;
 8000dae:	ee60 7a26 	vmul.f32	s15, s0, s13
    *sample_L = (*sample_L) * (1.0f - mix) + (*sample_L) * carrier * mix;
 8000db2:	ee27 7a06 	vmul.f32	s14, s14, s12
    *sample_R = (*sample_R) * (1.0f - mix) + (*sample_R) * carrier * mix;
 8000db6:	ee67 7a86 	vmul.f32	s15, s15, s12
    *sample_L = (*sample_L) * (1.0f - mix) + (*sample_L) * carrier * mix;
 8000dba:	eea5 7a89 	vfma.f32	s14, s11, s18
    *sample_R = (*sample_R) * (1.0f - mix) + (*sample_R) * carrier * mix;
 8000dbe:	eee5 7aa6 	vfma.f32	s15, s11, s13
    *sample_L = (*sample_L) * (1.0f - mix) + (*sample_L) * carrier * mix;
 8000dc2:	eef0 9a47 	vmov.f32	s19, s14
    *sample_R = (*sample_R) * (1.0f - mix) + (*sample_R) * carrier * mix;
 8000dc6:	eeb0 9a67 	vmov.f32	s18, s15
    if (!current_params.lpf_enable) return;
 8000dca:	f1b8 0f00 	cmp.w	r8, #0
 8000dce:	d01f      	beq.n	8000e10 <Filter_Apply+0x1ec>
    *sample_L = lpf_prev_out_L + lpf_alpha * ((*sample_L) - lpf_prev_out_L) + ANTI_DENORMAL;
 8000dd0:	ee37 7a6a 	vsub.f32	s14, s14, s21
    *sample_R = lpf_prev_out_R + lpf_alpha * ((*sample_R) - lpf_prev_out_R) + ANTI_DENORMAL;
 8000dd4:	ee77 7acb 	vsub.f32	s15, s15, s22
    *sample_L = lpf_prev_out_L + lpf_alpha * ((*sample_L) - lpf_prev_out_L) + ANTI_DENORMAL;
 8000dd8:	eeee aa87 	vfma.f32	s21, s29, s14
    *sample_R = lpf_prev_out2_R + lpf_alpha * ((*sample_R) - lpf_prev_out2_R) - ANTI_DENORMAL;
 8000ddc:	2301      	movs	r3, #1
 8000dde:	930f      	str	r3, [sp, #60]	@ 0x3c
    *sample_R = lpf_prev_out_R + lpf_alpha * ((*sample_R) - lpf_prev_out_R) + ANTI_DENORMAL;
 8000de0:	eeae baa7 	vfma.f32	s22, s29, s15
    *sample_L = lpf_prev_out2_L + lpf_alpha * ((*sample_L) - lpf_prev_out2_L) - ANTI_DENORMAL;
 8000de4:	ed9d 7a08 	vldr	s14, [sp, #32]
    *sample_L = lpf_prev_out_L + lpf_alpha * ((*sample_L) - lpf_prev_out_L) + ANTI_DENORMAL;
 8000de8:	ee7a aa8f 	vadd.f32	s21, s21, s30
    *sample_R = lpf_prev_out_R + lpf_alpha * ((*sample_R) - lpf_prev_out_R) + ANTI_DENORMAL;
 8000dec:	ee3b ba0f 	vadd.f32	s22, s22, s30
    *sample_L = lpf_prev_out2_L + lpf_alpha * ((*sample_L) - lpf_prev_out2_L) - ANTI_DENORMAL;
 8000df0:	ee7a 7ac7 	vsub.f32	s15, s21, s14
 8000df4:	eeae 7aa7 	vfma.f32	s14, s29, s15
    *sample_R = lpf_prev_out2_R + lpf_alpha * ((*sample_R) - lpf_prev_out2_R) - ANTI_DENORMAL;
 8000df8:	ee7b 7a6b 	vsub.f32	s15, s22, s23
    *sample_L = lpf_prev_out2_L + lpf_alpha * ((*sample_L) - lpf_prev_out2_L) - ANTI_DENORMAL;
 8000dfc:	ee77 9a4f 	vsub.f32	s19, s14, s30
    *sample_R = lpf_prev_out2_R + lpf_alpha * ((*sample_R) - lpf_prev_out2_R) - ANTI_DENORMAL;
 8000e00:	eeee baa7 	vfma.f32	s23, s29, s15
    lpf_prev_out2_L = *sample_L;
 8000e04:	edcd 9a08 	vstr	s19, [sp, #32]
    *sample_R = lpf_prev_out2_R + lpf_alpha * ((*sample_R) - lpf_prev_out2_R) - ANTI_DENORMAL;
 8000e08:	ee7b bacf 	vsub.f32	s23, s23, s30
    lpf_prev_out2_R = *sample_R;
 8000e0c:	eeb0 9a6b 	vmov.f32	s18, s23
    if (!current_params.hpf_enable) return;
 8000e10:	b3ef      	cbz	r7, 8000e8e <Filter_Apply+0x26a>
    float out_L = hpf_alpha * (hpf_prev_out_L + in_L - hpf_prev_in_L) + ANTI_DENORMAL;
 8000e12:	eddd 7a07 	vldr	s15, [sp, #28]
    hpf_prev_in_L  = in_L;
 8000e16:	edcd 9a07 	vstr	s19, [sp, #28]
    float out_L = hpf_alpha * (hpf_prev_out_L + in_L - hpf_prev_in_L) + ANTI_DENORMAL;
 8000e1a:	ee39 8a88 	vadd.f32	s16, s19, s16
 8000e1e:	eeb0 6a4f 	vmov.f32	s12, s30
 8000e22:	ee38 8a67 	vsub.f32	s16, s16, s15
    float out_R = hpf_alpha * (hpf_prev_out_R + in_R - hpf_prev_in_R) + ANTI_DENORMAL;
 8000e26:	ee79 8a28 	vadd.f32	s17, s18, s17
 8000e2a:	eddd 7a06 	vldr	s15, [sp, #24]
    float out2_L = hpf_alpha * (hpf_prev_out2_L + out_L - hpf_prev_in2_L) - ANTI_DENORMAL;
 8000e2e:	eddf 9a85 	vldr	s19, [pc, #532]	@ 8001044 <Filter_Apply+0x420>
    hpf_prev_in_R  = in_R;
 8000e32:	ed8d 9a06 	vstr	s18, [sp, #24]
    float out_L = hpf_alpha * (hpf_prev_out_L + in_L - hpf_prev_in_L) + ANTI_DENORMAL;
 8000e36:	eeae 6a08 	vfma.f32	s12, s28, s16
    float out2_R = hpf_alpha * (hpf_prev_out2_R + out_R - hpf_prev_in2_R) - ANTI_DENORMAL;
 8000e3a:	2301      	movs	r3, #1
 8000e3c:	930e      	str	r3, [sp, #56]	@ 0x38
    float out_R = hpf_alpha * (hpf_prev_out_R + in_R - hpf_prev_in_R) + ANTI_DENORMAL;
 8000e3e:	ee78 8ae7 	vsub.f32	s17, s17, s15
 8000e42:	eef0 6a4f 	vmov.f32	s13, s30
    float out2_L = hpf_alpha * (hpf_prev_out2_L + out_L - hpf_prev_in2_L) - ANTI_DENORMAL;
 8000e46:	eddd 7a05 	vldr	s15, [sp, #20]
    float out2_R = hpf_alpha * (hpf_prev_out2_R + out_R - hpf_prev_in2_R) - ANTI_DENORMAL;
 8000e4a:	ed9f 9a7e 	vldr	s18, [pc, #504]	@ 8001044 <Filter_Apply+0x420>
    float out_R = hpf_alpha * (hpf_prev_out_R + in_R - hpf_prev_in_R) + ANTI_DENORMAL;
 8000e4e:	eeee 6a28 	vfma.f32	s13, s28, s17
    out_L -= ANTI_DENORMAL;
 8000e52:	ee36 8a4f 	vsub.f32	s16, s12, s30
    out_R -= ANTI_DENORMAL;
 8000e56:	ee76 8acf 	vsub.f32	s17, s13, s30
    float out2_L = hpf_alpha * (hpf_prev_out2_L + out_L - hpf_prev_in2_L) - ANTI_DENORMAL;
 8000e5a:	ee38 7a27 	vadd.f32	s14, s16, s15
 8000e5e:	eddd 7a04 	vldr	s15, [sp, #16]
    float out2_R = hpf_alpha * (hpf_prev_out2_R + out_R - hpf_prev_in2_R) - ANTI_DENORMAL;
 8000e62:	eddd 6a03 	vldr	s13, [sp, #12]
    hpf_prev_in2_L  = out_L;
 8000e66:	ed8d 8a04 	vstr	s16, [sp, #16]
    float out2_L = hpf_alpha * (hpf_prev_out2_L + out_L - hpf_prev_in2_L) - ANTI_DENORMAL;
 8000e6a:	ee37 7a67 	vsub.f32	s14, s14, s15
    float out2_R = hpf_alpha * (hpf_prev_out2_R + out_R - hpf_prev_in2_R) - ANTI_DENORMAL;
 8000e6e:	eddd 7a0b 	vldr	s15, [sp, #44]	@ 0x2c
    hpf_prev_in2_R  = out_R;
 8000e72:	edcd 8a03 	vstr	s17, [sp, #12]
    float out2_R = hpf_alpha * (hpf_prev_out2_R + out_R - hpf_prev_in2_R) - ANTI_DENORMAL;
 8000e76:	ee78 7aa7 	vadd.f32	s15, s17, s15
    float out2_L = hpf_alpha * (hpf_prev_out2_L + out_L - hpf_prev_in2_L) - ANTI_DENORMAL;
 8000e7a:	eeee 9a07 	vfma.f32	s19, s28, s14
    float out2_R = hpf_alpha * (hpf_prev_out2_R + out_R - hpf_prev_in2_R) - ANTI_DENORMAL;
 8000e7e:	ee77 7ae6 	vsub.f32	s15, s15, s13
    float out2_L = hpf_alpha * (hpf_prev_out2_L + out_L - hpf_prev_in2_L) - ANTI_DENORMAL;
 8000e82:	edcd 9a05 	vstr	s19, [sp, #20]
    float out2_R = hpf_alpha * (hpf_prev_out2_R + out_R - hpf_prev_in2_R) - ANTI_DENORMAL;
 8000e86:	eeae 9a27 	vfma.f32	s18, s28, s15
 8000e8a:	ed8d 9a0b 	vstr	s18, [sp, #44]	@ 0x2c
    if (!current_params.wah_enable) return;
 8000e8e:	2e00      	cmp	r6, #0
 8000e90:	f000 80fe 	beq.w	8001090 <Filter_Apply+0x46c>
    float input_abs_L = fabsf(*sample_L);
 8000e94:	eef0 6ae9 	vabs.f32	s13, s19
    env_level_L += (input_abs_L > env_level_L ? WAH_ATTACK : WAH_RELEASE) * (input_abs_L - env_level_L) + ANTI_DENORMAL;
 8000e98:	ed9f 7a6b 	vldr	s14, [pc, #428]	@ 8001048 <Filter_Apply+0x424>
 8000e9c:	eddf 7a6b 	vldr	s15, [pc, #428]	@ 800104c <Filter_Apply+0x428>
    float mod_L = fminf(fmaxf((env_level_L / 16000.0f) * current_params.wah_sensitivity, 0.0f), 1.0f);
 8000ea0:	eddf 0a6b 	vldr	s1, [pc, #428]	@ 8001050 <Filter_Apply+0x42c>
    env_level_L += (input_abs_L > env_level_L ? WAH_ATTACK : WAH_RELEASE) * (input_abs_L - env_level_L) + ANTI_DENORMAL;
 8000ea4:	eef4 6aef 	vcmpe.f32	s13, s31
 8000ea8:	eef1 fa10 	vmrs	APSR_nzcv, fpscr
 8000eac:	ee76 6aef 	vsub.f32	s13, s13, s31
 8000eb0:	bfd4      	ite	le
 8000eb2:	eef0 5a47 	vmovle.f32	s11, s14
 8000eb6:	eef0 5a67 	vmovgt.f32	s11, s15
 8000eba:	eeb0 6a4f 	vmov.f32	s12, s30
 8000ebe:	eea6 6aa5 	vfma.f32	s12, s13, s11
    float input_abs_R = fabsf(*sample_R);
 8000ec2:	eef0 6ac9 	vabs.f32	s13, s18
    env_level_L += (input_abs_L > env_level_L ? WAH_ATTACK : WAH_RELEASE) * (input_abs_L - env_level_L) + ANTI_DENORMAL;
 8000ec6:	ee7f fa86 	vadd.f32	s31, s31, s12
    float mod_L = fminf(fmaxf((env_level_L / 16000.0f) * current_params.wah_sensitivity, 0.0f), 1.0f);
 8000eca:	ed9f 6a62 	vldr	s12, [pc, #392]	@ 8001054 <Filter_Apply+0x430>
 8000ece:	eddd 5a09 	vldr	s11, [sp, #36]	@ 0x24
 8000ed2:	ee8f 0a86 	vdiv.f32	s0, s31, s12
    env_level_R += (input_abs_R > env_level_R ? WAH_ATTACK : WAH_RELEASE) * (input_abs_R - env_level_R) + ANTI_DENORMAL;
 8000ed6:	eef4 6acc 	vcmpe.f32	s13, s24
 8000eda:	eef1 fa10 	vmrs	APSR_nzcv, fpscr
 8000ede:	ee76 6acc 	vsub.f32	s13, s13, s24
    float mod_L = fminf(fmaxf((env_level_L / 16000.0f) * current_params.wah_sensitivity, 0.0f), 1.0f);
 8000ee2:	ee20 0a25 	vmul.f32	s0, s0, s11
    env_level_R += (input_abs_R > env_level_R ? WAH_ATTACK : WAH_RELEASE) * (input_abs_R - env_level_R) + ANTI_DENORMAL;
 8000ee6:	bfd4      	ite	le
 8000ee8:	eef0 5a47 	vmovle.f32	s11, s14
 8000eec:	eef0 5a67 	vmovgt.f32	s11, s15
 8000ef0:	eef0 7a4f 	vmov.f32	s15, s30
 8000ef4:	eee6 7aa5 	vfma.f32	s15, s13, s11
 8000ef8:	ee3c ca27 	vadd.f32	s24, s24, s15
    float mod_L = fminf(fmaxf((env_level_L / 16000.0f) * current_params.wah_sensitivity, 0.0f), 1.0f);
 8000efc:	f005 fd18 	bl	8006930 <fmaxf>
 8000f00:	eef7 0a00 	vmov.f32	s1, #112	@ 0x3f800000  1.0
 8000f04:	f005 fd31 	bl	800696a <fminf>
    float mod_R = fminf(fmaxf((env_level_R / 16000.0f) * current_params.wah_sensitivity, 0.0f), 1.0f);
 8000f08:	ed9f 6a52 	vldr	s12, [pc, #328]	@ 8001054 <Filter_Apply+0x430>
    float mod_L = fminf(fmaxf((env_level_L / 16000.0f) * current_params.wah_sensitivity, 0.0f), 1.0f);
 8000f0c:	ed8d 0a0a 	vstr	s0, [sp, #40]	@ 0x28
    float mod_R = fminf(fmaxf((env_level_R / 16000.0f) * current_params.wah_sensitivity, 0.0f), 1.0f);
 8000f10:	ee8c 0a06 	vdiv.f32	s0, s24, s12
 8000f14:	eddd 5a09 	vldr	s11, [sp, #36]	@ 0x24
 8000f18:	eddf 0a4d 	vldr	s1, [pc, #308]	@ 8001050 <Filter_Apply+0x42c>
 8000f1c:	ee20 0a25 	vmul.f32	s0, s0, s11
 8000f20:	f005 fd06 	bl	8006930 <fmaxf>
 8000f24:	eef7 0a00 	vmov.f32	s1, #112	@ 0x3f800000  1.0
 8000f28:	f005 fd1f 	bl	800696a <fminf>
    float current_cutoff_L = WAH_MIN_FREQ + (WAH_MAX_FREQ - WAH_MIN_FREQ) * mod_L;
 8000f2c:	eddf 6a4a 	vldr	s13, [pc, #296]	@ 8001058 <Filter_Apply+0x434>
 8000f30:	eddd 5a0a 	vldr	s11, [sp, #40]	@ 0x28
 8000f34:	ed9f 5a49 	vldr	s10, [pc, #292]	@ 800105c <Filter_Apply+0x438>
 8000f38:	eeb0 6a66 	vmov.f32	s12, s13
 8000f3c:	eea5 6a85 	vfma.f32	s12, s11, s10
    float current_cutoff_R = WAH_MIN_FREQ + (WAH_MAX_FREQ - WAH_MIN_FREQ) * mod_R;
 8000f40:	eee0 6a05 	vfma.f32	s13, s0, s10
    float f_L = 2.0f * sinf(PI * current_cutoff_L / SAMPLE_RATE);
 8000f44:	ed9f 5a46 	vldr	s10, [pc, #280]	@ 8001060 <Filter_Apply+0x43c>
 8000f48:	eddf 5a46 	vldr	s11, [pc, #280]	@ 8001064 <Filter_Apply+0x440>
    float current_cutoff_R = WAH_MIN_FREQ + (WAH_MAX_FREQ - WAH_MIN_FREQ) * mod_R;
 8000f4c:	edcd 6a0d 	vstr	s13, [sp, #52]	@ 0x34
    float f_L = 2.0f * sinf(PI * current_cutoff_L / SAMPLE_RATE);
 8000f50:	ee26 0a05 	vmul.f32	s0, s12, s10
 8000f54:	ed8d 5a0c 	vstr	s10, [sp, #48]	@ 0x30
 8000f58:	ee80 0a25 	vdiv.f32	s0, s0, s11
 8000f5c:	edcd 5a0a 	vstr	s11, [sp, #40]	@ 0x28
 8000f60:	f005 fc96 	bl	8006890 <sinf>
    float f_R = 2.0f * sinf(PI * current_cutoff_R / SAMPLE_RATE);
 8000f64:	ed9d 5a0c 	vldr	s10, [sp, #48]	@ 0x30
 8000f68:	eddd 6a0d 	vldr	s13, [sp, #52]	@ 0x34
 8000f6c:	eddd 5a0a 	vldr	s11, [sp, #40]	@ 0x28
 8000f70:	ee66 6a85 	vmul.f32	s13, s13, s10
    float f_L = 2.0f * sinf(PI * current_cutoff_L / SAMPLE_RATE);
 8000f74:	eeb0 6a40 	vmov.f32	s12, s0
 8000f78:	ee36 6a06 	vadd.f32	s12, s12, s12
    float f_R = 2.0f * sinf(PI * current_cutoff_R / SAMPLE_RATE);
 8000f7c:	ee86 0aa5 	vdiv.f32	s0, s13, s11
    float f_L = 2.0f * sinf(PI * current_cutoff_L / SAMPLE_RATE);
 8000f80:	ed8d 6a0a 	vstr	s12, [sp, #40]	@ 0x28
    float f_R = 2.0f * sinf(PI * current_cutoff_R / SAMPLE_RATE);
 8000f84:	f005 fc84 	bl	8006890 <sinf>
    svf_low_L += f_L * svf_band_L;
 8000f88:	ed9d 6a0a 	vldr	s12, [sp, #40]	@ 0x28
 8000f8c:	eddd 7a02 	vldr	s15, [sp, #8]
    svf_low_R += f_R * svf_band_R;
 8000f90:	ed9d 7a01 	vldr	s14, [sp, #4]
    float high_L = (*sample_L) - svf_low_L - (WAH_Q_FACTOR * svf_band_L);
 8000f94:	ed9f 5a34 	vldr	s10, [pc, #208]	@ 8001068 <Filter_Apply+0x444>
    svf_low_L += f_L * svf_band_L;
 8000f98:	eee6 7a2c 	vfma.f32	s15, s12, s25
    *sample_R = (clean_R * (1.0f - current_params.wah_mix)) + (svf_band_R * WAH_MAKEUP_GAIN * current_params.wah_mix);
 8000f9c:	2301      	movs	r3, #1
 8000f9e:	930c      	str	r3, [sp, #48]	@ 0x30
    float f_R = 2.0f * sinf(PI * current_cutoff_R / SAMPLE_RATE);
 8000fa0:	ee30 0a00 	vadd.f32	s0, s0, s0
    float high_L = (*sample_L) - svf_low_L - (WAH_Q_FACTOR * svf_band_L);
 8000fa4:	ee79 5ae7 	vsub.f32	s11, s19, s15
    svf_low_R += f_R * svf_band_R;
 8000fa8:	eea0 7a0d 	vfma.f32	s14, s0, s26
    float high_L = (*sample_L) - svf_low_L - (WAH_Q_FACTOR * svf_band_L);
 8000fac:	eeec 5ac5 	vfms.f32	s11, s25, s10
    *sample_L = (clean_L * (1.0f - current_params.wah_mix)) + (svf_band_L * WAH_MAKEUP_GAIN * current_params.wah_mix);
 8000fb0:	eef0 6a08 	vmov.f32	s13, #8	@ 0x40400000  3.0
    svf_band_L += f_L * high_L;
 8000fb4:	eee5 ca86 	vfma.f32	s25, s11, s12
    float high_R = (*sample_R) - svf_low_R - (WAH_Q_FACTOR * svf_band_R);
 8000fb8:	ee39 6a47 	vsub.f32	s12, s18, s14
    svf_low_L += f_L * svf_band_L;
 8000fbc:	edcd 7a02 	vstr	s15, [sp, #8]
    float high_R = (*sample_R) - svf_low_R - (WAH_Q_FACTOR * svf_band_R);
 8000fc0:	eead 6a45 	vfms.f32	s12, s26, s10
    *sample_L = (clean_L * (1.0f - current_params.wah_mix)) + (svf_band_L * WAH_MAKEUP_GAIN * current_params.wah_mix);
 8000fc4:	eddd 7a12 	vldr	s15, [sp, #72]	@ 0x48
    svf_low_R += f_R * svf_band_R;
 8000fc8:	ed8d 7a01 	vstr	s14, [sp, #4]
    svf_band_R += f_R * high_R;
 8000fcc:	eea6 da00 	vfma.f32	s26, s12, s0
    *sample_L = (clean_L * (1.0f - current_params.wah_mix)) + (svf_band_L * WAH_MAKEUP_GAIN * current_params.wah_mix);
 8000fd0:	ee2c 6aa6 	vmul.f32	s12, s25, s13
 8000fd4:	e04a      	b.n	800106c <Filter_Apply+0x448>
 8000fd6:	bf00      	nop
 8000fd8:	20018558 	.word	0x20018558
 8000fdc:	20018560 	.word	0x20018560
 8000fe0:	20018554 	.word	0x20018554
 8000fe4:	2001855c 	.word	0x2001855c
 8000fe8:	20000004 	.word	0x20000004
 8000fec:	20018550 	.word	0x20018550
 8000ff0:	2001854c 	.word	0x2001854c
 8000ff4:	20018548 	.word	0x20018548
 8000ff8:	2001853c 	.word	0x2001853c
 8000ffc:	20018544 	.word	0x20018544
 8001000:	20018524 	.word	0x20018524
 8001004:	20018538 	.word	0x20018538
 8001008:	20018540 	.word	0x20018540
 800100c:	2001852c 	.word	0x2001852c
 8001010:	20018534 	.word	0x20018534
 8001014:	20018528 	.word	0x20018528
 8001018:	20018530 	.word	0x20018530
 800101c:	20018520 	.word	0x20018520
 8001020:	2001851c 	.word	0x2001851c
 8001024:	20018514 	.word	0x20018514
 8001028:	20018518 	.word	0x20018518
 800102c:	2001850c 	.word	0x2001850c
 8001030:	20018510 	.word	0x20018510
 8001034:	20010508 	.word	0x20010508
 8001038:	20010504 	.word	0x20010504
 800103c:	219392ef 	.word	0x219392ef
 8001040:	40c90fdb 	.word	0x40c90fdb
 8001044:	a19392ef 	.word	0xa19392ef
 8001048:	3b83126f 	.word	0x3b83126f
 800104c:	3c75c28f 	.word	0x3c75c28f
 8001050:	00000000 	.word	0x00000000
 8001054:	467a0000 	.word	0x467a0000
 8001058:	43fa0000 	.word	0x43fa0000
 800105c:	44fa0000 	.word	0x44fa0000
 8001060:	40490fdb 	.word	0x40490fdb
 8001064:	473b8000 	.word	0x473b8000
 8001068:	3f333333 	.word	0x3f333333
    *sample_R = (clean_R * (1.0f - current_params.wah_mix)) + (svf_band_R * WAH_MAKEUP_GAIN * current_params.wah_mix);
 800106c:	ee6d 6a26 	vmul.f32	s13, s26, s13
    *sample_L = (clean_L * (1.0f - current_params.wah_mix)) + (svf_band_L * WAH_MAKEUP_GAIN * current_params.wah_mix);
 8001070:	eeb7 7a00 	vmov.f32	s14, #112	@ 0x3f800000  1.0
 8001074:	ee77 5a67 	vsub.f32	s11, s14, s15
 8001078:	ee26 6a27 	vmul.f32	s12, s12, s15
    *sample_R = (clean_R * (1.0f - current_params.wah_mix)) + (svf_band_R * WAH_MAKEUP_GAIN * current_params.wah_mix);
 800107c:	ee66 6aa7 	vmul.f32	s13, s13, s15
    *sample_L = (clean_L * (1.0f - current_params.wah_mix)) + (svf_band_L * WAH_MAKEUP_GAIN * current_params.wah_mix);
 8001080:	eea5 6aa9 	vfma.f32	s12, s11, s19
    *sample_R = (clean_R * (1.0f - current_params.wah_mix)) + (svf_band_R * WAH_MAKEUP_GAIN * current_params.wah_mix);
 8001084:	eee5 6a89 	vfma.f32	s13, s11, s18
    *sample_L = (clean_L * (1.0f - current_params.wah_mix)) + (svf_band_L * WAH_MAKEUP_GAIN * current_params.wah_mix);
 8001088:	eef0 9a46 	vmov.f32	s19, s12
    *sample_R = (clean_R * (1.0f - current_params.wah_mix)) + (svf_band_R * WAH_MAKEUP_GAIN * current_params.wah_mix);
 800108c:	eeb0 9a66 	vmov.f32	s18, s13
    if (!current_params.delay_enable) return;
 8001090:	b3c5      	cbz	r5, 8001104 <Filter_Apply+0x4e0>
    int32_t read_idx = delay_head - delay_time_samples;
 8001092:	f5a4 52aa 	sub.w	r2, r4, #5440	@ 0x1540
 8001096:	3a15      	subs	r2, #21
    if (read_idx < 0) read_idx += DELAY_BUFFER_SIZE;
 8001098:	2a00      	cmp	r2, #0
 800109a:	da02      	bge.n	80010a2 <Filter_Apply+0x47e>
 800109c:	f504 522a 	add.w	r2, r4, #10880	@ 0x2a80
 80010a0:	322b      	adds	r2, #43	@ 0x2b
    float delayed_sample = (float)delay_line[read_idx];
 80010a2:	f8df b1e4 	ldr.w	fp, [pc, #484]	@ 8001288 <Filter_Apply+0x664>
    float write_val = input_mono + (delayed_sample * current_params.delay_feedback);
 80010a6:	eddd 7a10 	vldr	s15, [sp, #64]	@ 0x40
    float delayed_sample = (float)delay_line[read_idx];
 80010aa:	f93b 3012 	ldrsh.w	r3, [fp, r2, lsl #1]
    write_val = fminf(fmaxf(write_val, -32000.0f), 32000.0f);
 80010ae:	eddf 0a5d 	vldr	s1, [pc, #372]	@ 8001224 <Filter_Apply+0x600>
    float delayed_sample = (float)delay_line[read_idx];
 80010b2:	ee06 3a90 	vmov	s13, r3
 80010b6:	eef8 6ae6 	vcvt.f32.s32	s13, s13
    tape_lpf += 0.75f * (delayed_sample - tape_lpf);
 80010ba:	eeb6 6a08 	vmov.f32	s12, #104	@ 0x3f400000  0.750
 80010be:	ee76 6aca 	vsub.f32	s13, s13, s20
 80010c2:	eea6 aa86 	vfma.f32	s20, s13, s12
    float input_mono = (*sample_L + *sample_R) * 0.5f;
 80010c6:	ee39 6a29 	vadd.f32	s12, s18, s19
    float write_val = input_mono + (delayed_sample * current_params.delay_feedback);
 80010ca:	ee27 0a8a 	vmul.f32	s0, s15, s20
 80010ce:	eef6 6a00 	vmov.f32	s13, #96	@ 0x3f000000  0.5
    write_val = fminf(fmaxf(write_val, -32000.0f), 32000.0f);
 80010d2:	eea6 0a26 	vfma.f32	s0, s12, s13
 80010d6:	f005 fc2b 	bl	8006930 <fmaxf>
 80010da:	eddf 0a53 	vldr	s1, [pc, #332]	@ 8001228 <Filter_Apply+0x604>
 80010de:	f005 fc44 	bl	800696a <fminf>
    *sample_L += delayed_sample * current_params.delay_mix;
 80010e2:	eddd 7a11 	vldr	s15, [sp, #68]	@ 0x44
    delay_line[delay_head] = (int16_t)write_val;
 80010e6:	eebd 0ac0 	vcvt.s32.f32	s0, s0
    *sample_L += delayed_sample * current_params.delay_mix;
 80010ea:	eee7 9a8a 	vfma.f32	s19, s15, s20
    delay_line[delay_head] = (int16_t)write_val;
 80010ee:	ee10 3a10 	vmov	r3, s0
    *sample_R += delayed_sample * current_params.delay_mix;
 80010f2:	eea7 9a8a 	vfma.f32	s18, s15, s20
    delay_line[delay_head] = (int16_t)write_val;
 80010f6:	f82b 3014 	strh.w	r3, [fp, r4, lsl #1]
    delay_head = (delay_head + 1) % DELAY_BUFFER_SIZE;
 80010fa:	3401      	adds	r4, #1
 80010fc:	f3c4 040d 	ubfx	r4, r4, #0, #14
    *sample_R += delayed_sample * current_params.delay_mix;
 8001100:	f04f 0b01 	mov.w	fp, #1
    *sample_L = fminf(fmaxf(*sample_L, -32768.0f), 32767.0f);
 8001104:	eddd 7a00 	vldr	s15, [sp]
 8001108:	eddf 0a48 	vldr	s1, [pc, #288]	@ 800122c <Filter_Apply+0x608>
 800110c:	ee27 0aa9 	vmul.f32	s0, s15, s19
 8001110:	f005 fc0e 	bl	8006930 <fmaxf>
 8001114:	eddf 0a46 	vldr	s1, [pc, #280]	@ 8001230 <Filter_Apply+0x60c>
 8001118:	f005 fc27 	bl	800696a <fminf>
    *sample_R = fminf(fmaxf(*sample_R, -32768.0f), 32767.0f);
 800111c:	eddd 7a00 	vldr	s15, [sp]
 8001120:	eddf 0a42 	vldr	s1, [pc, #264]	@ 800122c <Filter_Apply+0x608>
    *sample_L = fminf(fmaxf(*sample_L, -32768.0f), 32767.0f);
 8001124:	eeb0 7a40 	vmov.f32	s14, s0
    *sample_R = fminf(fmaxf(*sample_R, -32768.0f), 32767.0f);
 8001128:	ee27 0a89 	vmul.f32	s0, s15, s18
    *sample_L = fminf(fmaxf(*sample_L, -32768.0f), 32767.0f);
 800112c:	ed8d 7a0a 	vstr	s14, [sp, #40]	@ 0x28
    *sample_R = fminf(fmaxf(*sample_R, -32768.0f), 32767.0f);
 8001130:	f005 fbfe 	bl	8006930 <fmaxf>
 8001134:	eddf 0a3e 	vldr	s1, [pc, #248]	@ 8001230 <Filter_Apply+0x60c>
 8001138:	f005 fc17 	bl	800696a <fminf>
        Apply_AutoWah(&sample_L, &sample_R);
        Apply_Delay(&sample_L, &sample_R);

        Apply_MasterVolume_And_Clip(&sample_L, &sample_R);

        buffer[i]     = (int16_t)sample_L;
 800113c:	ed9d 7a0a 	vldr	s14, [sp, #40]	@ 0x28
 8001140:	eefd 7ac7 	vcvt.s32.f32	s15, s14
        buffer[i + 1] = (int16_t)sample_R;
 8001144:	eebd 0ac0 	vcvt.s32.f32	s0, s0
        buffer[i]     = (int16_t)sample_L;
 8001148:	ee17 3a90 	vmov	r3, s15
 800114c:	f8aa 3000 	strh.w	r3, [sl]
        buffer[i + 1] = (int16_t)sample_R;
 8001150:	ee10 3a10 	vmov	r3, s0
    for (uint32_t i = 0; i < num_samples; i += 2) {
 8001154:	f10a 0a04 	add.w	sl, sl, #4
        buffer[i + 1] = (int16_t)sample_R;
 8001158:	f82a 3c02 	strh.w	r3, [sl, #-2]
    for (uint32_t i = 0; i < num_samples; i += 2) {
 800115c:	45ca      	cmp	sl, r9
 800115e:	f47f adfd 	bne.w	8000d5c <Filter_Apply+0x138>
 8001162:	eddd 9a0b 	vldr	s19, [sp, #44]	@ 0x2c
 8001166:	2201      	movs	r2, #1
 8001168:	f1bb 0f00 	cmp.w	fp, #0
 800116c:	d004      	beq.n	8001178 <Filter_Apply+0x554>
 800116e:	4b31      	ldr	r3, [pc, #196]	@ (8001234 <Filter_Apply+0x610>)
 8001170:	ed83 aa00 	vstr	s20, [r3]
 8001174:	4b30      	ldr	r3, [pc, #192]	@ (8001238 <Filter_Apply+0x614>)
 8001176:	601c      	str	r4, [r3, #0]
 8001178:	9b0c      	ldr	r3, [sp, #48]	@ 0x30
 800117a:	b1ab      	cbz	r3, 80011a8 <Filter_Apply+0x584>
 800117c:	4b2f      	ldr	r3, [pc, #188]	@ (800123c <Filter_Apply+0x618>)
 800117e:	eddd 7a01 	vldr	s15, [sp, #4]
 8001182:	edc3 7a00 	vstr	s15, [r3]
 8001186:	4b2e      	ldr	r3, [pc, #184]	@ (8001240 <Filter_Apply+0x61c>)
 8001188:	eddd 7a02 	vldr	s15, [sp, #8]
 800118c:	ed83 da00 	vstr	s26, [r3]
 8001190:	4b2c      	ldr	r3, [pc, #176]	@ (8001244 <Filter_Apply+0x620>)
 8001192:	edc3 7a00 	vstr	s15, [r3]
 8001196:	4b2c      	ldr	r3, [pc, #176]	@ (8001248 <Filter_Apply+0x624>)
 8001198:	edc3 ca00 	vstr	s25, [r3]
 800119c:	4b2b      	ldr	r3, [pc, #172]	@ (800124c <Filter_Apply+0x628>)
 800119e:	ed83 ca00 	vstr	s24, [r3]
 80011a2:	4b2b      	ldr	r3, [pc, #172]	@ (8001250 <Filter_Apply+0x62c>)
 80011a4:	edc3 fa00 	vstr	s31, [r3]
 80011a8:	9b0e      	ldr	r3, [sp, #56]	@ 0x38
 80011aa:	b30b      	cbz	r3, 80011f0 <Filter_Apply+0x5cc>
 80011ac:	4b29      	ldr	r3, [pc, #164]	@ (8001254 <Filter_Apply+0x630>)
 80011ae:	eddd 7a03 	vldr	s15, [sp, #12]
 80011b2:	edc3 7a00 	vstr	s15, [r3]
 80011b6:	4b28      	ldr	r3, [pc, #160]	@ (8001258 <Filter_Apply+0x634>)
 80011b8:	eddd 7a04 	vldr	s15, [sp, #16]
 80011bc:	edc3 9a00 	vstr	s19, [r3]
 80011c0:	4b26      	ldr	r3, [pc, #152]	@ (800125c <Filter_Apply+0x638>)
 80011c2:	edc3 7a00 	vstr	s15, [r3]
 80011c6:	4b26      	ldr	r3, [pc, #152]	@ (8001260 <Filter_Apply+0x63c>)
 80011c8:	eddd 7a05 	vldr	s15, [sp, #20]
 80011cc:	edc3 7a00 	vstr	s15, [r3]
 80011d0:	4b24      	ldr	r3, [pc, #144]	@ (8001264 <Filter_Apply+0x640>)
 80011d2:	eddd 7a06 	vldr	s15, [sp, #24]
 80011d6:	edc3 7a00 	vstr	s15, [r3]
 80011da:	4b23      	ldr	r3, [pc, #140]	@ (8001268 <Filter_Apply+0x644>)
 80011dc:	eddd 7a07 	vldr	s15, [sp, #28]
 80011e0:	edc3 8a00 	vstr	s17, [r3]
 80011e4:	4b21      	ldr	r3, [pc, #132]	@ (800126c <Filter_Apply+0x648>)
 80011e6:	edc3 7a00 	vstr	s15, [r3]
 80011ea:	4b21      	ldr	r3, [pc, #132]	@ (8001270 <Filter_Apply+0x64c>)
 80011ec:	ed83 8a00 	vstr	s16, [r3]
 80011f0:	9b0f      	ldr	r3, [sp, #60]	@ 0x3c
 80011f2:	b16b      	cbz	r3, 8001210 <Filter_Apply+0x5ec>
 80011f4:	4b1f      	ldr	r3, [pc, #124]	@ (8001274 <Filter_Apply+0x650>)
 80011f6:	eddd 7a08 	vldr	s15, [sp, #32]
 80011fa:	edc3 ba00 	vstr	s23, [r3]
 80011fe:	4b1e      	ldr	r3, [pc, #120]	@ (8001278 <Filter_Apply+0x654>)
 8001200:	edc3 7a00 	vstr	s15, [r3]
 8001204:	4b1d      	ldr	r3, [pc, #116]	@ (800127c <Filter_Apply+0x658>)
 8001206:	ed83 ba00 	vstr	s22, [r3]
 800120a:	4b1d      	ldr	r3, [pc, #116]	@ (8001280 <Filter_Apply+0x65c>)
 800120c:	edc3 aa00 	vstr	s21, [r3]
 8001210:	b112      	cbz	r2, 8001218 <Filter_Apply+0x5f4>
 8001212:	4b1c      	ldr	r3, [pc, #112]	@ (8001284 <Filter_Apply+0x660>)
 8001214:	edc3 da00 	vstr	s27, [r3]
    }
}
 8001218:	b017      	add	sp, #92	@ 0x5c
 800121a:	ecbd 8b10 	vpop	{d8-d15}
 800121e:	e8bd 8ff0 	ldmia.w	sp!, {r4, r5, r6, r7, r8, r9, sl, fp, pc}
 8001222:	bf00      	nop
 8001224:	c6fa0000 	.word	0xc6fa0000
 8001228:	46fa0000 	.word	0x46fa0000
 800122c:	c7000000 	.word	0xc7000000
 8001230:	46fffe00 	.word	0x46fffe00
 8001234:	20010504 	.word	0x20010504
 8001238:	20010508 	.word	0x20010508
 800123c:	20018510 	.word	0x20018510
 8001240:	2001850c 	.word	0x2001850c
 8001244:	20018518 	.word	0x20018518
 8001248:	20018514 	.word	0x20018514
 800124c:	2001851c 	.word	0x2001851c
 8001250:	20018520 	.word	0x20018520
 8001254:	20018530 	.word	0x20018530
 8001258:	20018528 	.word	0x20018528
 800125c:	20018534 	.word	0x20018534
 8001260:	2001852c 	.word	0x2001852c
 8001264:	20018540 	.word	0x20018540
 8001268:	20018538 	.word	0x20018538
 800126c:	20018544 	.word	0x20018544
 8001270:	2001853c 	.word	0x2001853c
 8001274:	20018548 	.word	0x20018548
 8001278:	2001854c 	.word	0x2001854c
 800127c:	20018550 	.word	0x20018550
 8001280:	20018554 	.word	0x20018554
 8001284:	2001855c 	.word	0x2001855c
 8001288:	2001050c 	.word	0x2001050c
 800128c:	219392ef 	.word	0x219392ef
 8001290:	a19392ef 	.word	0xa19392ef
 8001294:	3b83126f 	.word	0x3b83126f
 8001298:	3c75c28f 	.word	0x3c75c28f
 800129c:	467a0000 	.word	0x467a0000
 80012a0:	00000000 	.word	0x00000000
 80012a4:	43fa0000 	.word	0x43fa0000
 80012a8:	44fa0000 	.word	0x44fa0000
 80012ac:	40490fdb 	.word	0x40490fdb
 80012b0:	473b8000 	.word	0x473b8000
 80012b4:	3f333333 	.word	0x3f333333
    *sample_L *= current_params.master_volume;
 80012b8:	469b      	mov	fp, r3
 80012ba:	3901      	subs	r1, #1
 80012bc:	0849      	lsrs	r1, r1, #1
 80012be:	1d02      	adds	r2, r0, #4
 80012c0:	e9cd bb0e 	strd	fp, fp, [sp, #56]	@ 0x38
 80012c4:	eb02 0381 	add.w	r3, r2, r1, lsl #2
    *sample_L = lpf_prev_out_L + lpf_alpha * ((*sample_L) - lpf_prev_out_L) + ANTI_DENORMAL;
 80012c8:	ed1f 7a10 	vldr	s14, [pc, #-64]	@ 800128c <Filter_Apply+0x668>
    *sample_L *= current_params.master_volume;
 80012cc:	f8cd b030 	str.w	fp, [sp, #48]	@ 0x30
 80012d0:	eeb0 9a67 	vmov.f32	s18, s15
 80012d4:	4681      	mov	r9, r0
 80012d6:	edcd da13 	vstr	s27, [sp, #76]	@ 0x4c
 80012da:	469a      	mov	sl, r3
        sample_L = (float)buffer[i];
 80012dc:	f9b9 3000 	ldrsh.w	r3, [r9]
 80012e0:	ee07 3a90 	vmov	s15, r3
        sample_R = (float)buffer[i + 1];
 80012e4:	f9b9 3002 	ldrsh.w	r3, [r9, #2]
 80012e8:	ee06 3a90 	vmov	s13, r3
        sample_L = (float)buffer[i];
 80012ec:	eeb8 fae7 	vcvt.f32.s32	s30, s15
        sample_R = (float)buffer[i + 1];
 80012f0:	eef8 dae6 	vcvt.f32.s32	s27, s13
    if (!current_params.lpf_enable) return;
 80012f4:	f1b8 0f00 	cmp.w	r8, #0
 80012f8:	d01f      	beq.n	800133a <Filter_Apply+0x716>
    *sample_L = lpf_prev_out_L + lpf_alpha * ((*sample_L) - lpf_prev_out_L) + ANTI_DENORMAL;
 80012fa:	ee7f 7a6a 	vsub.f32	s15, s30, s21
    *sample_R = lpf_prev_out_R + lpf_alpha * ((*sample_R) - lpf_prev_out_R) + ANTI_DENORMAL;
 80012fe:	ee7d 6acb 	vsub.f32	s13, s27, s22
    *sample_L = lpf_prev_out_L + lpf_alpha * ((*sample_L) - lpf_prev_out_L) + ANTI_DENORMAL;
 8001302:	eee7 aaae 	vfma.f32	s21, s15, s29
    *sample_R = lpf_prev_out2_R + lpf_alpha * ((*sample_R) - lpf_prev_out2_R) - ANTI_DENORMAL;
 8001306:	2301      	movs	r3, #1
 8001308:	930f      	str	r3, [sp, #60]	@ 0x3c
    *sample_R = lpf_prev_out_R + lpf_alpha * ((*sample_R) - lpf_prev_out_R) + ANTI_DENORMAL;
 800130a:	eeae baa6 	vfma.f32	s22, s29, s13
    *sample_L = lpf_prev_out2_L + lpf_alpha * ((*sample_L) - lpf_prev_out2_L) - ANTI_DENORMAL;
 800130e:	eddd 7a08 	vldr	s15, [sp, #32]
    *sample_L = lpf_prev_out_L + lpf_alpha * ((*sample_L) - lpf_prev_out_L) + ANTI_DENORMAL;
 8001312:	ee7a aa87 	vadd.f32	s21, s21, s14
    *sample_R = lpf_prev_out_R + lpf_alpha * ((*sample_R) - lpf_prev_out_R) + ANTI_DENORMAL;
 8001316:	ee3b ba07 	vadd.f32	s22, s22, s14
    *sample_L = lpf_prev_out2_L + lpf_alpha * ((*sample_L) - lpf_prev_out2_L) - ANTI_DENORMAL;
 800131a:	ee7a 6ae7 	vsub.f32	s13, s21, s15
 800131e:	eeee 7aa6 	vfma.f32	s15, s29, s13
    *sample_R = lpf_prev_out2_R + lpf_alpha * ((*sample_R) - lpf_prev_out2_R) - ANTI_DENORMAL;
 8001322:	ee7b 6a6b 	vsub.f32	s13, s22, s23
    *sample_L = lpf_prev_out2_L + lpf_alpha * ((*sample_L) - lpf_prev_out2_L) - ANTI_DENORMAL;
 8001326:	ee37 fac7 	vsub.f32	s30, s15, s14
    *sample_R = lpf_prev_out2_R + lpf_alpha * ((*sample_R) - lpf_prev_out2_R) - ANTI_DENORMAL;
 800132a:	eeee baa6 	vfma.f32	s23, s29, s13
    lpf_prev_out2_L = *sample_L;
 800132e:	ed8d fa08 	vstr	s30, [sp, #32]
    *sample_R = lpf_prev_out2_R + lpf_alpha * ((*sample_R) - lpf_prev_out2_R) - ANTI_DENORMAL;
 8001332:	ee7b bac7 	vsub.f32	s23, s23, s14
    lpf_prev_out2_R = *sample_R;
 8001336:	eef0 da6b 	vmov.f32	s27, s23
    if (!current_params.hpf_enable) return;
 800133a:	b3df      	cbz	r7, 80013b4 <Filter_Apply+0x790>
    float out_L = hpf_alpha * (hpf_prev_out_L + in_L - hpf_prev_in_L) + ANTI_DENORMAL;
 800133c:	eddd 7a07 	vldr	s15, [sp, #28]
    hpf_prev_in_L  = in_L;
 8001340:	ed8d fa07 	vstr	s30, [sp, #28]
    float out_L = hpf_alpha * (hpf_prev_out_L + in_L - hpf_prev_in_L) + ANTI_DENORMAL;
 8001344:	ee38 8a0f 	vadd.f32	s16, s16, s30
    float out_R = hpf_alpha * (hpf_prev_out_R + in_R - hpf_prev_in_R) + ANTI_DENORMAL;
 8001348:	ee78 8aad 	vadd.f32	s17, s17, s27
    float out_L = hpf_alpha * (hpf_prev_out_L + in_L - hpf_prev_in_L) + ANTI_DENORMAL;
 800134c:	ee38 8a67 	vsub.f32	s16, s16, s15
    float out_R = hpf_alpha * (hpf_prev_out_R + in_R - hpf_prev_in_R) + ANTI_DENORMAL;
 8001350:	eddd 7a06 	vldr	s15, [sp, #24]
    float out2_L = hpf_alpha * (hpf_prev_out2_L + out_L - hpf_prev_in2_L) - ANTI_DENORMAL;
 8001354:	ed1f fa32 	vldr	s30, [pc, #-200]	@ 8001290 <Filter_Apply+0x66c>
    hpf_prev_in_R  = in_R;
 8001358:	edcd da06 	vstr	s27, [sp, #24]
    float out_L = hpf_alpha * (hpf_prev_out_L + in_L - hpf_prev_in_L) + ANTI_DENORMAL;
 800135c:	eef0 5a47 	vmov.f32	s11, s14
    float out_R = hpf_alpha * (hpf_prev_out_R + in_R - hpf_prev_in_R) + ANTI_DENORMAL;
 8001360:	ee78 8ae7 	vsub.f32	s17, s17, s15
    float out_L = hpf_alpha * (hpf_prev_out_L + in_L - hpf_prev_in_L) + ANTI_DENORMAL;
 8001364:	eee8 5a0e 	vfma.f32	s11, s16, s28
    float out2_R = hpf_alpha * (hpf_prev_out2_R + out_R - hpf_prev_in2_R) - ANTI_DENORMAL;
 8001368:	2301      	movs	r3, #1
 800136a:	930e      	str	r3, [sp, #56]	@ 0x38
    float out_R = hpf_alpha * (hpf_prev_out_R + in_R - hpf_prev_in_R) + ANTI_DENORMAL;
 800136c:	eeb0 6a47 	vmov.f32	s12, s14
 8001370:	eeae 6a28 	vfma.f32	s12, s28, s17
    float out2_L = hpf_alpha * (hpf_prev_out2_L + out_L - hpf_prev_in2_L) - ANTI_DENORMAL;
 8001374:	eddd 7a05 	vldr	s15, [sp, #20]
    out_L -= ANTI_DENORMAL;
 8001378:	ee35 8ac7 	vsub.f32	s16, s11, s14
    out_R -= ANTI_DENORMAL;
 800137c:	ee76 8a47 	vsub.f32	s17, s12, s14
    float out2_L = hpf_alpha * (hpf_prev_out2_L + out_L - hpf_prev_in2_L) - ANTI_DENORMAL;
 8001380:	ee78 6a27 	vadd.f32	s13, s16, s15
 8001384:	eddd 7a04 	vldr	s15, [sp, #16]
    float out2_R = hpf_alpha * (hpf_prev_out2_R + out_R - hpf_prev_in2_R) - ANTI_DENORMAL;
 8001388:	ed9d 6a03 	vldr	s12, [sp, #12]
    hpf_prev_in2_L  = out_L;
 800138c:	ed8d 8a04 	vstr	s16, [sp, #16]
    float out2_L = hpf_alpha * (hpf_prev_out2_L + out_L - hpf_prev_in2_L) - ANTI_DENORMAL;
 8001390:	ee76 6ae7 	vsub.f32	s13, s13, s15
    float out2_R = hpf_alpha * (hpf_prev_out2_R + out_R - hpf_prev_in2_R) - ANTI_DENORMAL;
 8001394:	ee79 7aa8 	vadd.f32	s15, s19, s17
 8001398:	ed5f 9a43 	vldr	s19, [pc, #-268]	@ 8001290 <Filter_Apply+0x66c>
    hpf_prev_in2_R  = out_R;
 800139c:	edcd 8a03 	vstr	s17, [sp, #12]
    float out2_R = hpf_alpha * (hpf_prev_out2_R + out_R - hpf_prev_in2_R) - ANTI_DENORMAL;
 80013a0:	ee77 7ac6 	vsub.f32	s15, s15, s12
    float out2_L = hpf_alpha * (hpf_prev_out2_L + out_L - hpf_prev_in2_L) - ANTI_DENORMAL;
 80013a4:	eeae fa26 	vfma.f32	s30, s28, s13
    float out2_R = hpf_alpha * (hpf_prev_out2_R + out_R - hpf_prev_in2_R) - ANTI_DENORMAL;
 80013a8:	eeee 9a27 	vfma.f32	s19, s28, s15
    float out2_L = hpf_alpha * (hpf_prev_out2_L + out_L - hpf_prev_in2_L) - ANTI_DENORMAL;
 80013ac:	ed8d fa05 	vstr	s30, [sp, #20]
    *sample_R = out2_R;
 80013b0:	eef0 da69 	vmov.f32	s27, s19
    if (!current_params.wah_enable) return;
 80013b4:	2e00      	cmp	r6, #0
 80013b6:	f000 80b6 	beq.w	8001526 <Filter_Apply+0x902>
    float input_abs_L = fabsf(*sample_L);
 80013ba:	eeb0 6acf 	vabs.f32	s12, s30
    env_level_L += (input_abs_L > env_level_L ? WAH_ATTACK : WAH_RELEASE) * (input_abs_L - env_level_L) + ANTI_DENORMAL;
 80013be:	ed5f 6a4b 	vldr	s13, [pc, #-300]	@ 8001294 <Filter_Apply+0x670>
 80013c2:	ed5f 7a4b 	vldr	s15, [pc, #-300]	@ 8001298 <Filter_Apply+0x674>
    float mod_L = fminf(fmaxf((env_level_L / 16000.0f) * current_params.wah_sensitivity, 0.0f), 1.0f);
 80013c6:	ed5f 0a4a 	vldr	s1, [pc, #-296]	@ 80012a0 <Filter_Apply+0x67c>
    env_level_R += (input_abs_R > env_level_R ? WAH_ATTACK : WAH_RELEASE) * (input_abs_R - env_level_R) + ANTI_DENORMAL;
 80013ca:	ed8d 7a0d 	vstr	s14, [sp, #52]	@ 0x34
    env_level_L += (input_abs_L > env_level_L ? WAH_ATTACK : WAH_RELEASE) * (input_abs_L - env_level_L) + ANTI_DENORMAL;
 80013ce:	eeb4 6aef 	vcmpe.f32	s12, s31
 80013d2:	eef1 fa10 	vmrs	APSR_nzcv, fpscr
 80013d6:	ee36 6a6f 	vsub.f32	s12, s12, s31
 80013da:	bfd4      	ite	le
 80013dc:	eeb0 5a66 	vmovle.f32	s10, s13
 80013e0:	eeb0 5a67 	vmovgt.f32	s10, s15
 80013e4:	eef0 5a47 	vmov.f32	s11, s14
 80013e8:	eee6 5a05 	vfma.f32	s11, s12, s10
    float input_abs_R = fabsf(*sample_R);
 80013ec:	eeb0 6aed 	vabs.f32	s12, s27
    env_level_L += (input_abs_L > env_level_L ? WAH_ATTACK : WAH_RELEASE) * (input_abs_L - env_level_L) + ANTI_DENORMAL;
 80013f0:	ee7f faa5 	vadd.f32	s31, s31, s11
    float mod_L = fminf(fmaxf((env_level_L / 16000.0f) * current_params.wah_sensitivity, 0.0f), 1.0f);
 80013f4:	ed5f 5a57 	vldr	s11, [pc, #-348]	@ 800129c <Filter_Apply+0x678>
 80013f8:	ed9d 5a09 	vldr	s10, [sp, #36]	@ 0x24
 80013fc:	ee8f 0aa5 	vdiv.f32	s0, s31, s11
    env_level_R += (input_abs_R > env_level_R ? WAH_ATTACK : WAH_RELEASE) * (input_abs_R - env_level_R) + ANTI_DENORMAL;
 8001400:	eeb4 6acc 	vcmpe.f32	s12, s24
 8001404:	eef1 fa10 	vmrs	APSR_nzcv, fpscr
 8001408:	ee36 6a4c 	vsub.f32	s12, s12, s24
    float mod_L = fminf(fmaxf((env_level_L / 16000.0f) * current_params.wah_sensitivity, 0.0f), 1.0f);
 800140c:	ee20 0a05 	vmul.f32	s0, s0, s10
    env_level_R += (input_abs_R > env_level_R ? WAH_ATTACK : WAH_RELEASE) * (input_abs_R - env_level_R) + ANTI_DENORMAL;
 8001410:	bfd4      	ite	le
 8001412:	eeb0 5a66 	vmovle.f32	s10, s13
 8001416:	eeb0 5a67 	vmovgt.f32	s10, s15
 800141a:	eef0 7a47 	vmov.f32	s15, s14
 800141e:	eee6 7a05 	vfma.f32	s15, s12, s10
 8001422:	ee3c ca27 	vadd.f32	s24, s24, s15
    float mod_L = fminf(fmaxf((env_level_L / 16000.0f) * current_params.wah_sensitivity, 0.0f), 1.0f);
 8001426:	f005 fa83 	bl	8006930 <fmaxf>
 800142a:	eef7 0a00 	vmov.f32	s1, #112	@ 0x3f800000  1.0
 800142e:	f005 fa9c 	bl	800696a <fminf>
    float mod_R = fminf(fmaxf((env_level_R / 16000.0f) * current_params.wah_sensitivity, 0.0f), 1.0f);
 8001432:	ed5f 5a66 	vldr	s11, [pc, #-408]	@ 800129c <Filter_Apply+0x678>
    float mod_L = fminf(fmaxf((env_level_L / 16000.0f) * current_params.wah_sensitivity, 0.0f), 1.0f);
 8001436:	ed8d 0a00 	vstr	s0, [sp]
    float mod_R = fminf(fmaxf((env_level_R / 16000.0f) * current_params.wah_sensitivity, 0.0f), 1.0f);
 800143a:	ee8c 0a25 	vdiv.f32	s0, s24, s11
 800143e:	ed9d 5a09 	vldr	s10, [sp, #36]	@ 0x24
 8001442:	ed5f 0a69 	vldr	s1, [pc, #-420]	@ 80012a0 <Filter_Apply+0x67c>
 8001446:	ee20 0a05 	vmul.f32	s0, s0, s10
 800144a:	f005 fa71 	bl	8006930 <fmaxf>
 800144e:	eef7 0a00 	vmov.f32	s1, #112	@ 0x3f800000  1.0
 8001452:	f005 fa8a 	bl	800696a <fminf>
    float current_cutoff_L = WAH_MIN_FREQ + (WAH_MAX_FREQ - WAH_MIN_FREQ) * mod_L;
 8001456:	ed1f 6a6d 	vldr	s12, [pc, #-436]	@ 80012a4 <Filter_Apply+0x680>
 800145a:	ed5f 7a6d 	vldr	s15, [pc, #-436]	@ 80012a8 <Filter_Apply+0x684>
 800145e:	ed9d 5a00 	vldr	s10, [sp]
    float f_L = 2.0f * sinf(PI * current_cutoff_L / SAMPLE_RATE);
 8001462:	ed5f 4a6e 	vldr	s9, [pc, #-440]	@ 80012ac <Filter_Apply+0x688>
    float current_cutoff_L = WAH_MIN_FREQ + (WAH_MAX_FREQ - WAH_MIN_FREQ) * mod_L;
 8001466:	eef0 5a46 	vmov.f32	s11, s12
 800146a:	eee5 5a27 	vfma.f32	s11, s10, s15
    float current_cutoff_R = WAH_MIN_FREQ + (WAH_MAX_FREQ - WAH_MIN_FREQ) * mod_R;
 800146e:	eea0 6a27 	vfma.f32	s12, s0, s15
    float f_L = 2.0f * sinf(PI * current_cutoff_L / SAMPLE_RATE);
 8001472:	ed1f 5a71 	vldr	s10, [pc, #-452]	@ 80012b0 <Filter_Apply+0x68c>
    float current_cutoff_R = WAH_MIN_FREQ + (WAH_MAX_FREQ - WAH_MIN_FREQ) * mod_R;
 8001476:	ed8d 6a0b 	vstr	s12, [sp, #44]	@ 0x2c
    float f_L = 2.0f * sinf(PI * current_cutoff_L / SAMPLE_RATE);
 800147a:	ee25 0aa4 	vmul.f32	s0, s11, s9
 800147e:	edcd 4a0a 	vstr	s9, [sp, #40]	@ 0x28
 8001482:	ee80 0a05 	vdiv.f32	s0, s0, s10
 8001486:	ed8d 5a00 	vstr	s10, [sp]
 800148a:	f005 fa01 	bl	8006890 <sinf>
    float f_R = 2.0f * sinf(PI * current_cutoff_R / SAMPLE_RATE);
 800148e:	eddd 4a0a 	vldr	s9, [sp, #40]	@ 0x28
 8001492:	ed9d 6a0b 	vldr	s12, [sp, #44]	@ 0x2c
 8001496:	ed9d 5a00 	vldr	s10, [sp]
 800149a:	ee26 6a24 	vmul.f32	s12, s12, s9
    float f_L = 2.0f * sinf(PI * current_cutoff_L / SAMPLE_RATE);
 800149e:	eef0 5a40 	vmov.f32	s11, s0
 80014a2:	ee75 5aa5 	vadd.f32	s11, s11, s11
    float f_R = 2.0f * sinf(PI * current_cutoff_R / SAMPLE_RATE);
 80014a6:	ee86 0a05 	vdiv.f32	s0, s12, s10
    float f_L = 2.0f * sinf(PI * current_cutoff_L / SAMPLE_RATE);
 80014aa:	edcd 5a00 	vstr	s11, [sp]
    float f_R = 2.0f * sinf(PI * current_cutoff_R / SAMPLE_RATE);
 80014ae:	f005 f9ef 	bl	8006890 <sinf>
    svf_low_L += f_L * svf_band_L;
 80014b2:	eddd 5a00 	vldr	s11, [sp]
 80014b6:	eddd 7a02 	vldr	s15, [sp, #8]
    svf_low_R += f_R * svf_band_R;
 80014ba:	ed9d 7a01 	vldr	s14, [sp, #4]
    float high_L = (*sample_L) - svf_low_L - (WAH_Q_FACTOR * svf_band_L);
 80014be:	ed5f 4a83 	vldr	s9, [pc, #-524]	@ 80012b4 <Filter_Apply+0x690>
    svf_low_L += f_L * svf_band_L;
 80014c2:	eee5 7aac 	vfma.f32	s15, s11, s25
    *sample_R = (clean_R * (1.0f - current_params.wah_mix)) + (svf_band_R * WAH_MAKEUP_GAIN * current_params.wah_mix);
 80014c6:	2301      	movs	r3, #1
 80014c8:	930c      	str	r3, [sp, #48]	@ 0x30
    float f_R = 2.0f * sinf(PI * current_cutoff_R / SAMPLE_RATE);
 80014ca:	ee30 0a00 	vadd.f32	s0, s0, s0
    float high_L = (*sample_L) - svf_low_L - (WAH_Q_FACTOR * svf_band_L);
 80014ce:	ee3f 5a67 	vsub.f32	s10, s30, s15
    svf_low_R += f_R * svf_band_R;
 80014d2:	eea0 7a0d 	vfma.f32	s14, s0, s26
    float high_L = (*sample_L) - svf_low_L - (WAH_Q_FACTOR * svf_band_L);
 80014d6:	eeac 5ae4 	vfms.f32	s10, s25, s9
    *sample_L = (clean_L * (1.0f - current_params.wah_mix)) + (svf_band_L * WAH_MAKEUP_GAIN * current_params.wah_mix);
 80014da:	eeb0 6a08 	vmov.f32	s12, #8	@ 0x40400000  3.0
    svf_band_L += f_L * high_L;
 80014de:	eee5 ca85 	vfma.f32	s25, s11, s10
    float high_R = (*sample_R) - svf_low_R - (WAH_Q_FACTOR * svf_band_R);
 80014e2:	ee7d 5ac7 	vsub.f32	s11, s27, s14
    *sample_L = (clean_L * (1.0f - current_params.wah_mix)) + (svf_band_L * WAH_MAKEUP_GAIN * current_params.wah_mix);
 80014e6:	ee2c 5a86 	vmul.f32	s10, s25, s12
    float high_R = (*sample_R) - svf_low_R - (WAH_Q_FACTOR * svf_band_R);
 80014ea:	eeed 5a64 	vfms.f32	s11, s26, s9
    svf_low_L += f_L * svf_band_L;
 80014ee:	edcd 7a02 	vstr	s15, [sp, #8]
    svf_band_R += f_R * high_R;
 80014f2:	eea0 da25 	vfma.f32	s26, s0, s11
    *sample_L = (clean_L * (1.0f - current_params.wah_mix)) + (svf_band_L * WAH_MAKEUP_GAIN * current_params.wah_mix);
 80014f6:	eddd 7a12 	vldr	s15, [sp, #72]	@ 0x48
    svf_low_R += f_R * svf_band_R;
 80014fa:	ed8d 7a01 	vstr	s14, [sp, #4]
    *sample_R = (clean_R * (1.0f - current_params.wah_mix)) + (svf_band_R * WAH_MAKEUP_GAIN * current_params.wah_mix);
 80014fe:	ee2d 6a06 	vmul.f32	s12, s26, s12
    *sample_L = (clean_L * (1.0f - current_params.wah_mix)) + (svf_band_L * WAH_MAKEUP_GAIN * current_params.wah_mix);
 8001502:	eef7 5a00 	vmov.f32	s11, #112	@ 0x3f800000  1.0
 8001506:	ee75 5ae7 	vsub.f32	s11, s11, s15
 800150a:	ee25 5a27 	vmul.f32	s10, s10, s15
    *sample_R = (clean_R * (1.0f - current_params.wah_mix)) + (svf_band_R * WAH_MAKEUP_GAIN * current_params.wah_mix);
 800150e:	ee26 6a27 	vmul.f32	s12, s12, s15
    *sample_L = (clean_L * (1.0f - current_params.wah_mix)) + (svf_band_L * WAH_MAKEUP_GAIN * current_params.wah_mix);
 8001512:	eea5 5a8f 	vfma.f32	s10, s11, s30
    *sample_R = (clean_R * (1.0f - current_params.wah_mix)) + (svf_band_R * WAH_MAKEUP_GAIN * current_params.wah_mix);
 8001516:	eea5 6aad 	vfma.f32	s12, s11, s27
 800151a:	ed9d 7a0d 	vldr	s14, [sp, #52]	@ 0x34
    *sample_L = (clean_L * (1.0f - current_params.wah_mix)) + (svf_band_L * WAH_MAKEUP_GAIN * current_params.wah_mix);
 800151e:	eeb0 fa45 	vmov.f32	s30, s10
    *sample_R = (clean_R * (1.0f - current_params.wah_mix)) + (svf_band_R * WAH_MAKEUP_GAIN * current_params.wah_mix);
 8001522:	eef0 da46 	vmov.f32	s27, s12
    if (!current_params.delay_enable) return;
 8001526:	b3ed      	cbz	r5, 80015a4 <Filter_Apply+0x980>
    int32_t read_idx = delay_head - delay_time_samples;
 8001528:	f5a4 52aa 	sub.w	r2, r4, #5440	@ 0x1540
 800152c:	3a15      	subs	r2, #21
    if (read_idx < 0) read_idx += DELAY_BUFFER_SIZE;
 800152e:	2a00      	cmp	r2, #0
 8001530:	bfb8      	it	lt
 8001532:	f504 522a 	addlt.w	r2, r4, #10880	@ 0x2a80
    float delayed_sample = (float)delay_line[read_idx];
 8001536:	f8df b0dc 	ldr.w	fp, [pc, #220]	@ 8001614 <Filter_Apply+0x9f0>
    float write_val = input_mono + (delayed_sample * current_params.delay_feedback);
 800153a:	eddd 7a10 	vldr	s15, [sp, #64]	@ 0x40
    write_val = fminf(fmaxf(write_val, -32000.0f), 32000.0f);
 800153e:	eddf 0a31 	vldr	s1, [pc, #196]	@ 8001604 <Filter_Apply+0x9e0>
 8001542:	ed8d 7a00 	vstr	s14, [sp]
    if (read_idx < 0) read_idx += DELAY_BUFFER_SIZE;
 8001546:	bfb8      	it	lt
 8001548:	322b      	addlt	r2, #43	@ 0x2b
    tape_lpf += 0.75f * (delayed_sample - tape_lpf);
 800154a:	eef6 5a08 	vmov.f32	s11, #104	@ 0x3f400000  0.750
    float delayed_sample = (float)delay_line[read_idx];
 800154e:	f93b 3012 	ldrsh.w	r3, [fp, r2, lsl #1]
 8001552:	ee06 3a10 	vmov	s12, r3
 8001556:	eeb8 6ac6 	vcvt.f32.s32	s12, s12
    tape_lpf += 0.75f * (delayed_sample - tape_lpf);
 800155a:	ee36 6a4a 	vsub.f32	s12, s12, s20
 800155e:	eea6 aa25 	vfma.f32	s20, s12, s11
    float input_mono = (*sample_L + *sample_R) * 0.5f;
 8001562:	ee7f 5a2d 	vadd.f32	s11, s30, s27
    float write_val = input_mono + (delayed_sample * current_params.delay_feedback);
 8001566:	ee2a 0a27 	vmul.f32	s0, s20, s15
 800156a:	eeb6 6a00 	vmov.f32	s12, #96	@ 0x3f000000  0.5
    write_val = fminf(fmaxf(write_val, -32000.0f), 32000.0f);
 800156e:	eea5 0a86 	vfma.f32	s0, s11, s12
 8001572:	f005 f9dd 	bl	8006930 <fmaxf>
 8001576:	eddf 0a24 	vldr	s1, [pc, #144]	@ 8001608 <Filter_Apply+0x9e4>
 800157a:	f005 f9f6 	bl	800696a <fminf>
    *sample_L += delayed_sample * current_params.delay_mix;
 800157e:	eddd 7a11 	vldr	s15, [sp, #68]	@ 0x44
    *sample_R += delayed_sample * current_params.delay_mix;
 8001582:	ed9d 7a00 	vldr	s14, [sp]
    delay_line[delay_head] = (int16_t)write_val;
 8001586:	eebd 0ac0 	vcvt.s32.f32	s0, s0
    *sample_L += delayed_sample * current_params.delay_mix;
 800158a:	eeaa fa27 	vfma.f32	s30, s20, s15
    delay_line[delay_head] = (int16_t)write_val;
 800158e:	ee10 3a10 	vmov	r3, s0
    *sample_R += delayed_sample * current_params.delay_mix;
 8001592:	eeea da27 	vfma.f32	s27, s20, s15
    delay_line[delay_head] = (int16_t)write_val;
 8001596:	f82b 3014 	strh.w	r3, [fp, r4, lsl #1]
    delay_head = (delay_head + 1) % DELAY_BUFFER_SIZE;
 800159a:	3401      	adds	r4, #1
 800159c:	f3c4 040d 	ubfx	r4, r4, #0, #14
    *sample_R += delayed_sample * current_params.delay_mix;
 80015a0:	f04f 0b01 	mov.w	fp, #1
    *sample_L = fminf(fmaxf(*sample_L, -32768.0f), 32767.0f);
 80015a4:	ee29 0a0f 	vmul.f32	s0, s18, s30
 80015a8:	eddf 0a18 	vldr	s1, [pc, #96]	@ 800160c <Filter_Apply+0x9e8>
 80015ac:	ed8d 7a00 	vstr	s14, [sp]
 80015b0:	f005 f9be 	bl	8006930 <fmaxf>
 80015b4:	eddf 0a16 	vldr	s1, [pc, #88]	@ 8001610 <Filter_Apply+0x9ec>
 80015b8:	f005 f9d7 	bl	800696a <fminf>
    *sample_R = fminf(fmaxf(*sample_R, -32768.0f), 32767.0f);
 80015bc:	eddf 0a13 	vldr	s1, [pc, #76]	@ 800160c <Filter_Apply+0x9e8>
    *sample_L = fminf(fmaxf(*sample_L, -32768.0f), 32767.0f);
 80015c0:	eeb0 fa40 	vmov.f32	s30, s0
    *sample_R = fminf(fmaxf(*sample_R, -32768.0f), 32767.0f);
 80015c4:	ee29 0a2d 	vmul.f32	s0, s18, s27
 80015c8:	f005 f9b2 	bl	8006930 <fmaxf>
 80015cc:	eddf 0a10 	vldr	s1, [pc, #64]	@ 8001610 <Filter_Apply+0x9ec>
 80015d0:	f005 f9cb 	bl	800696a <fminf>
        buffer[i]     = (int16_t)sample_L;
 80015d4:	eefd 7acf 	vcvt.s32.f32	s15, s30
        buffer[i + 1] = (int16_t)sample_R;
 80015d8:	eebd 0ac0 	vcvt.s32.f32	s0, s0
        buffer[i]     = (int16_t)sample_L;
 80015dc:	ee17 3a90 	vmov	r3, s15
 80015e0:	f8a9 3000 	strh.w	r3, [r9]
        buffer[i + 1] = (int16_t)sample_R;
 80015e4:	ee10 3a10 	vmov	r3, s0
    for (uint32_t i = 0; i < num_samples; i += 2) {
 80015e8:	f109 0904 	add.w	r9, r9, #4
        buffer[i + 1] = (int16_t)sample_R;
 80015ec:	f829 3c02 	strh.w	r3, [r9, #-2]
    for (uint32_t i = 0; i < num_samples; i += 2) {
 80015f0:	45d1      	cmp	r9, sl
 80015f2:	ed9d 7a00 	vldr	s14, [sp]
 80015f6:	f47f ae71 	bne.w	80012dc <Filter_Apply+0x6b8>
 80015fa:	eddd da13 	vldr	s27, [sp, #76]	@ 0x4c
 80015fe:	2200      	movs	r2, #0
 8001600:	e5b2      	b.n	8001168 <Filter_Apply+0x544>
 8001602:	4770      	bx	lr
 8001604:	c6fa0000 	.word	0xc6fa0000
 8001608:	46fa0000 	.word	0x46fa0000
 800160c:	c7000000 	.word	0xc7000000
 8001610:	46fffe00 	.word	0x46fffe00
 8001614:	2001050c 	.word	0x2001050c

08001618 <SystemClock_Config>:
/**
  * @brief System Clock Configuration
  * @retval None
  */
void SystemClock_Config(void)
{
 8001618:	b530      	push	{r4, r5, lr}
  RCC_OscInitTypeDef RCC_OscInitStruct = {0};
 800161a:	2300      	movs	r3, #0
{
 800161c:	b095      	sub	sp, #84	@ 0x54
  RCC_OscInitTypeDef RCC_OscInitStruct = {0};
 800161e:	e9cd 330b 	strd	r3, r3, [sp, #44]	@ 0x2c
 8001622:	e9cd 3309 	strd	r3, r3, [sp, #36]	@ 0x24
  RCC_ClkInitTypeDef RCC_ClkInitStruct = {0};
 8001626:	e9cd 3303 	strd	r3, r3, [sp, #12]
 800162a:	e9cd 3305 	strd	r3, r3, [sp, #20]

  /** Configure the main internal regulator output voltage
  */
  __HAL_RCC_PWR_CLK_ENABLE();
 800162e:	4921      	ldr	r1, [pc, #132]	@ (80016b4 <SystemClock_Config+0x9c>)
 8001630:	9301      	str	r3, [sp, #4]
  RCC_OscInitTypeDef RCC_OscInitStruct = {0};
 8001632:	930d      	str	r3, [sp, #52]	@ 0x34
  RCC_ClkInitTypeDef RCC_ClkInitStruct = {0};
 8001634:	9307      	str	r3, [sp, #28]
  __HAL_RCC_PWR_CLK_ENABLE();
 8001636:	6c08      	ldr	r0, [r1, #64]	@ 0x40
  __HAL_PWR_VOLTAGESCALING_CONFIG(PWR_REGULATOR_VOLTAGE_SCALE1);
 8001638:	4a1f      	ldr	r2, [pc, #124]	@ (80016b8 <SystemClock_Config+0xa0>)
  __HAL_RCC_PWR_CLK_ENABLE();
 800163a:	f040 5080 	orr.w	r0, r0, #268435456	@ 0x10000000
 800163e:	6408      	str	r0, [r1, #64]	@ 0x40
 8001640:	6c09      	ldr	r1, [r1, #64]	@ 0x40
 8001642:	f001 5180 	and.w	r1, r1, #268435456	@ 0x10000000
 8001646:	9101      	str	r1, [sp, #4]
 8001648:	9901      	ldr	r1, [sp, #4]
  __HAL_PWR_VOLTAGESCALING_CONFIG(PWR_REGULATOR_VOLTAGE_SCALE1);
 800164a:	9302      	str	r3, [sp, #8]
 800164c:	6811      	ldr	r1, [r2, #0]
 800164e:	f441 4180 	orr.w	r1, r1, #16384	@ 0x4000
 8001652:	6011      	str	r1, [r2, #0]
 8001654:	6812      	ldr	r2, [r2, #0]
  */
  RCC_OscInitStruct.OscillatorType = RCC_OSCILLATORTYPE_HSI;
  RCC_OscInitStruct.HSIState = RCC_HSI_ON;
  RCC_OscInitStruct.HSICalibrationValue = RCC_HSICALIBRATION_DEFAULT;
  RCC_OscInitStruct.PLL.PLLState = RCC_PLL_ON;
  RCC_OscInitStruct.PLL.PLLSource = RCC_PLLSOURCE_HSI;
 8001656:	930f      	str	r3, [sp, #60]	@ 0x3c
  __HAL_PWR_VOLTAGESCALING_CONFIG(PWR_REGULATOR_VOLTAGE_SCALE1);
 8001658:	f402 4280 	and.w	r2, r2, #16384	@ 0x4000
  RCC_OscInitStruct.HSIState = RCC_HSI_ON;
 800165c:	2310      	movs	r3, #16
 800165e:	2101      	movs	r1, #1
  __HAL_PWR_VOLTAGESCALING_CONFIG(PWR_REGULATOR_VOLTAGE_SCALE1);
 8001660:	9202      	str	r2, [sp, #8]
  RCC_OscInitStruct.HSIState = RCC_HSI_ON;
 8001662:	e9cd 130b 	strd	r1, r3, [sp, #44]	@ 0x2c
  RCC_OscInitStruct.PLL.PLLM = 8;
 8001666:	2208      	movs	r2, #8
  RCC_OscInitStruct.PLL.PLLN = 216;
 8001668:	23d8      	movs	r3, #216	@ 0xd8
 800166a:	e9cd 2310 	strd	r2, r3, [sp, #64]	@ 0x40
  __HAL_PWR_VOLTAGESCALING_CONFIG(PWR_REGULATOR_VOLTAGE_SCALE1);
 800166e:	9802      	ldr	r0, [sp, #8]
  RCC_OscInitStruct.OscillatorType = RCC_OSCILLATORTYPE_HSI;
 8001670:	2402      	movs	r4, #2
  RCC_OscInitStruct.PLL.PLLP = RCC_PLLP_DIV4;
 8001672:	2204      	movs	r2, #4
 8001674:	2309      	movs	r3, #9
  RCC_OscInitStruct.PLL.PLLQ = 9;
  if (HAL_RCC_OscConfig(&RCC_OscInitStruct) != HAL_OK)
 8001676:	a808      	add	r0, sp, #32
  RCC_OscInitStruct.OscillatorType = RCC_OSCILLATORTYPE_HSI;
 8001678:	9408      	str	r4, [sp, #32]
  RCC_OscInitStruct.PLL.PLLState = RCC_PLL_ON;
 800167a:	940e      	str	r4, [sp, #56]	@ 0x38
  RCC_OscInitStruct.PLL.PLLP = RCC_PLLP_DIV4;
 800167c:	e9cd 2312 	strd	r2, r3, [sp, #72]	@ 0x48
  if (HAL_RCC_OscConfig(&RCC_OscInitStruct) != HAL_OK)
 8001680:	f002 fd5c 	bl	800413c <HAL_RCC_OscConfig>
 8001684:	b108      	cbz	r0, 800168a <SystemClock_Config+0x72>
  \details Disables IRQ interrupts by setting special-purpose register PRIMASK.
           Can only be executed in Privileged modes.
 */
__STATIC_FORCEINLINE void __disable_irq(void)
{
  __ASM volatile ("cpsid i" : : : "memory");
 8001686:	b672      	cpsid	i
void Error_Handler(void)
{
  /* USER CODE BEGIN Error_Handler_Debug */
  /* User can add his own implementation to report the HAL error return state */
  __disable_irq();
  while (1)
 8001688:	e7fe      	b.n	8001688 <SystemClock_Config+0x70>
  RCC_ClkInitStruct.ClockType = RCC_CLOCKTYPE_HCLK|RCC_CLOCKTYPE_SYSCLK
 800168a:	220f      	movs	r2, #15
 800168c:	4603      	mov	r3, r0
  RCC_ClkInitStruct.SYSCLKSource = RCC_SYSCLKSOURCE_PLLCLK;
 800168e:	e9cd 2403 	strd	r2, r4, [sp, #12]
  RCC_ClkInitStruct.APB1CLKDivider = RCC_HCLK_DIV4;
 8001692:	f44f 55a0 	mov.w	r5, #5120	@ 0x1400
  RCC_ClkInitStruct.APB2CLKDivider = RCC_HCLK_DIV2;
 8001696:	f44f 5280 	mov.w	r2, #4096	@ 0x1000
  if (HAL_RCC_ClockConfig(&RCC_ClkInitStruct, FLASH_LATENCY_3) != HAL_OK)
 800169a:	a803      	add	r0, sp, #12
 800169c:	2103      	movs	r1, #3
  RCC_ClkInitStruct.APB1CLKDivider = RCC_HCLK_DIV4;
 800169e:	e9cd 3505 	strd	r3, r5, [sp, #20]
  RCC_ClkInitStruct.APB2CLKDivider = RCC_HCLK_DIV2;
 80016a2:	9207      	str	r2, [sp, #28]
  if (HAL_RCC_ClockConfig(&RCC_ClkInitStruct, FLASH_LATENCY_3) != HAL_OK)
 80016a4:	f002 ff60 	bl	8004568 <HAL_RCC_ClockConfig>
 80016a8:	b108      	cbz	r0, 80016ae <SystemClock_Config+0x96>
 80016aa:	b672      	cpsid	i
  while (1)
 80016ac:	e7fe      	b.n	80016ac <SystemClock_Config+0x94>
}
 80016ae:	b015      	add	sp, #84	@ 0x54
 80016b0:	bd30      	pop	{r4, r5, pc}
 80016b2:	bf00      	nop
 80016b4:	40023800 	.word	0x40023800
 80016b8:	40007000 	.word	0x40007000
 80016bc:	00000000 	.word	0x00000000

080016c0 <main>:
{
 80016c0:	b500      	push	{lr}
  GPIO_InitTypeDef GPIO_InitStruct = {0};
 80016c2:	2400      	movs	r4, #0
{
 80016c4:	b08d      	sub	sp, #52	@ 0x34
  HAL_Init();
 80016c6:	f000 fa1d 	bl	8001b04 <HAL_Init>
  SystemClock_Config();
 80016ca:	f7ff ffa5 	bl	8001618 <SystemClock_Config>
  GPIO_InitTypeDef GPIO_InitStruct = {0};
 80016ce:	e9cd 4406 	strd	r4, r4, [sp, #24]
 80016d2:	e9cd 4408 	strd	r4, r4, [sp, #32]
  __HAL_RCC_GPIOE_CLK_ENABLE();
 80016d6:	4d4a      	ldr	r5, [pc, #296]	@ (8001800 <main+0x140>)
 80016d8:	9402      	str	r4, [sp, #8]
  GPIO_InitTypeDef GPIO_InitStruct = {0};
 80016da:	940a      	str	r4, [sp, #40]	@ 0x28
  __HAL_RCC_GPIOE_CLK_ENABLE();
 80016dc:	6b2b      	ldr	r3, [r5, #48]	@ 0x30
  HAL_GPIO_WritePin(GPIOE, GPIO_PIN_4|GPIO_PIN_5, GPIO_PIN_SET);
 80016de:	4849      	ldr	r0, [pc, #292]	@ (8001804 <main+0x144>)
  __HAL_RCC_GPIOE_CLK_ENABLE();
 80016e0:	f043 0310 	orr.w	r3, r3, #16
 80016e4:	632b      	str	r3, [r5, #48]	@ 0x30
 80016e6:	6b2b      	ldr	r3, [r5, #48]	@ 0x30
 80016e8:	f003 0310 	and.w	r3, r3, #16
 80016ec:	9302      	str	r3, [sp, #8]
 80016ee:	9b02      	ldr	r3, [sp, #8]
  __HAL_RCC_GPIOC_CLK_ENABLE();
 80016f0:	9403      	str	r4, [sp, #12]
 80016f2:	6b2b      	ldr	r3, [r5, #48]	@ 0x30
 80016f4:	f043 0304 	orr.w	r3, r3, #4
 80016f8:	632b      	str	r3, [r5, #48]	@ 0x30
 80016fa:	6b2b      	ldr	r3, [r5, #48]	@ 0x30
 80016fc:	f003 0304 	and.w	r3, r3, #4
 8001700:	9303      	str	r3, [sp, #12]
 8001702:	9b03      	ldr	r3, [sp, #12]
  __HAL_RCC_GPIOA_CLK_ENABLE();
 8001704:	9404      	str	r4, [sp, #16]
 8001706:	6b2b      	ldr	r3, [r5, #48]	@ 0x30
  HAL_GPIO_WritePin(GPIOE, GPIO_PIN_4|GPIO_PIN_5, GPIO_PIN_SET);
 8001708:	2201      	movs	r2, #1
  __HAL_RCC_GPIOA_CLK_ENABLE();
 800170a:	4313      	orrs	r3, r2
 800170c:	632b      	str	r3, [r5, #48]	@ 0x30
 800170e:	6b2b      	ldr	r3, [r5, #48]	@ 0x30
 8001710:	4013      	ands	r3, r2
 8001712:	9304      	str	r3, [sp, #16]
 8001714:	9b04      	ldr	r3, [sp, #16]
  __HAL_RCC_GPIOB_CLK_ENABLE();
 8001716:	9405      	str	r4, [sp, #20]
 8001718:	6b2b      	ldr	r3, [r5, #48]	@ 0x30
 800171a:	f043 0302 	orr.w	r3, r3, #2
 800171e:	632b      	str	r3, [r5, #48]	@ 0x30
 8001720:	6b2b      	ldr	r3, [r5, #48]	@ 0x30
 8001722:	f003 0302 	and.w	r3, r3, #2
 8001726:	9305      	str	r3, [sp, #20]
  HAL_GPIO_WritePin(GPIOE, GPIO_PIN_4|GPIO_PIN_5, GPIO_PIN_SET);
 8001728:	2130      	movs	r1, #48	@ 0x30
  __HAL_RCC_GPIOB_CLK_ENABLE();
 800172a:	9b05      	ldr	r3, [sp, #20]
  GPIO_InitStruct.Mode = GPIO_MODE_OUTPUT_PP;
 800172c:	2601      	movs	r6, #1
  HAL_GPIO_WritePin(GPIOE, GPIO_PIN_4|GPIO_PIN_5, GPIO_PIN_SET);
 800172e:	f001 f891 	bl	8002854 <HAL_GPIO_WritePin>
  GPIO_InitStruct.Mode = GPIO_MODE_OUTPUT_PP;
 8001732:	2330      	movs	r3, #48	@ 0x30
  HAL_GPIO_Init(GPIOE, &GPIO_InitStruct);
 8001734:	4833      	ldr	r0, [pc, #204]	@ (8001804 <main+0x144>)
 8001736:	a906      	add	r1, sp, #24
  GPIO_InitStruct.Mode = GPIO_MODE_OUTPUT_PP;
 8001738:	e9cd 3606 	strd	r3, r6, [sp, #24]
  GPIO_InitStruct.Speed = GPIO_SPEED_FREQ_LOW;
 800173c:	e9cd 4408 	strd	r4, r4, [sp, #32]
  HAL_GPIO_Init(GPIOE, &GPIO_InitStruct);
 8001740:	f000 fe9e 	bl	8002480 <HAL_GPIO_Init>
  __HAL_RCC_DMA1_CLK_ENABLE();
 8001744:	9401      	str	r4, [sp, #4]
 8001746:	6b2b      	ldr	r3, [r5, #48]	@ 0x30
 8001748:	f443 1300 	orr.w	r3, r3, #2097152	@ 0x200000
 800174c:	632b      	str	r3, [r5, #48]	@ 0x30
 800174e:	6b2b      	ldr	r3, [r5, #48]	@ 0x30
 8001750:	f403 1300 	and.w	r3, r3, #2097152	@ 0x200000
  HAL_NVIC_SetPriority(DMA1_Stream4_IRQn, 0, 0);
 8001754:	4622      	mov	r2, r4
  __HAL_RCC_DMA1_CLK_ENABLE();
 8001756:	9301      	str	r3, [sp, #4]
  HAL_NVIC_SetPriority(DMA1_Stream4_IRQn, 0, 0);
 8001758:	4621      	mov	r1, r4
 800175a:	200f      	movs	r0, #15
  __HAL_RCC_DMA1_CLK_ENABLE();
 800175c:	9b01      	ldr	r3, [sp, #4]
  HAL_NVIC_SetPriority(DMA1_Stream4_IRQn, 0, 0);
 800175e:	f000 fc73 	bl	8002048 <HAL_NVIC_SetPriority>
  HAL_NVIC_EnableIRQ(DMA1_Stream4_IRQn);
 8001762:	200f      	movs	r0, #15
 8001764:	f000 fcac 	bl	80020c0 <HAL_NVIC_EnableIRQ>
  hi2s2.Instance = SPI2;
 8001768:	4827      	ldr	r0, [pc, #156]	@ (8001808 <main+0x148>)
  hi2s2.Init.Mode = I2S_MODE_MASTER_TX;
 800176a:	4a28      	ldr	r2, [pc, #160]	@ (800180c <main+0x14c>)
  hi2s2.Init.FullDuplexMode = I2S_FULLDUPLEXMODE_DISABLE;
 800176c:	6204      	str	r4, [r0, #32]
  hi2s2.Init.Mode = I2S_MODE_MASTER_TX;
 800176e:	f44f 7300 	mov.w	r3, #512	@ 0x200
 8001772:	e9c0 2300 	strd	r2, r3, [r0]
  hi2s2.Init.AudioFreq = I2S_AUDIOFREQ_48K;
 8001776:	f64b 3380 	movw	r3, #48000	@ 0xbb80
  hi2s2.Init.DataFormat = I2S_DATAFORMAT_16B;
 800177a:	e9c0 4402 	strd	r4, r4, [r0, #8]
  hi2s2.Init.AudioFreq = I2S_AUDIOFREQ_48K;
 800177e:	e9c0 4304 	strd	r4, r3, [r0, #16]
  hi2s2.Init.ClockSource = I2S_CLOCK_PLL;
 8001782:	e9c0 4406 	strd	r4, r4, [r0, #24]
  if (HAL_I2S_Init(&hi2s2) != HAL_OK)
 8001786:	f001 f869 	bl	800285c <HAL_I2S_Init>
 800178a:	b108      	cbz	r0, 8001790 <main+0xd0>
 800178c:	b672      	cpsid	i
  while (1)
 800178e:	e7fe      	b.n	800178e <main+0xce>
  hadc1.Instance = ADC1;
 8001790:	4d1f      	ldr	r5, [pc, #124]	@ (8001810 <main+0x150>)
 8001792:	4604      	mov	r4, r0
  MX_USB_DEVICE_Init();
 8001794:	f004 fd30 	bl	80061f8 <MX_USB_DEVICE_Init>
  hadc1.Instance = ADC1;
 8001798:	4b1e      	ldr	r3, [pc, #120]	@ (8001814 <main+0x154>)
  hadc1.Init.ExternalTrigConv = ADC_SOFTWARE_START;
 800179a:	4a1f      	ldr	r2, [pc, #124]	@ (8001818 <main+0x158>)
  hadc1.Instance = ADC1;
 800179c:	602b      	str	r3, [r5, #0]
  hadc1.Init.ClockPrescaler = ADC_CLOCK_SYNC_PCLK_DIV4;
 800179e:	f44f 3380 	mov.w	r3, #65536	@ 0x10000
  hadc1.Init.Resolution = ADC_RESOLUTION_12B;
 80017a2:	e9c5 3401 	strd	r3, r4, [r5, #4]
  if (HAL_ADC_Init(&hadc1) != HAL_OK)
 80017a6:	4628      	mov	r0, r5
  hadc1.Init.ExternalTrigConv = ADC_SOFTWARE_START;
 80017a8:	2300      	movs	r3, #0
 80017aa:	e9c5 230a 	strd	r2, r3, [r5, #40]	@ 0x28
  ADC_ChannelConfTypeDef sConfig = {0};
 80017ae:	e9cd 4406 	strd	r4, r4, [sp, #24]
 80017b2:	e9cd 4408 	strd	r4, r4, [sp, #32]
  hadc1.Init.ScanConvMode = DISABLE;
 80017b6:	612c      	str	r4, [r5, #16]
  hadc1.Init.ContinuousConvMode = DISABLE;
 80017b8:	762c      	strb	r4, [r5, #24]
  hadc1.Init.DiscontinuousConvMode = DISABLE;
 80017ba:	f885 4020 	strb.w	r4, [r5, #32]
  hadc1.Init.DataAlign = ADC_DATAALIGN_RIGHT;
 80017be:	60ec      	str	r4, [r5, #12]
  hadc1.Init.DMAContinuousRequests = DISABLE;
 80017c0:	f885 4030 	strb.w	r4, [r5, #48]	@ 0x30
  hadc1.Init.NbrOfConversion = 1;
 80017c4:	61ee      	str	r6, [r5, #28]
  hadc1.Init.EOCSelection = ADC_EOC_SINGLE_CONV;
 80017c6:	616e      	str	r6, [r5, #20]
  if (HAL_ADC_Init(&hadc1) != HAL_OK)
 80017c8:	f000 f9da 	bl	8001b80 <HAL_ADC_Init>
 80017cc:	4603      	mov	r3, r0
 80017ce:	b108      	cbz	r0, 80017d4 <main+0x114>
 80017d0:	b672      	cpsid	i
  while (1)
 80017d2:	e7fe      	b.n	80017d2 <main+0x112>
  sConfig.Channel = ADC_CHANNEL_6;
 80017d4:	ed9f 7b08 	vldr	d7, [pc, #32]	@ 80017f8 <main+0x138>
  if (HAL_ADC_ConfigChannel(&hadc1, &sConfig) != HAL_OK)
 80017d8:	a906      	add	r1, sp, #24
 80017da:	4628      	mov	r0, r5
  sConfig.Channel = ADC_CHANNEL_6;
 80017dc:	ed8d 7b06 	vstr	d7, [sp, #24]
  sConfig.SamplingTime = ADC_SAMPLETIME_3CYCLES;
 80017e0:	9308      	str	r3, [sp, #32]
  if (HAL_ADC_ConfigChannel(&hadc1, &sConfig) != HAL_OK)
 80017e2:	f000 fb77 	bl	8001ed4 <HAL_ADC_ConfigChannel>
 80017e6:	b108      	cbz	r0, 80017ec <main+0x12c>
 80017e8:	b672      	cpsid	i
  while (1)
 80017ea:	e7fe      	b.n	80017ea <main+0x12a>
  App_Init();
 80017ec:	f7fe ff70 	bl	80006d0 <App_Init>
	  App_Loop();
 80017f0:	f7fe ffaa 	bl	8000748 <App_Loop>
  while (1)
 80017f4:	e7fc      	b.n	80017f0 <main+0x130>
 80017f6:	bf00      	nop
 80017f8:	00000006 	.word	0x00000006
 80017fc:	00000001 	.word	0x00000001
 8001800:	40023800 	.word	0x40023800
 8001804:	40021000 	.word	0x40021000
 8001808:	200185f8 	.word	0x200185f8
 800180c:	40003800 	.word	0x40003800
 8001810:	20018640 	.word	0x20018640
 8001814:	40012000 	.word	0x40012000
 8001818:	0f000001 	.word	0x0f000001

0800181c <Error_Handler>:
 800181c:	b672      	cpsid	i
  while (1)
 800181e:	e7fe      	b.n	800181e <Error_Handler+0x2>

08001820 <HAL_MspInit>:
/* USER CODE END 0 */
/**
  * Initializes the Global MSP.
  */
void HAL_MspInit(void)
{
 8001820:	b082      	sub	sp, #8

  /* USER CODE BEGIN MspInit 0 */

  /* USER CODE END MspInit 0 */

  __HAL_RCC_SYSCFG_CLK_ENABLE();
 8001822:	4b0c      	ldr	r3, [pc, #48]	@ (8001854 <HAL_MspInit+0x34>)
 8001824:	2100      	movs	r1, #0
 8001826:	9100      	str	r1, [sp, #0]
 8001828:	6c5a      	ldr	r2, [r3, #68]	@ 0x44
 800182a:	f442 4280 	orr.w	r2, r2, #16384	@ 0x4000
 800182e:	645a      	str	r2, [r3, #68]	@ 0x44
 8001830:	6c5a      	ldr	r2, [r3, #68]	@ 0x44
 8001832:	f402 4280 	and.w	r2, r2, #16384	@ 0x4000
 8001836:	9200      	str	r2, [sp, #0]
 8001838:	9a00      	ldr	r2, [sp, #0]
  __HAL_RCC_PWR_CLK_ENABLE();
 800183a:	9101      	str	r1, [sp, #4]
 800183c:	6c1a      	ldr	r2, [r3, #64]	@ 0x40
 800183e:	f042 5280 	orr.w	r2, r2, #268435456	@ 0x10000000
 8001842:	641a      	str	r2, [r3, #64]	@ 0x40
 8001844:	6c1b      	ldr	r3, [r3, #64]	@ 0x40
 8001846:	f003 5380 	and.w	r3, r3, #268435456	@ 0x10000000
 800184a:	9301      	str	r3, [sp, #4]
 800184c:	9b01      	ldr	r3, [sp, #4]
  /* System interrupt init*/

  /* USER CODE BEGIN MspInit 1 */

  /* USER CODE END MspInit 1 */
}
 800184e:	b002      	add	sp, #8
 8001850:	4770      	bx	lr
 8001852:	bf00      	nop
 8001854:	40023800 	.word	0x40023800

08001858 <HAL_ADC_MspInit>:
  * This function configures the hardware resources used in this example
  * @param hadc: ADC handle pointer
  * @retval None
  */
void HAL_ADC_MspInit(ADC_HandleTypeDef* hadc)
{
 8001858:	b510      	push	{r4, lr}
  GPIO_InitTypeDef GPIO_InitStruct = {0};
  if(hadc->Instance==ADC1)
 800185a:	4b29      	ldr	r3, [pc, #164]	@ (8001900 <HAL_ADC_MspInit+0xa8>)
 800185c:	6802      	ldr	r2, [r0, #0]
{
 800185e:	b08a      	sub	sp, #40	@ 0x28
  GPIO_InitTypeDef GPIO_InitStruct = {0};
 8001860:	2400      	movs	r4, #0
  if(hadc->Instance==ADC1)
 8001862:	429a      	cmp	r2, r3
  GPIO_InitTypeDef GPIO_InitStruct = {0};
 8001864:	e9cd 4404 	strd	r4, r4, [sp, #16]
 8001868:	e9cd 4406 	strd	r4, r4, [sp, #24]
 800186c:	9408      	str	r4, [sp, #32]
  if(hadc->Instance==ADC1)
 800186e:	d001      	beq.n	8001874 <HAL_ADC_MspInit+0x1c>

    /* USER CODE END ADC1_MspInit 1 */

  }

}
 8001870:	b00a      	add	sp, #40	@ 0x28
 8001872:	bd10      	pop	{r4, pc}
    __HAL_RCC_ADC1_CLK_ENABLE();
 8001874:	f503 338c 	add.w	r3, r3, #71680	@ 0x11800
 8001878:	9400      	str	r4, [sp, #0]
 800187a:	6c5a      	ldr	r2, [r3, #68]	@ 0x44
    HAL_GPIO_Init(GPIOA, &GPIO_InitStruct);
 800187c:	4821      	ldr	r0, [pc, #132]	@ (8001904 <HAL_ADC_MspInit+0xac>)
    __HAL_RCC_ADC1_CLK_ENABLE();
 800187e:	f442 7280 	orr.w	r2, r2, #256	@ 0x100
 8001882:	645a      	str	r2, [r3, #68]	@ 0x44
 8001884:	6c5a      	ldr	r2, [r3, #68]	@ 0x44
 8001886:	f402 7280 	and.w	r2, r2, #256	@ 0x100
 800188a:	9200      	str	r2, [sp, #0]
 800188c:	9a00      	ldr	r2, [sp, #0]
    __HAL_RCC_GPIOA_CLK_ENABLE();
 800188e:	9401      	str	r4, [sp, #4]
 8001890:	6b1a      	ldr	r2, [r3, #48]	@ 0x30
 8001892:	f042 0201 	orr.w	r2, r2, #1
 8001896:	631a      	str	r2, [r3, #48]	@ 0x30
 8001898:	6b1a      	ldr	r2, [r3, #48]	@ 0x30
 800189a:	f002 0201 	and.w	r2, r2, #1
 800189e:	9201      	str	r2, [sp, #4]
 80018a0:	9a01      	ldr	r2, [sp, #4]
    __HAL_RCC_GPIOC_CLK_ENABLE();
 80018a2:	9402      	str	r4, [sp, #8]
 80018a4:	6b1a      	ldr	r2, [r3, #48]	@ 0x30
 80018a6:	f042 0204 	orr.w	r2, r2, #4
 80018aa:	631a      	str	r2, [r3, #48]	@ 0x30
 80018ac:	6b1a      	ldr	r2, [r3, #48]	@ 0x30
 80018ae:	f002 0204 	and.w	r2, r2, #4
 80018b2:	9202      	str	r2, [sp, #8]
 80018b4:	9a02      	ldr	r2, [sp, #8]
    __HAL_RCC_GPIOB_CLK_ENABLE();
 80018b6:	9403      	str	r4, [sp, #12]
 80018b8:	6b1a      	ldr	r2, [r3, #48]	@ 0x30
 80018ba:	f042 0202 	orr.w	r2, r2, #2
 80018be:	631a      	str	r2, [r3, #48]	@ 0x30
 80018c0:	6b1b      	ldr	r3, [r3, #48]	@ 0x30
 80018c2:	f003 0302 	and.w	r3, r3, #2
 80018c6:	9303      	str	r3, [sp, #12]
    GPIO_InitStruct.Pin = GPIO_PIN_6|GPIO_PIN_7;
 80018c8:	22c0      	movs	r2, #192	@ 0xc0
    HAL_GPIO_Init(GPIOA, &GPIO_InitStruct);
 80018ca:	a904      	add	r1, sp, #16
    GPIO_InitStruct.Pin = GPIO_PIN_6|GPIO_PIN_7;
 80018cc:	2303      	movs	r3, #3
 80018ce:	e9cd 2304 	strd	r2, r3, [sp, #16]
    __HAL_RCC_GPIOB_CLK_ENABLE();
 80018d2:	9b03      	ldr	r3, [sp, #12]
    HAL_GPIO_Init(GPIOA, &GPIO_InitStruct);
 80018d4:	f000 fdd4 	bl	8002480 <HAL_GPIO_Init>
    GPIO_InitStruct.Pin = GPIO_PIN_4|GPIO_PIN_5;
 80018d8:	2230      	movs	r2, #48	@ 0x30
 80018da:	2303      	movs	r3, #3
    HAL_GPIO_Init(GPIOC, &GPIO_InitStruct);
 80018dc:	a904      	add	r1, sp, #16
 80018de:	480a      	ldr	r0, [pc, #40]	@ (8001908 <HAL_ADC_MspInit+0xb0>)
    GPIO_InitStruct.Pull = GPIO_NOPULL;
 80018e0:	9406      	str	r4, [sp, #24]
    GPIO_InitStruct.Pin = GPIO_PIN_4|GPIO_PIN_5;
 80018e2:	e9cd 2304 	strd	r2, r3, [sp, #16]
    HAL_GPIO_Init(GPIOC, &GPIO_InitStruct);
 80018e6:	f000 fdcb 	bl	8002480 <HAL_GPIO_Init>
    GPIO_InitStruct.Pin = GPIO_PIN_0|GPIO_PIN_1;
 80018ea:	2203      	movs	r2, #3
 80018ec:	2303      	movs	r3, #3
    HAL_GPIO_Init(GPIOB, &GPIO_InitStruct);
 80018ee:	4807      	ldr	r0, [pc, #28]	@ (800190c <HAL_ADC_MspInit+0xb4>)
    GPIO_InitStruct.Pull = GPIO_NOPULL;
 80018f0:	9406      	str	r4, [sp, #24]
    HAL_GPIO_Init(GPIOB, &GPIO_InitStruct);
 80018f2:	a904      	add	r1, sp, #16
    GPIO_InitStruct.Pin = GPIO_PIN_0|GPIO_PIN_1;
 80018f4:	e9cd 2304 	strd	r2, r3, [sp, #16]
    HAL_GPIO_Init(GPIOB, &GPIO_InitStruct);
 80018f8:	f000 fdc2 	bl	8002480 <HAL_GPIO_Init>
}
 80018fc:	b00a      	add	sp, #40	@ 0x28
 80018fe:	bd10      	pop	{r4, pc}
 8001900:	40012000 	.word	0x40012000
 8001904:	40020000 	.word	0x40020000
 8001908:	40020800 	.word	0x40020800
 800190c:	40020400 	.word	0x40020400

08001910 <HAL_I2S_MspInit>:
  * This function configures the hardware resources used in this example
  * @param hi2s: I2S handle pointer
  * @retval None
  */
void HAL_I2S_MspInit(I2S_HandleTypeDef* hi2s)
{
 8001910:	b5f0      	push	{r4, r5, r6, r7, lr}
  GPIO_InitTypeDef GPIO_InitStruct = {0};
  RCC_PeriphCLKInitTypeDef PeriphClkInitStruct = {0};
  if(hi2s->Instance==SPI2)
 8001912:	4a3b      	ldr	r2, [pc, #236]	@ (8001a00 <HAL_I2S_MspInit+0xf0>)
 8001914:	6801      	ldr	r1, [r0, #0]
{
 8001916:	b08f      	sub	sp, #60	@ 0x3c
  GPIO_InitTypeDef GPIO_InitStruct = {0};
 8001918:	2300      	movs	r3, #0
  if(hi2s->Instance==SPI2)
 800191a:	4291      	cmp	r1, r2
  GPIO_InitTypeDef GPIO_InitStruct = {0};
 800191c:	e9cd 3309 	strd	r3, r3, [sp, #36]	@ 0x24
 8001920:	e9cd 330b 	strd	r3, r3, [sp, #44]	@ 0x2c
 8001924:	930d      	str	r3, [sp, #52]	@ 0x34
  RCC_PeriphCLKInitTypeDef PeriphClkInitStruct = {0};
 8001926:	9307      	str	r3, [sp, #28]
  if(hi2s->Instance==SPI2)
 8001928:	d001      	beq.n	800192e <HAL_I2S_MspInit+0x1e>

    /* USER CODE END SPI2_MspInit 1 */

  }

}
 800192a:	b00f      	add	sp, #60	@ 0x3c
 800192c:	bdf0      	pop	{r4, r5, r6, r7, pc}
    PeriphClkInitStruct.PeriphClockSelection = RCC_PERIPHCLK_I2S;
 800192e:	2348      	movs	r3, #72	@ 0x48
 8001930:	2201      	movs	r2, #1
 8001932:	e9cd 2304 	strd	r2, r3, [sp, #16]
    PeriphClkInitStruct.PLLI2S.PLLI2SR = 3;
 8001936:	4604      	mov	r4, r0
 8001938:	2303      	movs	r3, #3
    if (HAL_RCCEx_PeriphCLKConfig(&PeriphClkInitStruct) != HAL_OK)
 800193a:	a804      	add	r0, sp, #16
    PeriphClkInitStruct.PLLI2S.PLLI2SR = 3;
 800193c:	9306      	str	r3, [sp, #24]
    if (HAL_RCCEx_PeriphCLKConfig(&PeriphClkInitStruct) != HAL_OK)
 800193e:	f002 feb7 	bl	80046b0 <HAL_RCCEx_PeriphCLKConfig>
 8001942:	2800      	cmp	r0, #0
 8001944:	d155      	bne.n	80019f2 <HAL_I2S_MspInit+0xe2>
    __HAL_RCC_SPI2_CLK_ENABLE();
 8001946:	4b2f      	ldr	r3, [pc, #188]	@ (8001a04 <HAL_I2S_MspInit+0xf4>)
    HAL_GPIO_Init(GPIOC, &GPIO_InitStruct);
 8001948:	482f      	ldr	r0, [pc, #188]	@ (8001a08 <HAL_I2S_MspInit+0xf8>)
    __HAL_RCC_SPI2_CLK_ENABLE();
 800194a:	2600      	movs	r6, #0
 800194c:	9601      	str	r6, [sp, #4]
 800194e:	6c1a      	ldr	r2, [r3, #64]	@ 0x40
 8001950:	f442 4280 	orr.w	r2, r2, #16384	@ 0x4000
 8001954:	641a      	str	r2, [r3, #64]	@ 0x40
 8001956:	6c1a      	ldr	r2, [r3, #64]	@ 0x40
 8001958:	f402 4280 	and.w	r2, r2, #16384	@ 0x4000
 800195c:	9201      	str	r2, [sp, #4]
 800195e:	9a01      	ldr	r2, [sp, #4]
    __HAL_RCC_GPIOC_CLK_ENABLE();
 8001960:	9602      	str	r6, [sp, #8]
 8001962:	6b1a      	ldr	r2, [r3, #48]	@ 0x30
 8001964:	f042 0204 	orr.w	r2, r2, #4
 8001968:	631a      	str	r2, [r3, #48]	@ 0x30
 800196a:	6b1a      	ldr	r2, [r3, #48]	@ 0x30
 800196c:	f002 0204 	and.w	r2, r2, #4
 8001970:	9202      	str	r2, [sp, #8]
 8001972:	9a02      	ldr	r2, [sp, #8]
    __HAL_RCC_GPIOB_CLK_ENABLE();
 8001974:	9603      	str	r6, [sp, #12]
 8001976:	6b1a      	ldr	r2, [r3, #48]	@ 0x30
 8001978:	f042 0202 	orr.w	r2, r2, #2
 800197c:	631a      	str	r2, [r3, #48]	@ 0x30
 800197e:	6b1b      	ldr	r3, [r3, #48]	@ 0x30
    GPIO_InitStruct.Pull = GPIO_NOPULL;
 8001980:	960b      	str	r6, [sp, #44]	@ 0x2c
    __HAL_RCC_GPIOB_CLK_ENABLE();
 8001982:	f003 0302 	and.w	r3, r3, #2
 8001986:	9303      	str	r3, [sp, #12]
    GPIO_InitStruct.Alternate = GPIO_AF5_SPI2;
 8001988:	2505      	movs	r5, #5
    GPIO_InitStruct.Pin = GPIO_PIN_3;
 800198a:	2308      	movs	r3, #8
    GPIO_InitStruct.Mode = GPIO_MODE_AF_PP;
 800198c:	2702      	movs	r7, #2
    HAL_GPIO_Init(GPIOC, &GPIO_InitStruct);
 800198e:	a909      	add	r1, sp, #36	@ 0x24
    __HAL_RCC_GPIOB_CLK_ENABLE();
 8001990:	9a03      	ldr	r2, [sp, #12]
    GPIO_InitStruct.Alternate = GPIO_AF5_SPI2;
 8001992:	950d      	str	r5, [sp, #52]	@ 0x34
    GPIO_InitStruct.Mode = GPIO_MODE_AF_PP;
 8001994:	e9cd 3709 	strd	r3, r7, [sp, #36]	@ 0x24
    GPIO_InitStruct.Speed = GPIO_SPEED_FREQ_LOW;
 8001998:	960c      	str	r6, [sp, #48]	@ 0x30
    HAL_GPIO_Init(GPIOC, &GPIO_InitStruct);
 800199a:	f000 fd71 	bl	8002480 <HAL_GPIO_Init>
    GPIO_InitStruct.Pin = GPIO_PIN_10|GPIO_PIN_12;
 800199e:	f44f 53a0 	mov.w	r3, #5120	@ 0x1400
    HAL_GPIO_Init(GPIOB, &GPIO_InitStruct);
 80019a2:	481a      	ldr	r0, [pc, #104]	@ (8001a0c <HAL_I2S_MspInit+0xfc>)
    GPIO_InitStruct.Alternate = GPIO_AF5_SPI2;
 80019a4:	950d      	str	r5, [sp, #52]	@ 0x34
    HAL_GPIO_Init(GPIOB, &GPIO_InitStruct);
 80019a6:	a909      	add	r1, sp, #36	@ 0x24
    hdma_spi2_tx.Instance = DMA1_Stream4;
 80019a8:	4d19      	ldr	r5, [pc, #100]	@ (8001a10 <HAL_I2S_MspInit+0x100>)
    GPIO_InitStruct.Pin = GPIO_PIN_10|GPIO_PIN_12;
 80019aa:	9309      	str	r3, [sp, #36]	@ 0x24
    GPIO_InitStruct.Speed = GPIO_SPEED_FREQ_LOW;
 80019ac:	e9cd 660b 	strd	r6, r6, [sp, #44]	@ 0x2c
    GPIO_InitStruct.Mode = GPIO_MODE_AF_PP;
 80019b0:	970a      	str	r7, [sp, #40]	@ 0x28
    HAL_GPIO_Init(GPIOB, &GPIO_InitStruct);
 80019b2:	f000 fd65 	bl	8002480 <HAL_GPIO_Init>
    hdma_spi2_tx.Instance = DMA1_Stream4;
 80019b6:	4a17      	ldr	r2, [pc, #92]	@ (8001a14 <HAL_I2S_MspInit+0x104>)
    hdma_spi2_tx.Init.Direction = DMA_MEMORY_TO_PERIPH;
 80019b8:	2340      	movs	r3, #64	@ 0x40
    hdma_spi2_tx.Init.Channel = DMA_CHANNEL_0;
 80019ba:	e9c5 2600 	strd	r2, r6, [r5]
    hdma_spi2_tx.Init.Direction = DMA_MEMORY_TO_PERIPH;
 80019be:	60ab      	str	r3, [r5, #8]
    hdma_spi2_tx.Init.MemInc = DMA_MINC_ENABLE;
 80019c0:	f44f 6280 	mov.w	r2, #1024	@ 0x400
    hdma_spi2_tx.Init.PeriphDataAlignment = DMA_PDATAALIGN_HALFWORD;
 80019c4:	f44f 6300 	mov.w	r3, #2048	@ 0x800
    hdma_spi2_tx.Init.MemInc = DMA_MINC_ENABLE;
 80019c8:	e9c5 6203 	strd	r6, r2, [r5, #12]
    hdma_spi2_tx.Init.PeriphDataAlignment = DMA_PDATAALIGN_HALFWORD;
 80019cc:	616b      	str	r3, [r5, #20]
    hdma_spi2_tx.Init.Mode = DMA_CIRCULAR;
 80019ce:	f44f 5200 	mov.w	r2, #8192	@ 0x2000
 80019d2:	f44f 7380 	mov.w	r3, #256	@ 0x100
 80019d6:	e9c5 2306 	strd	r2, r3, [r5, #24]
    if (HAL_DMA_Init(&hdma_spi2_tx) != HAL_OK)
 80019da:	4628      	mov	r0, r5
    hdma_spi2_tx.Init.Priority = DMA_PRIORITY_HIGH;
 80019dc:	f44f 3300 	mov.w	r3, #131072	@ 0x20000
    hdma_spi2_tx.Init.FIFOMode = DMA_FIFOMODE_DISABLE;
 80019e0:	e9c5 3608 	strd	r3, r6, [r5, #32]
    if (HAL_DMA_Init(&hdma_spi2_tx) != HAL_OK)
 80019e4:	f000 fba6 	bl	8002134 <HAL_DMA_Init>
 80019e8:	b930      	cbnz	r0, 80019f8 <HAL_I2S_MspInit+0xe8>
    __HAL_LINKDMA(hi2s,hdmatx,hdma_spi2_tx);
 80019ea:	63a5      	str	r5, [r4, #56]	@ 0x38
 80019ec:	63ac      	str	r4, [r5, #56]	@ 0x38
}
 80019ee:	b00f      	add	sp, #60	@ 0x3c
 80019f0:	bdf0      	pop	{r4, r5, r6, r7, pc}
      Error_Handler();
 80019f2:	f7ff ff13 	bl	800181c <Error_Handler>
 80019f6:	e7a6      	b.n	8001946 <HAL_I2S_MspInit+0x36>
      Error_Handler();
 80019f8:	f7ff ff10 	bl	800181c <Error_Handler>
 80019fc:	e7f5      	b.n	80019ea <HAL_I2S_MspInit+0xda>
 80019fe:	bf00      	nop
 8001a00:	40003800 	.word	0x40003800
 8001a04:	40023800 	.word	0x40023800
 8001a08:	40020800 	.word	0x40020800
 8001a0c:	40020400 	.word	0x40020400
 8001a10:	20018598 	.word	0x20018598
 8001a14:	40026070 	.word	0x40026070

08001a18 <NMI_Handler>:
{
  /* USER CODE BEGIN NonMaskableInt_IRQn 0 */

  /* USER CODE END NonMaskableInt_IRQn 0 */
  /* USER CODE BEGIN NonMaskableInt_IRQn 1 */
   while (1)
 8001a18:	e7fe      	b.n	8001a18 <NMI_Handler>
 8001a1a:	bf00      	nop

08001a1c <HardFault_Handler>:
void HardFault_Handler(void)
{
  /* USER CODE BEGIN HardFault_IRQn 0 */

  /* USER CODE END HardFault_IRQn 0 */
  while (1)
 8001a1c:	e7fe      	b.n	8001a1c <HardFault_Handler>
 8001a1e:	bf00      	nop

08001a20 <MemManage_Handler>:
void MemManage_Handler(void)
{
  /* USER CODE BEGIN MemoryManagement_IRQn 0 */

  /* USER CODE END MemoryManagement_IRQn 0 */
  while (1)
 8001a20:	e7fe      	b.n	8001a20 <MemManage_Handler>
 8001a22:	bf00      	nop

08001a24 <BusFault_Handler>:
void BusFault_Handler(void)
{
  /* USER CODE BEGIN BusFault_IRQn 0 */

  /* USER CODE END BusFault_IRQn 0 */
  while (1)
 8001a24:	e7fe      	b.n	8001a24 <BusFault_Handler>
 8001a26:	bf00      	nop

08001a28 <UsageFault_Handler>:
void UsageFault_Handler(void)
{
  /* USER CODE BEGIN UsageFault_IRQn 0 */

  /* USER CODE END UsageFault_IRQn 0 */
  while (1)
 8001a28:	e7fe      	b.n	8001a28 <UsageFault_Handler>
 8001a2a:	bf00      	nop

08001a2c <SVC_Handler>:

  /* USER CODE END SVCall_IRQn 0 */
  /* USER CODE BEGIN SVCall_IRQn 1 */

  /* USER CODE END SVCall_IRQn 1 */
}
 8001a2c:	4770      	bx	lr
 8001a2e:	bf00      	nop

08001a30 <DebugMon_Handler>:

/**
  * @brief This function handles Debug monitor.
  */
void DebugMon_Handler(void)
 8001a30:	4770      	bx	lr
 8001a32:	bf00      	nop

08001a34 <PendSV_Handler>:
}

/**
  * @brief This function handles Pendable request for system service.
  */
void PendSV_Handler(void)
 8001a34:	4770      	bx	lr
 8001a36:	bf00      	nop

08001a38 <SysTick_Handler>:
void SysTick_Handler(void)
{
  /* USER CODE BEGIN SysTick_IRQn 0 */

  /* USER CODE END SysTick_IRQn 0 */
  HAL_IncTick();
 8001a38:	f000 b87e 	b.w	8001b38 <HAL_IncTick>

08001a3c <DMA1_Stream4_IRQHandler>:
void DMA1_Stream4_IRQHandler(void)
{
  /* USER CODE BEGIN DMA1_Stream4_IRQn 0 */

  /* USER CODE END DMA1_Stream4_IRQn 0 */
  HAL_DMA_IRQHandler(&hdma_spi2_tx);
 8001a3c:	4801      	ldr	r0, [pc, #4]	@ (8001a44 <DMA1_Stream4_IRQHandler+0x8>)
 8001a3e:	f000 bc49 	b.w	80022d4 <HAL_DMA_IRQHandler>
 8001a42:	bf00      	nop
 8001a44:	20018598 	.word	0x20018598

08001a48 <OTG_FS_IRQHandler>:
void OTG_FS_IRQHandler(void)
{
  /* USER CODE BEGIN OTG_FS_IRQn 0 */

  /* USER CODE END OTG_FS_IRQn 0 */
  HAL_PCD_IRQHandler(&hpcd_USB_OTG_FS);
 8001a48:	4801      	ldr	r0, [pc, #4]	@ (8001a50 <OTG_FS_IRQHandler+0x8>)
 8001a4a:	f001 bc21 	b.w	8003290 <HAL_PCD_IRQHandler>
 8001a4e:	bf00      	nop
 8001a50:	2001c7c4 	.word	0x2001c7c4

08001a54 <SystemInit>:
  */
void SystemInit(void)
{
  /* FPU settings ------------------------------------------------------------*/
  #if (__FPU_PRESENT == 1) && (__FPU_USED == 1)
    SCB->CPACR |= ((3UL << 10*2)|(3UL << 11*2));  /* set CP10 and CP11 Full Access */
 8001a54:	4a03      	ldr	r2, [pc, #12]	@ (8001a64 <SystemInit+0x10>)
 8001a56:	f8d2 3088 	ldr.w	r3, [r2, #136]	@ 0x88
 8001a5a:	f443 0370 	orr.w	r3, r3, #15728640	@ 0xf00000
 8001a5e:	f8c2 3088 	str.w	r3, [r2, #136]	@ 0x88

  /* Configure the Vector Table location -------------------------------------*/
#if defined(USER_VECT_TAB_ADDRESS)
  SCB->VTOR = VECT_TAB_BASE_ADDRESS | VECT_TAB_OFFSET; /* Vector Table Relocation in Internal SRAM */
#endif /* USER_VECT_TAB_ADDRESS */
}
 8001a62:	4770      	bx	lr
 8001a64:	e000ed00 	.word	0xe000ed00

08001a68 <Reset_Handler>:

    .section  .text.Reset_Handler
  .weak  Reset_Handler
  .type  Reset_Handler, %function
Reset_Handler:  
  ldr   sp, =_estack     /* set stack pointer */
 8001a68:	f8df d034 	ldr.w	sp, [pc, #52]	@ 8001aa0 <LoopFillZerobss+0xe>
  
/* Call the clock system initialization function.*/
  bl  SystemInit  
 8001a6c:	f7ff fff2 	bl	8001a54 <SystemInit>

/* Copy the data segment initializers from flash to SRAM */  
  ldr r0, =_sdata
 8001a70:	480c      	ldr	r0, [pc, #48]	@ (8001aa4 <LoopFillZerobss+0x12>)
  ldr r1, =_edata
 8001a72:	490d      	ldr	r1, [pc, #52]	@ (8001aa8 <LoopFillZerobss+0x16>)
  ldr r2, =_sidata
 8001a74:	4a0d      	ldr	r2, [pc, #52]	@ (8001aac <LoopFillZerobss+0x1a>)
  movs r3, #0
 8001a76:	2300      	movs	r3, #0
  b LoopCopyDataInit
 8001a78:	e002      	b.n	8001a80 <LoopCopyDataInit>

08001a7a <CopyDataInit>:

CopyDataInit:
  ldr r4, [r2, r3]
 8001a7a:	58d4      	ldr	r4, [r2, r3]
  str r4, [r0, r3]
 8001a7c:	50c4      	str	r4, [r0, r3]
  adds r3, r3, #4
 8001a7e:	3304      	adds	r3, #4

08001a80 <LoopCopyDataInit>:

LoopCopyDataInit:
  adds r4, r0, r3
 8001a80:	18c4      	adds	r4, r0, r3
  cmp r4, r1
 8001a82:	428c      	cmp	r4, r1
  bcc CopyDataInit
 8001a84:	d3f9      	bcc.n	8001a7a <CopyDataInit>
  
/* Zero fill the bss segment. */
  ldr r2, =_sbss
 8001a86:	4a0a      	ldr	r2, [pc, #40]	@ (8001ab0 <LoopFillZerobss+0x1e>)
  ldr r4, =_ebss
 8001a88:	4c0a      	ldr	r4, [pc, #40]	@ (8001ab4 <LoopFillZerobss+0x22>)
  movs r3, #0
 8001a8a:	2300      	movs	r3, #0
  b LoopFillZerobss
 8001a8c:	e001      	b.n	8001a92 <LoopFillZerobss>

08001a8e <FillZerobss>:

FillZerobss:
  str  r3, [r2]
 8001a8e:	6013      	str	r3, [r2, #0]
  adds r2, r2, #4
 8001a90:	3204      	adds	r2, #4

08001a92 <LoopFillZerobss>:

LoopFillZerobss:
  cmp r2, r4
 8001a92:	42a2      	cmp	r2, r4
  bcc FillZerobss
 8001a94:	d3fb      	bcc.n	8001a8e <FillZerobss>

/* Call static constructors */
    bl __libc_init_array
 8001a96:	f004 fe7f 	bl	8006798 <__libc_init_array>
/* Call the application's entry point.*/
  bl  main
 8001a9a:	f7ff fe11 	bl	80016c0 <main>
  bx  lr    
 8001a9e:	4770      	bx	lr
  ldr   sp, =_estack     /* set stack pointer */
 8001aa0:	20020000 	.word	0x20020000
  ldr r0, =_sdata
 8001aa4:	20000000 	.word	0x20000000
  ldr r1, =_edata
 8001aa8:	20000184 	.word	0x20000184
  ldr r2, =_sidata
 8001aac:	08007e28 	.word	0x08007e28
  ldr r2, =_sbss
 8001ab0:	20000188 	.word	0x20000188
  ldr r4, =_ebss
 8001ab4:	2001cde0 	.word	0x2001cde0

08001ab8 <ADC_IRQHandler>:
 * @retval None       
*/
    .section  .text.Default_Handler,"ax",%progbits
Default_Handler:
Infinite_Loop:
  b  Infinite_Loop
 8001ab8:	e7fe      	b.n	8001ab8 <ADC_IRQHandler>
	...

08001abc <HAL_InitTick>:
  *       implementation  in user file.
  * @param TickPriority Tick interrupt priority.
  * @retval HAL status
  */
__weak HAL_StatusTypeDef HAL_InitTick(uint32_t TickPriority)
{
 8001abc:	b538      	push	{r3, r4, r5, lr}
  /* Configure the SysTick to have interrupt in 1ms time basis*/
  if (HAL_SYSTICK_Config(SystemCoreClock / (1000U / uwTickFreq)) > 0U)
 8001abe:	4a0e      	ldr	r2, [pc, #56]	@ (8001af8 <HAL_InitTick+0x3c>)
 8001ac0:	4b0e      	ldr	r3, [pc, #56]	@ (8001afc <HAL_InitTick+0x40>)
 8001ac2:	7812      	ldrb	r2, [r2, #0]
{
 8001ac4:	4605      	mov	r5, r0
  if (HAL_SYSTICK_Config(SystemCoreClock / (1000U / uwTickFreq)) > 0U)
 8001ac6:	6818      	ldr	r0, [r3, #0]
 8001ac8:	f44f 737a 	mov.w	r3, #1000	@ 0x3e8
 8001acc:	fbb3 f3f2 	udiv	r3, r3, r2
 8001ad0:	fbb0 f0f3 	udiv	r0, r0, r3
 8001ad4:	f000 fb14 	bl	8002100 <HAL_SYSTICK_Config>
 8001ad8:	b908      	cbnz	r0, 8001ade <HAL_InitTick+0x22>
  {
    return HAL_ERROR;
  }

  /* Configure the SysTick IRQ priority */
  if (TickPriority < (1UL << __NVIC_PRIO_BITS))
 8001ada:	2d0f      	cmp	r5, #15
 8001adc:	d901      	bls.n	8001ae2 <HAL_InitTick+0x26>
    return HAL_ERROR;
 8001ade:	2001      	movs	r0, #1
    return HAL_ERROR;
  }

  /* Return function status */
  return HAL_OK;
}
 8001ae0:	bd38      	pop	{r3, r4, r5, pc}
 8001ae2:	4604      	mov	r4, r0
    HAL_NVIC_SetPriority(SysTick_IRQn, TickPriority, 0U);
 8001ae4:	4602      	mov	r2, r0
 8001ae6:	4629      	mov	r1, r5
 8001ae8:	f04f 30ff 	mov.w	r0, #4294967295
 8001aec:	f000 faac 	bl	8002048 <HAL_NVIC_SetPriority>
    uwTickPrio = TickPriority;
 8001af0:	4b03      	ldr	r3, [pc, #12]	@ (8001b00 <HAL_InitTick+0x44>)
 8001af2:	4620      	mov	r0, r4
 8001af4:	601d      	str	r5, [r3, #0]
}
 8001af6:	bd38      	pop	{r3, r4, r5, pc}
 8001af8:	2000000c 	.word	0x2000000c
 8001afc:	20000008 	.word	0x20000008
 8001b00:	20000010 	.word	0x20000010

08001b04 <HAL_Init>:
{
 8001b04:	b508      	push	{r3, lr}
  __HAL_FLASH_INSTRUCTION_CACHE_ENABLE();
 8001b06:	4b0b      	ldr	r3, [pc, #44]	@ (8001b34 <HAL_Init+0x30>)
 8001b08:	681a      	ldr	r2, [r3, #0]
 8001b0a:	f442 7200 	orr.w	r2, r2, #512	@ 0x200
 8001b0e:	601a      	str	r2, [r3, #0]
  __HAL_FLASH_DATA_CACHE_ENABLE();
 8001b10:	681a      	ldr	r2, [r3, #0]
 8001b12:	f442 6280 	orr.w	r2, r2, #1024	@ 0x400
 8001b16:	601a      	str	r2, [r3, #0]
  __HAL_FLASH_PREFETCH_BUFFER_ENABLE();
 8001b18:	681a      	ldr	r2, [r3, #0]
 8001b1a:	f442 7280 	orr.w	r2, r2, #256	@ 0x100
 8001b1e:	601a      	str	r2, [r3, #0]
  HAL_NVIC_SetPriorityGrouping(NVIC_PRIORITYGROUP_4);
 8001b20:	2003      	movs	r0, #3
 8001b22:	f000 fa7f 	bl	8002024 <HAL_NVIC_SetPriorityGrouping>
  HAL_InitTick(TICK_INT_PRIORITY);
 8001b26:	200f      	movs	r0, #15
 8001b28:	f7ff ffc8 	bl	8001abc <HAL_InitTick>
  HAL_MspInit();
 8001b2c:	f7ff fe78 	bl	8001820 <HAL_MspInit>
}
 8001b30:	2000      	movs	r0, #0
 8001b32:	bd08      	pop	{r3, pc}
 8001b34:	40023c00 	.word	0x40023c00

08001b38 <HAL_IncTick>:
  *      implementations in user file.
  * @retval None
  */
__weak void HAL_IncTick(void)
{
  uwTick += uwTickFreq;
 8001b38:	4a03      	ldr	r2, [pc, #12]	@ (8001b48 <HAL_IncTick+0x10>)
 8001b3a:	4b04      	ldr	r3, [pc, #16]	@ (8001b4c <HAL_IncTick+0x14>)
 8001b3c:	6811      	ldr	r1, [r2, #0]
 8001b3e:	781b      	ldrb	r3, [r3, #0]
 8001b40:	440b      	add	r3, r1
 8001b42:	6013      	str	r3, [r2, #0]
}
 8001b44:	4770      	bx	lr
 8001b46:	bf00      	nop
 8001b48:	20018688 	.word	0x20018688
 8001b4c:	2000000c 	.word	0x2000000c

08001b50 <HAL_GetTick>:
  *       implementations in user file.
  * @retval tick value
  */
__weak uint32_t HAL_GetTick(void)
{
  return uwTick;
 8001b50:	4b01      	ldr	r3, [pc, #4]	@ (8001b58 <HAL_GetTick+0x8>)
 8001b52:	6818      	ldr	r0, [r3, #0]
}
 8001b54:	4770      	bx	lr
 8001b56:	bf00      	nop
 8001b58:	20018688 	.word	0x20018688

08001b5c <HAL_Delay>:
  *       implementations in user file.
  * @param Delay specifies the delay time length, in milliseconds.
  * @retval None
  */
__weak void HAL_Delay(uint32_t Delay)
{
 8001b5c:	b538      	push	{r3, r4, r5, lr}
 8001b5e:	4604      	mov	r4, r0
  uint32_t tickstart = HAL_GetTick();
 8001b60:	f7ff fff6 	bl	8001b50 <HAL_GetTick>
  uint32_t wait = Delay;

  /* Add a freq to guarantee minimum wait */
  if (wait < HAL_MAX_DELAY)
 8001b64:	1c63      	adds	r3, r4, #1
  uint32_t tickstart = HAL_GetTick();
 8001b66:	4605      	mov	r5, r0
  if (wait < HAL_MAX_DELAY)
 8001b68:	d002      	beq.n	8001b70 <HAL_Delay+0x14>
  {
    wait += (uint32_t)(uwTickFreq);
 8001b6a:	4b04      	ldr	r3, [pc, #16]	@ (8001b7c <HAL_Delay+0x20>)
 8001b6c:	781b      	ldrb	r3, [r3, #0]
 8001b6e:	441c      	add	r4, r3
  }

  while((HAL_GetTick() - tickstart) < wait)
 8001b70:	f7ff ffee 	bl	8001b50 <HAL_GetTick>
 8001b74:	1b40      	subs	r0, r0, r5
 8001b76:	42a0      	cmp	r0, r4
 8001b78:	d3fa      	bcc.n	8001b70 <HAL_Delay+0x14>
  {
  }
}
 8001b7a:	bd38      	pop	{r3, r4, r5, pc}
 8001b7c:	2000000c 	.word	0x2000000c

08001b80 <HAL_ADC_Init>:
HAL_StatusTypeDef HAL_ADC_Init(ADC_HandleTypeDef *hadc)
{
  HAL_StatusTypeDef tmp_hal_status = HAL_OK;

  /* Check ADC handle */
  if (hadc == NULL)
 8001b80:	2800      	cmp	r0, #0
 8001b82:	f000 809e 	beq.w	8001cc2 <HAL_ADC_Init+0x142>
{
 8001b86:	b538      	push	{r3, r4, r5, lr}
  if (hadc->Init.ExternalTrigConv != ADC_SOFTWARE_START)
  {
    assert_param(IS_ADC_EXT_TRIG_EDGE(hadc->Init.ExternalTrigConvEdge));
  }

  if (hadc->State == HAL_ADC_STATE_RESET)
 8001b88:	6c05      	ldr	r5, [r0, #64]	@ 0x40
 8001b8a:	4604      	mov	r4, r0
 8001b8c:	b13d      	cbz	r5, 8001b9e <HAL_ADC_Init+0x1e>
    hadc->Lock = HAL_UNLOCKED;
  }

  /* Configuration of ADC parameters if previous preliminary actions are      */
  /* correctly completed.                                                     */
  if (HAL_IS_BIT_CLR(hadc->State, HAL_ADC_STATE_ERROR_INTERNAL))
 8001b8e:	6c23      	ldr	r3, [r4, #64]	@ 0x40
 8001b90:	06db      	lsls	r3, r3, #27
 8001b92:	d50c      	bpl.n	8001bae <HAL_ADC_Init+0x2e>
  {
    tmp_hal_status = HAL_ERROR;
  }

  /* Release Lock */
  __HAL_UNLOCK(hadc);
 8001b94:	2300      	movs	r3, #0
 8001b96:	f884 303c 	strb.w	r3, [r4, #60]	@ 0x3c
    tmp_hal_status = HAL_ERROR;
 8001b9a:	2001      	movs	r0, #1

  /* Return function status */
  return tmp_hal_status;
}
 8001b9c:	bd38      	pop	{r3, r4, r5, pc}
    HAL_ADC_MspInit(hadc);
 8001b9e:	f7ff fe5b 	bl	8001858 <HAL_ADC_MspInit>
    ADC_CLEAR_ERRORCODE(hadc);
 8001ba2:	6465      	str	r5, [r4, #68]	@ 0x44
  if (HAL_IS_BIT_CLR(hadc->State, HAL_ADC_STATE_ERROR_INTERNAL))
 8001ba4:	6c23      	ldr	r3, [r4, #64]	@ 0x40
    hadc->Lock = HAL_UNLOCKED;
 8001ba6:	f884 503c 	strb.w	r5, [r4, #60]	@ 0x3c
  if (HAL_IS_BIT_CLR(hadc->State, HAL_ADC_STATE_ERROR_INTERNAL))
 8001baa:	06db      	lsls	r3, r3, #27
 8001bac:	d4f2      	bmi.n	8001b94 <HAL_ADC_Init+0x14>
    ADC_STATE_CLR_SET(hadc->State,
 8001bae:	6c23      	ldr	r3, [r4, #64]	@ 0x40
  /* (Depending on STM32F4 product, there may be up to 3 ADCs and 1 common */
  /* control register)                                                    */
  tmpADC_Common = ADC_COMMON_REGISTER(hadc);

  /* Set the ADC clock prescaler */
  tmpADC_Common->CCR &= ~(ADC_CCR_ADCPRE);
 8001bb0:	4a47      	ldr	r2, [pc, #284]	@ (8001cd0 <HAL_ADC_Init+0x150>)
    ADC_STATE_CLR_SET(hadc->State,
 8001bb2:	f423 5388 	bic.w	r3, r3, #4352	@ 0x1100
 8001bb6:	f023 0302 	bic.w	r3, r3, #2
 8001bba:	f043 0302 	orr.w	r3, r3, #2
 8001bbe:	6423      	str	r3, [r4, #64]	@ 0x40
  tmpADC_Common->CCR &= ~(ADC_CCR_ADCPRE);
 8001bc0:	6851      	ldr	r1, [r2, #4]
  tmpADC_Common->CCR |=  hadc->Init.ClockPrescaler;

  /* Set ADC scan mode */
  hadc->Instance->CR1 &= ~(ADC_CR1_SCAN);
 8001bc2:	6823      	ldr	r3, [r4, #0]
  tmpADC_Common->CCR &= ~(ADC_CCR_ADCPRE);
 8001bc4:	f421 3140 	bic.w	r1, r1, #196608	@ 0x30000
 8001bc8:	6051      	str	r1, [r2, #4]
  tmpADC_Common->CCR |=  hadc->Init.ClockPrescaler;
 8001bca:	6851      	ldr	r1, [r2, #4]
 8001bcc:	6860      	ldr	r0, [r4, #4]
 8001bce:	4301      	orrs	r1, r0
 8001bd0:	6051      	str	r1, [r2, #4]
  hadc->Instance->CR1 &= ~(ADC_CR1_SCAN);
 8001bd2:	685a      	ldr	r2, [r3, #4]
  hadc->Instance->CR1 |=  ADC_CR1_SCANCONV(hadc->Init.ScanConvMode);
 8001bd4:	6920      	ldr	r0, [r4, #16]

  /* Set ADC resolution */
  hadc->Instance->CR1 &= ~(ADC_CR1_RES);
  hadc->Instance->CR1 |=  hadc->Init.Resolution;
 8001bd6:	68a1      	ldr	r1, [r4, #8]
  hadc->Instance->CR1 &= ~(ADC_CR1_SCAN);
 8001bd8:	f422 7280 	bic.w	r2, r2, #256	@ 0x100
 8001bdc:	605a      	str	r2, [r3, #4]
  hadc->Instance->CR1 |=  ADC_CR1_SCANCONV(hadc->Init.ScanConvMode);
 8001bde:	685a      	ldr	r2, [r3, #4]
 8001be0:	ea42 2200 	orr.w	r2, r2, r0, lsl #8
 8001be4:	605a      	str	r2, [r3, #4]
  hadc->Instance->CR1 &= ~(ADC_CR1_RES);
 8001be6:	685a      	ldr	r2, [r3, #4]

  /* Set ADC data alignment */
  hadc->Instance->CR2 &= ~(ADC_CR2_ALIGN);
  hadc->Instance->CR2 |= hadc->Init.DataAlign;
 8001be8:	68e0      	ldr	r0, [r4, #12]
  hadc->Instance->CR1 &= ~(ADC_CR1_RES);
 8001bea:	f022 7240 	bic.w	r2, r2, #50331648	@ 0x3000000
 8001bee:	605a      	str	r2, [r3, #4]
  hadc->Instance->CR1 |=  hadc->Init.Resolution;
 8001bf0:	685a      	ldr	r2, [r3, #4]
 8001bf2:	430a      	orrs	r2, r1
 8001bf4:	605a      	str	r2, [r3, #4]
  hadc->Instance->CR2 &= ~(ADC_CR2_ALIGN);
 8001bf6:	689a      	ldr	r2, [r3, #8]
  /* Enable external trigger if trigger selection is different of software  */
  /* start.                                                                 */
  /* Note: This configuration keeps the hardware feature of parameter       */
  /*       ExternalTrigConvEdge "trigger edge none" equivalent to           */
  /*       software start.                                                  */
  if (hadc->Init.ExternalTrigConv != ADC_SOFTWARE_START)
 8001bf8:	6aa1      	ldr	r1, [r4, #40]	@ 0x28
  hadc->Instance->CR2 &= ~(ADC_CR2_ALIGN);
 8001bfa:	f422 6200 	bic.w	r2, r2, #2048	@ 0x800
 8001bfe:	609a      	str	r2, [r3, #8]
  hadc->Instance->CR2 |= hadc->Init.DataAlign;
 8001c00:	689a      	ldr	r2, [r3, #8]
 8001c02:	4302      	orrs	r2, r0
 8001c04:	609a      	str	r2, [r3, #8]
  if (hadc->Init.ExternalTrigConv != ADC_SOFTWARE_START)
 8001c06:	4a33      	ldr	r2, [pc, #204]	@ (8001cd4 <HAL_ADC_Init+0x154>)
 8001c08:	4291      	cmp	r1, r2
  {
    /* Select external trigger to start conversion */
    hadc->Instance->CR2 &= ~(ADC_CR2_EXTSEL);
 8001c0a:	689a      	ldr	r2, [r3, #8]
  if (hadc->Init.ExternalTrigConv != ADC_SOFTWARE_START)
 8001c0c:	d051      	beq.n	8001cb2 <HAL_ADC_Init+0x132>
    hadc->Instance->CR2 &= ~(ADC_CR2_EXTSEL);
 8001c0e:	f022 6270 	bic.w	r2, r2, #251658240	@ 0xf000000
    hadc->Instance->CR2 |= hadc->Init.ExternalTrigConv;

    /* Select external trigger polarity */
    hadc->Instance->CR2 &= ~(ADC_CR2_EXTEN);
    hadc->Instance->CR2 |= hadc->Init.ExternalTrigConvEdge;
 8001c12:	6ae0      	ldr	r0, [r4, #44]	@ 0x2c
    hadc->Instance->CR2 &= ~(ADC_CR2_EXTSEL);
 8001c14:	609a      	str	r2, [r3, #8]
    hadc->Instance->CR2 |= hadc->Init.ExternalTrigConv;
 8001c16:	689a      	ldr	r2, [r3, #8]
 8001c18:	4311      	orrs	r1, r2
 8001c1a:	6099      	str	r1, [r3, #8]
    hadc->Instance->CR2 &= ~(ADC_CR2_EXTEN);
 8001c1c:	689a      	ldr	r2, [r3, #8]
 8001c1e:	f022 5240 	bic.w	r2, r2, #805306368	@ 0x30000000
 8001c22:	609a      	str	r2, [r3, #8]
    hadc->Instance->CR2 |= hadc->Init.ExternalTrigConvEdge;
 8001c24:	689a      	ldr	r2, [r3, #8]
 8001c26:	4302      	orrs	r2, r0
 8001c28:	609a      	str	r2, [r3, #8]
    hadc->Instance->CR2 &= ~(ADC_CR2_EXTSEL);
    hadc->Instance->CR2 &= ~(ADC_CR2_EXTEN);
  }

  /* Enable or disable ADC continuous conversion mode */
  hadc->Instance->CR2 &= ~(ADC_CR2_CONT);
 8001c2a:	689a      	ldr	r2, [r3, #8]
 8001c2c:	f022 0202 	bic.w	r2, r2, #2
 8001c30:	609a      	str	r2, [r3, #8]
  hadc->Instance->CR2 |= ADC_CR2_CONTINUOUS((uint32_t)hadc->Init.ContinuousConvMode);
 8001c32:	689a      	ldr	r2, [r3, #8]
 8001c34:	7e21      	ldrb	r1, [r4, #24]
 8001c36:	ea42 0241 	orr.w	r2, r2, r1, lsl #1
 8001c3a:	609a      	str	r2, [r3, #8]

  if (hadc->Init.DiscontinuousConvMode != DISABLE)
 8001c3c:	f894 2020 	ldrb.w	r2, [r4, #32]
 8001c40:	2a00      	cmp	r2, #0
 8001c42:	d040      	beq.n	8001cc6 <HAL_ADC_Init+0x146>
  {
    assert_param(IS_ADC_REGULAR_DISC_NUMBER(hadc->Init.NbrOfDiscConversion));

    /* Enable the selected ADC regular discontinuous mode */
    hadc->Instance->CR1 |= (uint32_t)ADC_CR1_DISCEN;
 8001c44:	685a      	ldr	r2, [r3, #4]

    /* Set the number of channels to be converted in discontinuous mode */
    hadc->Instance->CR1 &= ~(ADC_CR1_DISCNUM);
    hadc->Instance->CR1 |=  ADC_CR1_DISCONTINUOUS(hadc->Init.NbrOfDiscConversion);
 8001c46:	6a61      	ldr	r1, [r4, #36]	@ 0x24
    hadc->Instance->CR1 |= (uint32_t)ADC_CR1_DISCEN;
 8001c48:	f442 6200 	orr.w	r2, r2, #2048	@ 0x800
 8001c4c:	605a      	str	r2, [r3, #4]
    hadc->Instance->CR1 &= ~(ADC_CR1_DISCNUM);
 8001c4e:	685a      	ldr	r2, [r3, #4]
 8001c50:	f422 4260 	bic.w	r2, r2, #57344	@ 0xe000
 8001c54:	605a      	str	r2, [r3, #4]
    hadc->Instance->CR1 |=  ADC_CR1_DISCONTINUOUS(hadc->Init.NbrOfDiscConversion);
 8001c56:	685a      	ldr	r2, [r3, #4]
 8001c58:	3901      	subs	r1, #1
 8001c5a:	ea42 3241 	orr.w	r2, r2, r1, lsl #13
 8001c5e:	605a      	str	r2, [r3, #4]
    /* Disable the selected ADC regular discontinuous mode */
    hadc->Instance->CR1 &= ~(ADC_CR1_DISCEN);
  }

  /* Set ADC number of conversion */
  hadc->Instance->SQR1 &= ~(ADC_SQR1_L);
 8001c60:	6ada      	ldr	r2, [r3, #44]	@ 0x2c
  hadc->Instance->SQR1 |=  ADC_SQR1(hadc->Init.NbrOfConversion);
 8001c62:	69e1      	ldr	r1, [r4, #28]
  hadc->Instance->SQR1 &= ~(ADC_SQR1_L);
 8001c64:	f422 0270 	bic.w	r2, r2, #15728640	@ 0xf00000
 8001c68:	62da      	str	r2, [r3, #44]	@ 0x2c
  hadc->Instance->SQR1 |=  ADC_SQR1(hadc->Init.NbrOfConversion);
 8001c6a:	6ada      	ldr	r2, [r3, #44]	@ 0x2c
 8001c6c:	3901      	subs	r1, #1
 8001c6e:	ea42 5201 	orr.w	r2, r2, r1, lsl #20
 8001c72:	62da      	str	r2, [r3, #44]	@ 0x2c

  /* Enable or disable ADC DMA continuous request */
  hadc->Instance->CR2 &= ~(ADC_CR2_DDS);
 8001c74:	689a      	ldr	r2, [r3, #8]
  hadc->Instance->CR2 |= ADC_CR2_DMAContReq((uint32_t)hadc->Init.DMAContinuousRequests);

  /* Enable or disable ADC end of conversion selection */
  hadc->Instance->CR2 &= ~(ADC_CR2_EOCS);
  hadc->Instance->CR2 |= ADC_CR2_EOCSelection(hadc->Init.EOCSelection);
 8001c76:	6961      	ldr	r1, [r4, #20]
  hadc->Instance->CR2 &= ~(ADC_CR2_DDS);
 8001c78:	f422 7200 	bic.w	r2, r2, #512	@ 0x200
 8001c7c:	609a      	str	r2, [r3, #8]
  hadc->Instance->CR2 |= ADC_CR2_DMAContReq((uint32_t)hadc->Init.DMAContinuousRequests);
 8001c7e:	689a      	ldr	r2, [r3, #8]
 8001c80:	f894 0030 	ldrb.w	r0, [r4, #48]	@ 0x30
 8001c84:	ea42 2240 	orr.w	r2, r2, r0, lsl #9
 8001c88:	609a      	str	r2, [r3, #8]
  hadc->Instance->CR2 &= ~(ADC_CR2_EOCS);
 8001c8a:	689a      	ldr	r2, [r3, #8]
 8001c8c:	f422 6280 	bic.w	r2, r2, #1024	@ 0x400
 8001c90:	609a      	str	r2, [r3, #8]
  hadc->Instance->CR2 |= ADC_CR2_EOCSelection(hadc->Init.EOCSelection);
 8001c92:	689a      	ldr	r2, [r3, #8]
    ADC_CLEAR_ERRORCODE(hadc);
 8001c94:	2000      	movs	r0, #0
  hadc->Instance->CR2 |= ADC_CR2_EOCSelection(hadc->Init.EOCSelection);
 8001c96:	ea42 2281 	orr.w	r2, r2, r1, lsl #10
 8001c9a:	609a      	str	r2, [r3, #8]
    ADC_CLEAR_ERRORCODE(hadc);
 8001c9c:	6460      	str	r0, [r4, #68]	@ 0x44
    ADC_STATE_CLR_SET(hadc->State,
 8001c9e:	6c23      	ldr	r3, [r4, #64]	@ 0x40
 8001ca0:	f023 0303 	bic.w	r3, r3, #3
 8001ca4:	f043 0301 	orr.w	r3, r3, #1
 8001ca8:	6423      	str	r3, [r4, #64]	@ 0x40
  __HAL_UNLOCK(hadc);
 8001caa:	2300      	movs	r3, #0
 8001cac:	f884 303c 	strb.w	r3, [r4, #60]	@ 0x3c
}
 8001cb0:	bd38      	pop	{r3, r4, r5, pc}
    hadc->Instance->CR2 &= ~(ADC_CR2_EXTSEL);
 8001cb2:	f022 6270 	bic.w	r2, r2, #251658240	@ 0xf000000
 8001cb6:	609a      	str	r2, [r3, #8]
    hadc->Instance->CR2 &= ~(ADC_CR2_EXTEN);
 8001cb8:	689a      	ldr	r2, [r3, #8]
 8001cba:	f022 5240 	bic.w	r2, r2, #805306368	@ 0x30000000
 8001cbe:	609a      	str	r2, [r3, #8]
 8001cc0:	e7b3      	b.n	8001c2a <HAL_ADC_Init+0xaa>
    return HAL_ERROR;
 8001cc2:	2001      	movs	r0, #1
}
 8001cc4:	4770      	bx	lr
    hadc->Instance->CR1 &= ~(ADC_CR1_DISCEN);
 8001cc6:	685a      	ldr	r2, [r3, #4]
 8001cc8:	f422 6200 	bic.w	r2, r2, #2048	@ 0x800
 8001ccc:	605a      	str	r2, [r3, #4]
 8001cce:	e7c7      	b.n	8001c60 <HAL_ADC_Init+0xe0>
 8001cd0:	40012300 	.word	0x40012300
 8001cd4:	0f000001 	.word	0x0f000001

08001cd8 <HAL_ADC_Start>:
{
 8001cd8:	b410      	push	{r4}
  __HAL_LOCK(hadc);
 8001cda:	f890 303c 	ldrb.w	r3, [r0, #60]	@ 0x3c
{
 8001cde:	b083      	sub	sp, #12
  __IO uint32_t counter = 0U;
 8001ce0:	2200      	movs	r2, #0
  __HAL_LOCK(hadc);
 8001ce2:	2b01      	cmp	r3, #1
  __IO uint32_t counter = 0U;
 8001ce4:	9201      	str	r2, [sp, #4]
  __HAL_LOCK(hadc);
 8001ce6:	d068      	beq.n	8001dba <HAL_ADC_Start+0xe2>
 8001ce8:	2301      	movs	r3, #1
  if ((hadc->Instance->CR2 & ADC_CR2_ADON) != ADC_CR2_ADON)
 8001cea:	6802      	ldr	r2, [r0, #0]
  __HAL_LOCK(hadc);
 8001cec:	f880 303c 	strb.w	r3, [r0, #60]	@ 0x3c
  if ((hadc->Instance->CR2 & ADC_CR2_ADON) != ADC_CR2_ADON)
 8001cf0:	6893      	ldr	r3, [r2, #8]
 8001cf2:	07db      	lsls	r3, r3, #31
 8001cf4:	d414      	bmi.n	8001d20 <HAL_ADC_Start+0x48>
    counter = (ADC_STAB_DELAY_US * (SystemCoreClock / 1000000U));
 8001cf6:	4b35      	ldr	r3, [pc, #212]	@ (8001dcc <HAL_ADC_Start+0xf4>)
 8001cf8:	4c35      	ldr	r4, [pc, #212]	@ (8001dd0 <HAL_ADC_Start+0xf8>)
 8001cfa:	681b      	ldr	r3, [r3, #0]
    __HAL_ADC_ENABLE(hadc);
 8001cfc:	6891      	ldr	r1, [r2, #8]
    counter = (ADC_STAB_DELAY_US * (SystemCoreClock / 1000000U));
 8001cfe:	fba4 4303 	umull	r4, r3, r4, r3
 8001d02:	0c9b      	lsrs	r3, r3, #18
 8001d04:	eb03 0343 	add.w	r3, r3, r3, lsl #1
    __HAL_ADC_ENABLE(hadc);
 8001d08:	f041 0101 	orr.w	r1, r1, #1
 8001d0c:	6091      	str	r1, [r2, #8]
    counter = (ADC_STAB_DELAY_US * (SystemCoreClock / 1000000U));
 8001d0e:	9301      	str	r3, [sp, #4]
    while (counter != 0U)
 8001d10:	9b01      	ldr	r3, [sp, #4]
 8001d12:	b12b      	cbz	r3, 8001d20 <HAL_ADC_Start+0x48>
      counter--;
 8001d14:	9b01      	ldr	r3, [sp, #4]
 8001d16:	3b01      	subs	r3, #1
 8001d18:	9301      	str	r3, [sp, #4]
    while (counter != 0U)
 8001d1a:	9b01      	ldr	r3, [sp, #4]
 8001d1c:	2b00      	cmp	r3, #0
 8001d1e:	d1f9      	bne.n	8001d14 <HAL_ADC_Start+0x3c>
  if (HAL_IS_BIT_SET(hadc->Instance->CR2, ADC_CR2_ADON))
 8001d20:	6893      	ldr	r3, [r2, #8]
 8001d22:	f013 0f01 	tst.w	r3, #1
    ADC_STATE_CLR_SET(hadc->State,
 8001d26:	6c03      	ldr	r3, [r0, #64]	@ 0x40
  if (HAL_IS_BIT_SET(hadc->Instance->CR2, ADC_CR2_ADON))
 8001d28:	d037      	beq.n	8001d9a <HAL_ADC_Start+0xc2>
    ADC_STATE_CLR_SET(hadc->State,
 8001d2a:	f423 63e0 	bic.w	r3, r3, #1792	@ 0x700
 8001d2e:	f023 0301 	bic.w	r3, r3, #1
 8001d32:	f443 7380 	orr.w	r3, r3, #256	@ 0x100
 8001d36:	6403      	str	r3, [r0, #64]	@ 0x40
    if (READ_BIT(hadc->Instance->CR1, ADC_CR1_JAUTO) != RESET)
 8001d38:	6853      	ldr	r3, [r2, #4]
 8001d3a:	055c      	lsls	r4, r3, #21
 8001d3c:	d505      	bpl.n	8001d4a <HAL_ADC_Start+0x72>
      ADC_STATE_CLR_SET(hadc->State, HAL_ADC_STATE_INJ_EOC, HAL_ADC_STATE_INJ_BUSY);
 8001d3e:	6c03      	ldr	r3, [r0, #64]	@ 0x40
 8001d40:	f423 5340 	bic.w	r3, r3, #12288	@ 0x3000
 8001d44:	f443 5380 	orr.w	r3, r3, #4096	@ 0x1000
 8001d48:	6403      	str	r3, [r0, #64]	@ 0x40
    if (HAL_IS_BIT_SET(hadc->State, HAL_ADC_STATE_INJ_BUSY))
 8001d4a:	6c03      	ldr	r3, [r0, #64]	@ 0x40
 8001d4c:	f413 5380 	ands.w	r3, r3, #4096	@ 0x1000
      CLEAR_BIT(hadc->ErrorCode, (HAL_ADC_ERROR_OVR | HAL_ADC_ERROR_DMA));
 8001d50:	bf1c      	itt	ne
 8001d52:	6c43      	ldrne	r3, [r0, #68]	@ 0x44
 8001d54:	f023 0306 	bicne.w	r3, r3, #6
      ADC_CLEAR_ERRORCODE(hadc);
 8001d58:	6443      	str	r3, [r0, #68]	@ 0x44
    __HAL_ADC_CLEAR_FLAG(hadc, ADC_FLAG_EOC | ADC_FLAG_OVR);
 8001d5a:	f06f 0122 	mvn.w	r1, #34	@ 0x22
    if (HAL_IS_BIT_CLR(tmpADC_Common->CCR, ADC_CCR_MULTI))
 8001d5e:	4b1d      	ldr	r3, [pc, #116]	@ (8001dd4 <HAL_ADC_Start+0xfc>)
    __HAL_UNLOCK(hadc);
 8001d60:	2400      	movs	r4, #0
 8001d62:	f880 403c 	strb.w	r4, [r0, #60]	@ 0x3c
    __HAL_ADC_CLEAR_FLAG(hadc, ADC_FLAG_EOC | ADC_FLAG_OVR);
 8001d66:	6011      	str	r1, [r2, #0]
    if (HAL_IS_BIT_CLR(tmpADC_Common->CCR, ADC_CCR_MULTI))
 8001d68:	6859      	ldr	r1, [r3, #4]
 8001d6a:	06c8      	lsls	r0, r1, #27
 8001d6c:	d121      	bne.n	8001db2 <HAL_ADC_Start+0xda>
      if ((hadc->Instance == ADC1) || ((hadc->Instance == ADC2) && ((ADC->CCR & ADC_CCR_MULTI_Msk) < ADC_CCR_MULTI_0)) \
 8001d6e:	491a      	ldr	r1, [pc, #104]	@ (8001dd8 <HAL_ADC_Start+0x100>)
 8001d70:	428a      	cmp	r2, r1
 8001d72:	d009      	beq.n	8001d88 <HAL_ADC_Start+0xb0>
 8001d74:	f501 7180 	add.w	r1, r1, #256	@ 0x100
 8001d78:	428a      	cmp	r2, r1
 8001d7a:	d023      	beq.n	8001dc4 <HAL_ADC_Start+0xec>
          || ((hadc->Instance == ADC3) && ((ADC->CCR & ADC_CCR_MULTI_Msk) < ADC_CCR_MULTI_4)))
 8001d7c:	4917      	ldr	r1, [pc, #92]	@ (8001ddc <HAL_ADC_Start+0x104>)
 8001d7e:	428a      	cmp	r2, r1
 8001d80:	d112      	bne.n	8001da8 <HAL_ADC_Start+0xd0>
 8001d82:	685b      	ldr	r3, [r3, #4]
 8001d84:	06db      	lsls	r3, r3, #27
 8001d86:	d40f      	bmi.n	8001da8 <HAL_ADC_Start+0xd0>
      if ((hadc->Instance == ADC1) && ((hadc->Instance->CR2 & ADC_CR2_EXTEN) == RESET))
 8001d88:	6893      	ldr	r3, [r2, #8]
 8001d8a:	f013 5f40 	tst.w	r3, #805306368	@ 0x30000000
 8001d8e:	d10b      	bne.n	8001da8 <HAL_ADC_Start+0xd0>
        hadc->Instance->CR2 |= (uint32_t)ADC_CR2_SWSTART;
 8001d90:	6893      	ldr	r3, [r2, #8]
 8001d92:	f043 4380 	orr.w	r3, r3, #1073741824	@ 0x40000000
 8001d96:	6093      	str	r3, [r2, #8]
 8001d98:	e006      	b.n	8001da8 <HAL_ADC_Start+0xd0>
    SET_BIT(hadc->State, HAL_ADC_STATE_ERROR_INTERNAL);
 8001d9a:	f043 0310 	orr.w	r3, r3, #16
 8001d9e:	6403      	str	r3, [r0, #64]	@ 0x40
    SET_BIT(hadc->ErrorCode, HAL_ADC_ERROR_INTERNAL);
 8001da0:	6c43      	ldr	r3, [r0, #68]	@ 0x44
 8001da2:	f043 0301 	orr.w	r3, r3, #1
 8001da6:	6443      	str	r3, [r0, #68]	@ 0x44
  return HAL_OK;
 8001da8:	2000      	movs	r0, #0
}
 8001daa:	b003      	add	sp, #12
 8001dac:	f85d 4b04 	ldr.w	r4, [sp], #4
 8001db0:	4770      	bx	lr
      if ((hadc->Instance == ADC1) && ((hadc->Instance->CR2 & ADC_CR2_EXTEN) == RESET))
 8001db2:	4b09      	ldr	r3, [pc, #36]	@ (8001dd8 <HAL_ADC_Start+0x100>)
 8001db4:	429a      	cmp	r2, r3
 8001db6:	d1f7      	bne.n	8001da8 <HAL_ADC_Start+0xd0>
 8001db8:	e7e6      	b.n	8001d88 <HAL_ADC_Start+0xb0>
  __HAL_LOCK(hadc);
 8001dba:	2002      	movs	r0, #2
}
 8001dbc:	b003      	add	sp, #12
 8001dbe:	f85d 4b04 	ldr.w	r4, [sp], #4
 8001dc2:	4770      	bx	lr
      if ((hadc->Instance == ADC1) || ((hadc->Instance == ADC2) && ((ADC->CCR & ADC_CCR_MULTI_Msk) < ADC_CCR_MULTI_0)) \
 8001dc4:	685b      	ldr	r3, [r3, #4]
 8001dc6:	06d9      	lsls	r1, r3, #27
 8001dc8:	d0de      	beq.n	8001d88 <HAL_ADC_Start+0xb0>
 8001dca:	e7ed      	b.n	8001da8 <HAL_ADC_Start+0xd0>
 8001dcc:	20000008 	.word	0x20000008
 8001dd0:	431bde83 	.word	0x431bde83
 8001dd4:	40012300 	.word	0x40012300
 8001dd8:	40012000 	.word	0x40012000
 8001ddc:	40012200 	.word	0x40012200

08001de0 <HAL_ADC_Stop>:
  __HAL_LOCK(hadc);
 8001de0:	f890 303c 	ldrb.w	r3, [r0, #60]	@ 0x3c
 8001de4:	2b01      	cmp	r3, #1
 8001de6:	d014      	beq.n	8001e12 <HAL_ADC_Stop+0x32>
  __HAL_ADC_DISABLE(hadc);
 8001de8:	6803      	ldr	r3, [r0, #0]
 8001dea:	689a      	ldr	r2, [r3, #8]
 8001dec:	f022 0201 	bic.w	r2, r2, #1
 8001df0:	609a      	str	r2, [r3, #8]
  if (HAL_IS_BIT_CLR(hadc->Instance->CR2, ADC_CR2_ADON))
 8001df2:	689b      	ldr	r3, [r3, #8]
 8001df4:	07db      	lsls	r3, r3, #31
 8001df6:	d407      	bmi.n	8001e08 <HAL_ADC_Stop+0x28>
    ADC_STATE_CLR_SET(hadc->State,
 8001df8:	6c03      	ldr	r3, [r0, #64]	@ 0x40
 8001dfa:	f423 5388 	bic.w	r3, r3, #4352	@ 0x1100
 8001dfe:	f023 0301 	bic.w	r3, r3, #1
 8001e02:	f043 0301 	orr.w	r3, r3, #1
 8001e06:	6403      	str	r3, [r0, #64]	@ 0x40
  __HAL_UNLOCK(hadc);
 8001e08:	2300      	movs	r3, #0
 8001e0a:	f880 303c 	strb.w	r3, [r0, #60]	@ 0x3c
  return HAL_OK;
 8001e0e:	4618      	mov	r0, r3
 8001e10:	4770      	bx	lr
  __HAL_LOCK(hadc);
 8001e12:	2002      	movs	r0, #2
}
 8001e14:	4770      	bx	lr
 8001e16:	bf00      	nop

08001e18 <HAL_ADC_PollForConversion>:
  if (HAL_IS_BIT_SET(hadc->Instance->CR2, ADC_CR2_EOCS) &&
 8001e18:	6803      	ldr	r3, [r0, #0]
 8001e1a:	689a      	ldr	r2, [r3, #8]
{
 8001e1c:	b570      	push	{r4, r5, r6, lr}
 8001e1e:	460e      	mov	r6, r1
  if (HAL_IS_BIT_SET(hadc->Instance->CR2, ADC_CR2_EOCS) &&
 8001e20:	0551      	lsls	r1, r2, #21
{
 8001e22:	4604      	mov	r4, r0
  if (HAL_IS_BIT_SET(hadc->Instance->CR2, ADC_CR2_EOCS) &&
 8001e24:	d502      	bpl.n	8001e2c <HAL_ADC_PollForConversion+0x14>
      HAL_IS_BIT_SET(hadc->Instance->CR2, ADC_CR2_DMA))
 8001e26:	689b      	ldr	r3, [r3, #8]
  if (HAL_IS_BIT_SET(hadc->Instance->CR2, ADC_CR2_EOCS) &&
 8001e28:	05da      	lsls	r2, r3, #23
 8001e2a:	d429      	bmi.n	8001e80 <HAL_ADC_PollForConversion+0x68>
  tickstart = HAL_GetTick();
 8001e2c:	f7ff fe90 	bl	8001b50 <HAL_GetTick>
 8001e30:	1c73      	adds	r3, r6, #1
 8001e32:	4605      	mov	r5, r0
  while (!(__HAL_ADC_GET_FLAG(hadc, ADC_FLAG_EOC)))
 8001e34:	d12d      	bne.n	8001e92 <HAL_ADC_PollForConversion+0x7a>
 8001e36:	6822      	ldr	r2, [r4, #0]
 8001e38:	6813      	ldr	r3, [r2, #0]
 8001e3a:	079d      	lsls	r5, r3, #30
 8001e3c:	d5fc      	bpl.n	8001e38 <HAL_ADC_PollForConversion+0x20>
  __HAL_ADC_CLEAR_FLAG(hadc, ADC_FLAG_STRT | ADC_FLAG_EOC);
 8001e3e:	f06f 0312 	mvn.w	r3, #18
 8001e42:	6013      	str	r3, [r2, #0]
  SET_BIT(hadc->State, HAL_ADC_STATE_REG_EOC);
 8001e44:	6c23      	ldr	r3, [r4, #64]	@ 0x40
 8001e46:	f443 7300 	orr.w	r3, r3, #512	@ 0x200
 8001e4a:	6423      	str	r3, [r4, #64]	@ 0x40
  if (ADC_IS_SOFTWARE_START_REGULAR(hadc)                   &&
 8001e4c:	6893      	ldr	r3, [r2, #8]
 8001e4e:	f013 5f40 	tst.w	r3, #805306368	@ 0x30000000
 8001e52:	d113      	bne.n	8001e7c <HAL_ADC_PollForConversion+0x64>
 8001e54:	7e23      	ldrb	r3, [r4, #24]
 8001e56:	b98b      	cbnz	r3, 8001e7c <HAL_ADC_PollForConversion+0x64>
      (HAL_IS_BIT_CLR(hadc->Instance->SQR1, ADC_SQR1_L) ||
 8001e58:	6ad3      	ldr	r3, [r2, #44]	@ 0x2c
      (hadc->Init.ContinuousConvMode == DISABLE)            &&
 8001e5a:	f413 0f70 	tst.w	r3, #15728640	@ 0xf00000
 8001e5e:	d002      	beq.n	8001e66 <HAL_ADC_PollForConversion+0x4e>
       HAL_IS_BIT_CLR(hadc->Instance->CR2, ADC_CR2_EOCS)))
 8001e60:	6893      	ldr	r3, [r2, #8]
      (HAL_IS_BIT_CLR(hadc->Instance->SQR1, ADC_SQR1_L) ||
 8001e62:	055a      	lsls	r2, r3, #21
 8001e64:	d40a      	bmi.n	8001e7c <HAL_ADC_PollForConversion+0x64>
    CLEAR_BIT(hadc->State, HAL_ADC_STATE_REG_BUSY);
 8001e66:	6c23      	ldr	r3, [r4, #64]	@ 0x40
 8001e68:	f423 7380 	bic.w	r3, r3, #256	@ 0x100
 8001e6c:	6423      	str	r3, [r4, #64]	@ 0x40
    if (HAL_IS_BIT_CLR(hadc->State, HAL_ADC_STATE_INJ_BUSY))
 8001e6e:	6c23      	ldr	r3, [r4, #64]	@ 0x40
 8001e70:	04db      	lsls	r3, r3, #19
 8001e72:	d403      	bmi.n	8001e7c <HAL_ADC_PollForConversion+0x64>
      SET_BIT(hadc->State, HAL_ADC_STATE_READY);
 8001e74:	6c23      	ldr	r3, [r4, #64]	@ 0x40
 8001e76:	f043 0301 	orr.w	r3, r3, #1
 8001e7a:	6423      	str	r3, [r4, #64]	@ 0x40
  return HAL_OK;
 8001e7c:	2000      	movs	r0, #0
}
 8001e7e:	bd70      	pop	{r4, r5, r6, pc}
    SET_BIT(hadc->State, HAL_ADC_STATE_ERROR_CONFIG);
 8001e80:	6c03      	ldr	r3, [r0, #64]	@ 0x40
    __HAL_UNLOCK(hadc);
 8001e82:	2200      	movs	r2, #0
    SET_BIT(hadc->State, HAL_ADC_STATE_ERROR_CONFIG);
 8001e84:	f043 0320 	orr.w	r3, r3, #32
    __HAL_UNLOCK(hadc);
 8001e88:	f880 203c 	strb.w	r2, [r0, #60]	@ 0x3c
    SET_BIT(hadc->State, HAL_ADC_STATE_ERROR_CONFIG);
 8001e8c:	6403      	str	r3, [r0, #64]	@ 0x40
    return HAL_ERROR;
 8001e8e:	2001      	movs	r0, #1
}
 8001e90:	bd70      	pop	{r4, r5, r6, pc}
 8001e92:	6823      	ldr	r3, [r4, #0]
  while (!(__HAL_ADC_GET_FLAG(hadc, ADC_FLAG_EOC)))
 8001e94:	6819      	ldr	r1, [r3, #0]
 8001e96:	0789      	lsls	r1, r1, #30
 8001e98:	461a      	mov	r2, r3
 8001e9a:	d4d0      	bmi.n	8001e3e <HAL_ADC_PollForConversion+0x26>
      if ((Timeout == 0U) || ((HAL_GetTick() - tickstart) > Timeout))
 8001e9c:	b97e      	cbnz	r6, 8001ebe <HAL_ADC_PollForConversion+0xa6>
        if (!(__HAL_ADC_GET_FLAG(hadc, ADC_FLAG_EOC)))
 8001e9e:	681a      	ldr	r2, [r3, #0]
 8001ea0:	f012 0202 	ands.w	r2, r2, #2
 8001ea4:	d1f6      	bne.n	8001e94 <HAL_ADC_PollForConversion+0x7c>
          SET_BIT(hadc->State, HAL_ADC_STATE_TIMEOUT);
 8001ea6:	6c23      	ldr	r3, [r4, #64]	@ 0x40
          __HAL_UNLOCK(hadc);
 8001ea8:	f884 203c 	strb.w	r2, [r4, #60]	@ 0x3c
          SET_BIT(hadc->State, HAL_ADC_STATE_TIMEOUT);
 8001eac:	f043 0304 	orr.w	r3, r3, #4
 8001eb0:	6423      	str	r3, [r4, #64]	@ 0x40
          return HAL_TIMEOUT;
 8001eb2:	2003      	movs	r0, #3
}
 8001eb4:	bd70      	pop	{r4, r5, r6, pc}
  while (!(__HAL_ADC_GET_FLAG(hadc, ADC_FLAG_EOC)))
 8001eb6:	6822      	ldr	r2, [r4, #0]
 8001eb8:	6813      	ldr	r3, [r2, #0]
 8001eba:	0798      	lsls	r0, r3, #30
 8001ebc:	d4bf      	bmi.n	8001e3e <HAL_ADC_PollForConversion+0x26>
      if ((Timeout == 0U) || ((HAL_GetTick() - tickstart) > Timeout))
 8001ebe:	f7ff fe47 	bl	8001b50 <HAL_GetTick>
 8001ec2:	1b43      	subs	r3, r0, r5
 8001ec4:	42b3      	cmp	r3, r6
 8001ec6:	d9f6      	bls.n	8001eb6 <HAL_ADC_PollForConversion+0x9e>
        if (!(__HAL_ADC_GET_FLAG(hadc, ADC_FLAG_EOC)))
 8001ec8:	6823      	ldr	r3, [r4, #0]
 8001eca:	e7e8      	b.n	8001e9e <HAL_ADC_PollForConversion+0x86>

08001ecc <HAL_ADC_GetValue>:
  return hadc->Instance->DR;
 8001ecc:	6803      	ldr	r3, [r0, #0]
 8001ece:	6cd8      	ldr	r0, [r3, #76]	@ 0x4c
}
 8001ed0:	4770      	bx	lr
 8001ed2:	bf00      	nop

08001ed4 <HAL_ADC_ConfigChannel>:
{
 8001ed4:	b570      	push	{r4, r5, r6, lr}
  __HAL_LOCK(hadc);
 8001ed6:	f890 303c 	ldrb.w	r3, [r0, #60]	@ 0x3c
{
 8001eda:	b082      	sub	sp, #8
 8001edc:	4602      	mov	r2, r0
  __HAL_LOCK(hadc);
 8001ede:	2b01      	cmp	r3, #1
  __IO uint32_t counter = 0U;
 8001ee0:	f04f 0000 	mov.w	r0, #0
 8001ee4:	9001      	str	r0, [sp, #4]
  __HAL_LOCK(hadc);
 8001ee6:	f000 8093 	beq.w	8002010 <HAL_ADC_ConfigChannel+0x13c>
 8001eea:	2301      	movs	r3, #1
 8001eec:	f882 303c 	strb.w	r3, [r2, #60]	@ 0x3c
  if (sConfig->Channel > ADC_CHANNEL_9)
 8001ef0:	680d      	ldr	r5, [r1, #0]
    hadc->Instance->SMPR1 &= ~ADC_SMPR1(ADC_SMPR1_SMP10, sConfig->Channel);
 8001ef2:	6813      	ldr	r3, [r2, #0]
    hadc->Instance->SMPR1 |= ADC_SMPR1(sConfig->SamplingTime, sConfig->Channel);
 8001ef4:	688c      	ldr	r4, [r1, #8]
  if (sConfig->Channel > ADC_CHANNEL_9)
 8001ef6:	2d09      	cmp	r5, #9
 8001ef8:	b2a8      	uxth	r0, r5
 8001efa:	d828      	bhi.n	8001f4e <HAL_ADC_ConfigChannel+0x7a>
    hadc->Instance->SMPR2 &= ~ADC_SMPR2(ADC_SMPR2_SMP0, sConfig->Channel);
 8001efc:	691e      	ldr	r6, [r3, #16]
 8001efe:	eb05 0e45 	add.w	lr, r5, r5, lsl #1
 8001f02:	f04f 0c07 	mov.w	ip, #7
 8001f06:	fa0c fc0e 	lsl.w	ip, ip, lr
 8001f0a:	ea26 060c 	bic.w	r6, r6, ip
 8001f0e:	611e      	str	r6, [r3, #16]
    hadc->Instance->SMPR2 |= ADC_SMPR2(sConfig->SamplingTime, sConfig->Channel);
 8001f10:	691e      	ldr	r6, [r3, #16]
 8001f12:	fa04 f40e 	lsl.w	r4, r4, lr
 8001f16:	4334      	orrs	r4, r6
 8001f18:	611c      	str	r4, [r3, #16]
  if (sConfig->Rank < 7U)
 8001f1a:	684c      	ldr	r4, [r1, #4]
 8001f1c:	2c06      	cmp	r4, #6
    hadc->Instance->SQR3 &= ~ADC_SQR3_RK(ADC_SQR3_SQ1, sConfig->Rank);
 8001f1e:	eb04 0184 	add.w	r1, r4, r4, lsl #2
  if (sConfig->Rank < 7U)
 8001f22:	d82a      	bhi.n	8001f7a <HAL_ADC_ConfigChannel+0xa6>
    hadc->Instance->SQR3 &= ~ADC_SQR3_RK(ADC_SQR3_SQ1, sConfig->Rank);
 8001f24:	6b5c      	ldr	r4, [r3, #52]	@ 0x34
 8001f26:	3905      	subs	r1, #5
 8001f28:	f04f 0c1f 	mov.w	ip, #31
    hadc->Instance->SQR3 |= ADC_SQR3_RK(sConfig->Channel, sConfig->Rank);
 8001f2c:	4088      	lsls	r0, r1
    hadc->Instance->SQR3 &= ~ADC_SQR3_RK(ADC_SQR3_SQ1, sConfig->Rank);
 8001f2e:	fa0c f101 	lsl.w	r1, ip, r1
 8001f32:	ea24 0101 	bic.w	r1, r4, r1
 8001f36:	6359      	str	r1, [r3, #52]	@ 0x34
    hadc->Instance->SQR3 |= ADC_SQR3_RK(sConfig->Channel, sConfig->Rank);
 8001f38:	6b59      	ldr	r1, [r3, #52]	@ 0x34
 8001f3a:	4308      	orrs	r0, r1
 8001f3c:	6358      	str	r0, [r3, #52]	@ 0x34
  if ((hadc->Instance == ADC1) && (sConfig->Channel == ADC_CHANNEL_VBAT))
 8001f3e:	4936      	ldr	r1, [pc, #216]	@ (8002018 <HAL_ADC_ConfigChannel+0x144>)
 8001f40:	428b      	cmp	r3, r1
 8001f42:	d02b      	beq.n	8001f9c <HAL_ADC_ConfigChannel+0xc8>
  __HAL_UNLOCK(hadc);
 8001f44:	2000      	movs	r0, #0
 8001f46:	f882 003c 	strb.w	r0, [r2, #60]	@ 0x3c
}
 8001f4a:	b002      	add	sp, #8
 8001f4c:	bd70      	pop	{r4, r5, r6, pc}
    hadc->Instance->SMPR1 &= ~ADC_SMPR1(ADC_SMPR1_SMP10, sConfig->Channel);
 8001f4e:	eb00 0c40 	add.w	ip, r0, r0, lsl #1
 8001f52:	68de      	ldr	r6, [r3, #12]
 8001f54:	f1ac 0c1e 	sub.w	ip, ip, #30
 8001f58:	f04f 0e07 	mov.w	lr, #7
    hadc->Instance->SMPR1 |= ADC_SMPR1(sConfig->SamplingTime, sConfig->Channel);
 8001f5c:	fa04 f40c 	lsl.w	r4, r4, ip
    hadc->Instance->SMPR1 &= ~ADC_SMPR1(ADC_SMPR1_SMP10, sConfig->Channel);
 8001f60:	fa0e fc0c 	lsl.w	ip, lr, ip
 8001f64:	ea26 060c 	bic.w	r6, r6, ip
 8001f68:	60de      	str	r6, [r3, #12]
    hadc->Instance->SMPR1 |= ADC_SMPR1(sConfig->SamplingTime, sConfig->Channel);
 8001f6a:	68de      	ldr	r6, [r3, #12]
 8001f6c:	4334      	orrs	r4, r6
 8001f6e:	60dc      	str	r4, [r3, #12]
  if (sConfig->Rank < 7U)
 8001f70:	684c      	ldr	r4, [r1, #4]
 8001f72:	2c06      	cmp	r4, #6
    hadc->Instance->SQR3 &= ~ADC_SQR3_RK(ADC_SQR3_SQ1, sConfig->Rank);
 8001f74:	eb04 0184 	add.w	r1, r4, r4, lsl #2
  if (sConfig->Rank < 7U)
 8001f78:	d9d4      	bls.n	8001f24 <HAL_ADC_ConfigChannel+0x50>
  else if (sConfig->Rank < 13U)
 8001f7a:	2c0c      	cmp	r4, #12
 8001f7c:	d834      	bhi.n	8001fe8 <HAL_ADC_ConfigChannel+0x114>
    hadc->Instance->SQR2 &= ~ADC_SQR2_RK(ADC_SQR2_SQ7, sConfig->Rank);
 8001f7e:	6b1c      	ldr	r4, [r3, #48]	@ 0x30
 8001f80:	3923      	subs	r1, #35	@ 0x23
 8001f82:	261f      	movs	r6, #31
    hadc->Instance->SQR2 |= ADC_SQR2_RK(sConfig->Channel, sConfig->Rank);
 8001f84:	4088      	lsls	r0, r1
    hadc->Instance->SQR2 &= ~ADC_SQR2_RK(ADC_SQR2_SQ7, sConfig->Rank);
 8001f86:	fa06 f101 	lsl.w	r1, r6, r1
 8001f8a:	ea24 0101 	bic.w	r1, r4, r1
 8001f8e:	6319      	str	r1, [r3, #48]	@ 0x30
    hadc->Instance->SQR2 |= ADC_SQR2_RK(sConfig->Channel, sConfig->Rank);
 8001f90:	6b19      	ldr	r1, [r3, #48]	@ 0x30
 8001f92:	4308      	orrs	r0, r1
  if ((hadc->Instance == ADC1) && (sConfig->Channel == ADC_CHANNEL_VBAT))
 8001f94:	4920      	ldr	r1, [pc, #128]	@ (8002018 <HAL_ADC_ConfigChannel+0x144>)
    hadc->Instance->SQR2 |= ADC_SQR2_RK(sConfig->Channel, sConfig->Rank);
 8001f96:	6318      	str	r0, [r3, #48]	@ 0x30
  if ((hadc->Instance == ADC1) && (sConfig->Channel == ADC_CHANNEL_VBAT))
 8001f98:	428b      	cmp	r3, r1
 8001f9a:	d1d3      	bne.n	8001f44 <HAL_ADC_ConfigChannel+0x70>
 8001f9c:	2d12      	cmp	r5, #18
 8001f9e:	d030      	beq.n	8002002 <HAL_ADC_ConfigChannel+0x12e>
  if ((hadc->Instance == ADC1) && ((sConfig->Channel == ADC_CHANNEL_TEMPSENSOR) || (sConfig->Channel == ADC_CHANNEL_VREFINT)))
 8001fa0:	f1a5 0310 	sub.w	r3, r5, #16
 8001fa4:	2b01      	cmp	r3, #1
 8001fa6:	d8cd      	bhi.n	8001f44 <HAL_ADC_ConfigChannel+0x70>
    tmpADC_Common->CCR |= ADC_CCR_TSVREFE;
 8001fa8:	491c      	ldr	r1, [pc, #112]	@ (800201c <HAL_ADC_ConfigChannel+0x148>)
 8001faa:	684b      	ldr	r3, [r1, #4]
    if (sConfig->Channel == ADC_CHANNEL_TEMPSENSOR)
 8001fac:	2d10      	cmp	r5, #16
    tmpADC_Common->CCR |= ADC_CCR_TSVREFE;
 8001fae:	f443 0300 	orr.w	r3, r3, #8388608	@ 0x800000
 8001fb2:	604b      	str	r3, [r1, #4]
    if (sConfig->Channel == ADC_CHANNEL_TEMPSENSOR)
 8001fb4:	d1c6      	bne.n	8001f44 <HAL_ADC_ConfigChannel+0x70>
      counter = (ADC_TEMPSENSOR_DELAY_US * (SystemCoreClock / 1000000U));
 8001fb6:	4b1a      	ldr	r3, [pc, #104]	@ (8002020 <HAL_ADC_ConfigChannel+0x14c>)
 8001fb8:	f101 7146 	add.w	r1, r1, #51904512	@ 0x3180000
 8001fbc:	681b      	ldr	r3, [r3, #0]
 8001fbe:	f501 312e 	add.w	r1, r1, #178176	@ 0x2b800
 8001fc2:	f201 3183 	addw	r1, r1, #899	@ 0x383
 8001fc6:	fba1 1303 	umull	r1, r3, r1, r3
 8001fca:	0c9b      	lsrs	r3, r3, #18
 8001fcc:	eb03 0383 	add.w	r3, r3, r3, lsl #2
 8001fd0:	005b      	lsls	r3, r3, #1
 8001fd2:	9301      	str	r3, [sp, #4]
      while (counter != 0U)
 8001fd4:	9b01      	ldr	r3, [sp, #4]
 8001fd6:	2b00      	cmp	r3, #0
 8001fd8:	d0b4      	beq.n	8001f44 <HAL_ADC_ConfigChannel+0x70>
        counter--;
 8001fda:	9b01      	ldr	r3, [sp, #4]
 8001fdc:	3b01      	subs	r3, #1
 8001fde:	9301      	str	r3, [sp, #4]
      while (counter != 0U)
 8001fe0:	9b01      	ldr	r3, [sp, #4]
 8001fe2:	2b00      	cmp	r3, #0
 8001fe4:	d1f9      	bne.n	8001fda <HAL_ADC_ConfigChannel+0x106>
 8001fe6:	e7ad      	b.n	8001f44 <HAL_ADC_ConfigChannel+0x70>
    hadc->Instance->SQR1 &= ~ADC_SQR1_RK(ADC_SQR1_SQ13, sConfig->Rank);
 8001fe8:	6adc      	ldr	r4, [r3, #44]	@ 0x2c
 8001fea:	3941      	subs	r1, #65	@ 0x41
 8001fec:	261f      	movs	r6, #31
    hadc->Instance->SQR1 |= ADC_SQR1_RK(sConfig->Channel, sConfig->Rank);
 8001fee:	4088      	lsls	r0, r1
    hadc->Instance->SQR1 &= ~ADC_SQR1_RK(ADC_SQR1_SQ13, sConfig->Rank);
 8001ff0:	fa06 f101 	lsl.w	r1, r6, r1
 8001ff4:	ea24 0101 	bic.w	r1, r4, r1
 8001ff8:	62d9      	str	r1, [r3, #44]	@ 0x2c
    hadc->Instance->SQR1 |= ADC_SQR1_RK(sConfig->Channel, sConfig->Rank);
 8001ffa:	6ad9      	ldr	r1, [r3, #44]	@ 0x2c
 8001ffc:	4308      	orrs	r0, r1
 8001ffe:	62d8      	str	r0, [r3, #44]	@ 0x2c
 8002000:	e79d      	b.n	8001f3e <HAL_ADC_ConfigChannel+0x6a>
    tmpADC_Common->CCR |= ADC_CCR_VBATE;
 8002002:	f8d1 3304 	ldr.w	r3, [r1, #772]	@ 0x304
 8002006:	f443 0380 	orr.w	r3, r3, #4194304	@ 0x400000
 800200a:	f8c1 3304 	str.w	r3, [r1, #772]	@ 0x304
  if ((hadc->Instance == ADC1) && ((sConfig->Channel == ADC_CHANNEL_TEMPSENSOR) || (sConfig->Channel == ADC_CHANNEL_VREFINT)))
 800200e:	e799      	b.n	8001f44 <HAL_ADC_ConfigChannel+0x70>
  __HAL_LOCK(hadc);
 8002010:	2002      	movs	r0, #2
}
 8002012:	b002      	add	sp, #8
 8002014:	bd70      	pop	{r4, r5, r6, pc}
 8002016:	bf00      	nop
 8002018:	40012000 	.word	0x40012000
 800201c:	40012300 	.word	0x40012300
 8002020:	20000008 	.word	0x20000008

08002024 <HAL_NVIC_SetPriorityGrouping>:
__STATIC_INLINE void __NVIC_SetPriorityGrouping(uint32_t PriorityGroup)
{
  uint32_t reg_value;
  uint32_t PriorityGroupTmp = (PriorityGroup & (uint32_t)0x07UL);             /* only values 0..7 are used          */

  reg_value  =  SCB->AIRCR;                                                   /* read old register configuration    */
 8002024:	4907      	ldr	r1, [pc, #28]	@ (8002044 <HAL_NVIC_SetPriorityGrouping+0x20>)
 8002026:	68ca      	ldr	r2, [r1, #12]
  reg_value &= ~((uint32_t)(SCB_AIRCR_VECTKEY_Msk | SCB_AIRCR_PRIGROUP_Msk)); /* clear bits to change               */
  reg_value  =  (reg_value                                   |
                ((uint32_t)0x5FAUL << SCB_AIRCR_VECTKEY_Pos) |
                (PriorityGroupTmp << SCB_AIRCR_PRIGROUP_Pos)  );              /* Insert write key and priority group */
 8002028:	0203      	lsls	r3, r0, #8
  reg_value &= ~((uint32_t)(SCB_AIRCR_VECTKEY_Msk | SCB_AIRCR_PRIGROUP_Msk)); /* clear bits to change               */
 800202a:	f64f 00ff 	movw	r0, #63743	@ 0xf8ff
                (PriorityGroupTmp << SCB_AIRCR_PRIGROUP_Pos)  );              /* Insert write key and priority group */
 800202e:	f403 63e0 	and.w	r3, r3, #1792	@ 0x700
  reg_value &= ~((uint32_t)(SCB_AIRCR_VECTKEY_Msk | SCB_AIRCR_PRIGROUP_Msk)); /* clear bits to change               */
 8002032:	4002      	ands	r2, r0
                ((uint32_t)0x5FAUL << SCB_AIRCR_VECTKEY_Pos) |
 8002034:	4313      	orrs	r3, r2
  reg_value  =  (reg_value                                   |
 8002036:	f043 63bf 	orr.w	r3, r3, #100139008	@ 0x5f80000
 800203a:	f443 3300 	orr.w	r3, r3, #131072	@ 0x20000
  SCB->AIRCR =  reg_value;
 800203e:	60cb      	str	r3, [r1, #12]
  /* Check the parameters */
  assert_param(IS_NVIC_PRIORITY_GROUP(PriorityGroup));
  
  /* Set the PRIGROUP[10:8] bits according to the PriorityGroup parameter value */
  NVIC_SetPriorityGrouping(PriorityGroup);
}
 8002040:	4770      	bx	lr
 8002042:	bf00      	nop
 8002044:	e000ed00 	.word	0xe000ed00

08002048 <HAL_NVIC_SetPriority>:
  \details Reads the priority grouping field from the NVIC Interrupt Controller.
  \return                Priority grouping field (SCB->AIRCR [10:8] PRIGROUP field).
 */
__STATIC_INLINE uint32_t __NVIC_GetPriorityGrouping(void)
{
  return ((uint32_t)((SCB->AIRCR & SCB_AIRCR_PRIGROUP_Msk) >> SCB_AIRCR_PRIGROUP_Pos));
 8002048:	4b1b      	ldr	r3, [pc, #108]	@ (80020b8 <HAL_NVIC_SetPriority+0x70>)
 800204a:	68db      	ldr	r3, [r3, #12]
 800204c:	f3c3 2302 	ubfx	r3, r3, #8, #3
  *         This parameter can be a value between 0 and 15
  *         A lower priority value indicates a higher priority.          
  * @retval None
  */
void HAL_NVIC_SetPriority(IRQn_Type IRQn, uint32_t PreemptPriority, uint32_t SubPriority)
{ 
 8002050:	b500      	push	{lr}
{
  uint32_t PriorityGroupTmp = (PriorityGroup & (uint32_t)0x07UL);   /* only values 0..7 are used          */
  uint32_t PreemptPriorityBits;
  uint32_t SubPriorityBits;

  PreemptPriorityBits = ((7UL - PriorityGroupTmp) > (uint32_t)(__NVIC_PRIO_BITS)) ? (uint32_t)(__NVIC_PRIO_BITS) : (uint32_t)(7UL - PriorityGroupTmp);
 8002052:	f1c3 0e07 	rsb	lr, r3, #7
 8002056:	f1be 0f04 	cmp.w	lr, #4
  SubPriorityBits     = ((PriorityGroupTmp + (uint32_t)(__NVIC_PRIO_BITS)) < (uint32_t)7UL) ? (uint32_t)0UL : (uint32_t)((PriorityGroupTmp - 7UL) + (uint32_t)(__NVIC_PRIO_BITS));
 800205a:	f103 0c04 	add.w	ip, r3, #4
  PreemptPriorityBits = ((7UL - PriorityGroupTmp) > (uint32_t)(__NVIC_PRIO_BITS)) ? (uint32_t)(__NVIC_PRIO_BITS) : (uint32_t)(7UL - PriorityGroupTmp);
 800205e:	bf28      	it	cs
 8002060:	f04f 0e04 	movcs.w	lr, #4
  SubPriorityBits     = ((PriorityGroupTmp + (uint32_t)(__NVIC_PRIO_BITS)) < (uint32_t)7UL) ? (uint32_t)0UL : (uint32_t)((PriorityGroupTmp - 7UL) + (uint32_t)(__NVIC_PRIO_BITS));
 8002064:	f1bc 0f06 	cmp.w	ip, #6
 8002068:	d91c      	bls.n	80020a4 <HAL_NVIC_SetPriority+0x5c>
 800206a:	f1a3 0c03 	sub.w	ip, r3, #3

  return (
           ((PreemptPriority & (uint32_t)((1UL << (PreemptPriorityBits)) - 1UL)) << SubPriorityBits) |
           ((SubPriority     & (uint32_t)((1UL << (SubPriorityBits    )) - 1UL)))
 800206e:	f04f 33ff 	mov.w	r3, #4294967295
 8002072:	fa03 f30c 	lsl.w	r3, r3, ip
 8002076:	ea22 0203 	bic.w	r2, r2, r3
           ((PreemptPriority & (uint32_t)((1UL << (PreemptPriorityBits)) - 1UL)) << SubPriorityBits) |
 800207a:	f04f 33ff 	mov.w	r3, #4294967295
 800207e:	fa03 f30e 	lsl.w	r3, r3, lr
 8002082:	ea21 0303 	bic.w	r3, r1, r3
 8002086:	fa03 f30c 	lsl.w	r3, r3, ip
 800208a:	4313      	orrs	r3, r2
    NVIC->IP[((uint32_t)IRQn)]               = (uint8_t)((priority << (8U - __NVIC_PRIO_BITS)) & (uint32_t)0xFFUL);
 800208c:	011b      	lsls	r3, r3, #4
  if ((int32_t)(IRQn) >= 0)
 800208e:	2800      	cmp	r0, #0
    NVIC->IP[((uint32_t)IRQn)]               = (uint8_t)((priority << (8U - __NVIC_PRIO_BITS)) & (uint32_t)0xFFUL);
 8002090:	b2db      	uxtb	r3, r3
  if ((int32_t)(IRQn) >= 0)
 8002092:	db0a      	blt.n	80020aa <HAL_NVIC_SetPriority+0x62>
    NVIC->IP[((uint32_t)IRQn)]               = (uint8_t)((priority << (8U - __NVIC_PRIO_BITS)) & (uint32_t)0xFFUL);
 8002094:	f100 4060 	add.w	r0, r0, #3758096384	@ 0xe0000000
 8002098:	f500 4061 	add.w	r0, r0, #57600	@ 0xe100
 800209c:	f880 3300 	strb.w	r3, [r0, #768]	@ 0x300
  assert_param(IS_NVIC_PREEMPTION_PRIORITY(PreemptPriority));
  
  prioritygroup = NVIC_GetPriorityGrouping();
  
  NVIC_SetPriority(IRQn, NVIC_EncodePriority(prioritygroup, PreemptPriority, SubPriority));
}
 80020a0:	f85d fb04 	ldr.w	pc, [sp], #4
 80020a4:	2200      	movs	r2, #0
  SubPriorityBits     = ((PriorityGroupTmp + (uint32_t)(__NVIC_PRIO_BITS)) < (uint32_t)7UL) ? (uint32_t)0UL : (uint32_t)((PriorityGroupTmp - 7UL) + (uint32_t)(__NVIC_PRIO_BITS));
 80020a6:	4694      	mov	ip, r2
 80020a8:	e7e7      	b.n	800207a <HAL_NVIC_SetPriority+0x32>
    SCB->SHP[(((uint32_t)IRQn) & 0xFUL)-4UL] = (uint8_t)((priority << (8U - __NVIC_PRIO_BITS)) & (uint32_t)0xFFUL);
 80020aa:	4a04      	ldr	r2, [pc, #16]	@ (80020bc <HAL_NVIC_SetPriority+0x74>)
 80020ac:	f000 000f 	and.w	r0, r0, #15
 80020b0:	4402      	add	r2, r0
 80020b2:	7613      	strb	r3, [r2, #24]
 80020b4:	f85d fb04 	ldr.w	pc, [sp], #4
 80020b8:	e000ed00 	.word	0xe000ed00
 80020bc:	e000ecfc 	.word	0xe000ecfc

080020c0 <HAL_NVIC_EnableIRQ>:
  if ((int32_t)(IRQn) >= 0)
 80020c0:	2800      	cmp	r0, #0
 80020c2:	db07      	blt.n	80020d4 <HAL_NVIC_EnableIRQ+0x14>
    NVIC->ISER[(((uint32_t)IRQn) >> 5UL)] = (uint32_t)(1UL << (((uint32_t)IRQn) & 0x1FUL));
 80020c4:	4a04      	ldr	r2, [pc, #16]	@ (80020d8 <HAL_NVIC_EnableIRQ+0x18>)
 80020c6:	0941      	lsrs	r1, r0, #5
 80020c8:	2301      	movs	r3, #1
 80020ca:	f000 001f 	and.w	r0, r0, #31
 80020ce:	4083      	lsls	r3, r0
 80020d0:	f842 3021 	str.w	r3, [r2, r1, lsl #2]
  /* Check the parameters */
  assert_param(IS_NVIC_DEVICE_IRQ(IRQn));
  
  /* Enable interrupt */
  NVIC_EnableIRQ(IRQn);
}
 80020d4:	4770      	bx	lr
 80020d6:	bf00      	nop
 80020d8:	e000e100 	.word	0xe000e100

080020dc <HAL_NVIC_DisableIRQ>:
  if ((int32_t)(IRQn) >= 0)
 80020dc:	2800      	cmp	r0, #0
 80020de:	db0c      	blt.n	80020fa <HAL_NVIC_DisableIRQ+0x1e>
    NVIC->ICER[(((uint32_t)IRQn) >> 5UL)] = (uint32_t)(1UL << (((uint32_t)IRQn) & 0x1FUL));
 80020e0:	0943      	lsrs	r3, r0, #5
 80020e2:	4906      	ldr	r1, [pc, #24]	@ (80020fc <HAL_NVIC_DisableIRQ+0x20>)
 80020e4:	f000 001f 	and.w	r0, r0, #31
 80020e8:	3320      	adds	r3, #32
 80020ea:	2201      	movs	r2, #1
 80020ec:	4082      	lsls	r2, r0
 80020ee:	f841 2023 	str.w	r2, [r1, r3, lsl #2]
  __ASM volatile ("dsb 0xF":::"memory");
 80020f2:	f3bf 8f4f 	dsb	sy
  __ASM volatile ("isb 0xF":::"memory");
 80020f6:	f3bf 8f6f 	isb	sy
  /* Check the parameters */
  assert_param(IS_NVIC_DEVICE_IRQ(IRQn));
  
  /* Disable interrupt */
  NVIC_DisableIRQ(IRQn);
}
 80020fa:	4770      	bx	lr
 80020fc:	e000e100 	.word	0xe000e100

08002100 <HAL_SYSTICK_Config>:
           function <b>SysTick_Config</b> is not included. In this case, the file <b><i>device</i>.h</b>
           must contain a vendor-specific implementation of this function.
 */
__STATIC_INLINE uint32_t SysTick_Config(uint32_t ticks)
{
  if ((ticks - 1UL) > SysTick_LOAD_RELOAD_Msk)
 8002100:	3801      	subs	r0, #1
 8002102:	f1b0 7f80 	cmp.w	r0, #16777216	@ 0x1000000
 8002106:	d301      	bcc.n	800210c <HAL_SYSTICK_Config+0xc>
  {
    return (1UL);                                                   /* Reload value impossible */
 8002108:	2001      	movs	r0, #1
  *                  - 1  Function failed.
  */
uint32_t HAL_SYSTICK_Config(uint32_t TicksNumb)
{
   return SysTick_Config(TicksNumb);
}
 800210a:	4770      	bx	lr
{
 800210c:	b410      	push	{r4}
  }

  SysTick->LOAD  = (uint32_t)(ticks - 1UL);                         /* set reload register */
 800210e:	f04f 23e0 	mov.w	r3, #3758153728	@ 0xe000e000
    SCB->SHP[(((uint32_t)IRQn) & 0xFUL)-4UL] = (uint8_t)((priority << (8U - __NVIC_PRIO_BITS)) & (uint32_t)0xFFUL);
 8002112:	4c07      	ldr	r4, [pc, #28]	@ (8002130 <HAL_SYSTICK_Config+0x30>)
  SysTick->LOAD  = (uint32_t)(ticks - 1UL);                         /* set reload register */
 8002114:	6158      	str	r0, [r3, #20]
    SCB->SHP[(((uint32_t)IRQn) & 0xFUL)-4UL] = (uint8_t)((priority << (8U - __NVIC_PRIO_BITS)) & (uint32_t)0xFFUL);
 8002116:	f04f 0cf0 	mov.w	ip, #240	@ 0xf0
 800211a:	f884 c023 	strb.w	ip, [r4, #35]	@ 0x23
  NVIC_SetPriority (SysTick_IRQn, (1UL << __NVIC_PRIO_BITS) - 1UL); /* set Priority for Systick Interrupt */
  SysTick->VAL   = 0UL;                                             /* Load the SysTick Counter Value */
 800211e:	2200      	movs	r2, #0
  SysTick->CTRL  = SysTick_CTRL_CLKSOURCE_Msk |
 8002120:	2107      	movs	r1, #7
                   SysTick_CTRL_TICKINT_Msk   |
                   SysTick_CTRL_ENABLE_Msk;                         /* Enable SysTick IRQ and SysTick Timer */
  return (0UL);                                                     /* Function successful */
 8002122:	4610      	mov	r0, r2
  SysTick->VAL   = 0UL;                                             /* Load the SysTick Counter Value */
 8002124:	619a      	str	r2, [r3, #24]
}
 8002126:	f85d 4b04 	ldr.w	r4, [sp], #4
  SysTick->CTRL  = SysTick_CTRL_CLKSOURCE_Msk |
 800212a:	6119      	str	r1, [r3, #16]
 800212c:	4770      	bx	lr
 800212e:	bf00      	nop
 8002130:	e000ed00 	.word	0xe000ed00

08002134 <HAL_DMA_Init>:
  * @param  hdma Pointer to a DMA_HandleTypeDef structure that contains
  *               the configuration information for the specified DMA Stream.  
  * @retval HAL status
  */
HAL_StatusTypeDef HAL_DMA_Init(DMA_HandleTypeDef *hdma)
{
 8002134:	b538      	push	{r3, r4, r5, lr}
 8002136:	4604      	mov	r4, r0
  uint32_t tmp = 0U;
  uint32_t tickstart = HAL_GetTick();
 8002138:	f7ff fd0a 	bl	8001b50 <HAL_GetTick>
  DMA_Base_Registers *regs;

  /* Check the DMA peripheral state */
  if(hdma == NULL)
 800213c:	2c00      	cmp	r4, #0
 800213e:	d06d      	beq.n	800221c <HAL_DMA_Init+0xe8>

  /* Allocate lock resource */
  __HAL_UNLOCK(hdma);
  
  /* Disable the peripheral */
  __HAL_DMA_DISABLE(hdma);
 8002140:	6823      	ldr	r3, [r4, #0]
  __HAL_UNLOCK(hdma);
 8002142:	2200      	movs	r2, #0
  hdma->State = HAL_DMA_STATE_BUSY;
 8002144:	2102      	movs	r1, #2
 8002146:	f884 1035 	strb.w	r1, [r4, #53]	@ 0x35
  __HAL_UNLOCK(hdma);
 800214a:	f884 2034 	strb.w	r2, [r4, #52]	@ 0x34
  __HAL_DMA_DISABLE(hdma);
 800214e:	681a      	ldr	r2, [r3, #0]
 8002150:	f022 0201 	bic.w	r2, r2, #1
 8002154:	4605      	mov	r5, r0
 8002156:	601a      	str	r2, [r3, #0]
  
  /* Check if the DMA Stream is effectively disabled */
  while((hdma->Instance->CR & DMA_SxCR_EN) != RESET)
 8002158:	e005      	b.n	8002166 <HAL_DMA_Init+0x32>
  {
    /* Check for the Timeout */
    if((HAL_GetTick() - tickstart ) > HAL_TIMEOUT_DMA_ABORT)
 800215a:	f7ff fcf9 	bl	8001b50 <HAL_GetTick>
 800215e:	1b43      	subs	r3, r0, r5
 8002160:	2b05      	cmp	r3, #5
 8002162:	d837      	bhi.n	80021d4 <HAL_DMA_Init+0xa0>
  while((hdma->Instance->CR & DMA_SxCR_EN) != RESET)
 8002164:	6823      	ldr	r3, [r4, #0]
 8002166:	681a      	ldr	r2, [r3, #0]
 8002168:	07d1      	lsls	r1, r2, #31
 800216a:	d4f6      	bmi.n	800215a <HAL_DMA_Init+0x26>
                      DMA_SxCR_PL    | DMA_SxCR_MSIZE  | DMA_SxCR_PSIZE  | \
                      DMA_SxCR_MINC  | DMA_SxCR_PINC   | DMA_SxCR_CIRC   | \
                      DMA_SxCR_DIR   | DMA_SxCR_CT     | DMA_SxCR_DBM));

  /* Prepare the DMA Stream configuration */
  tmp |=  hdma->Init.Channel             | hdma->Init.Direction        |
 800216c:	e9d4 2001 	ldrd	r2, r0, [r4, #4]
 8002170:	68e1      	ldr	r1, [r4, #12]
 8002172:	4302      	orrs	r2, r0
 8002174:	430a      	orrs	r2, r1
          hdma->Init.PeriphInc           | hdma->Init.MemInc           |
 8002176:	e9d4 5104 	ldrd	r5, r1, [r4, #16]
          hdma->Init.PeriphDataAlignment | hdma->Init.MemDataAlignment |
 800217a:	69a0      	ldr	r0, [r4, #24]
          hdma->Init.PeriphInc           | hdma->Init.MemInc           |
 800217c:	432a      	orrs	r2, r5
 800217e:	430a      	orrs	r2, r1
          hdma->Init.PeriphDataAlignment | hdma->Init.MemDataAlignment |
 8002180:	69e1      	ldr	r1, [r4, #28]
  tmp = hdma->Instance->CR;
 8002182:	681d      	ldr	r5, [r3, #0]
          hdma->Init.PeriphDataAlignment | hdma->Init.MemDataAlignment |
 8002184:	4302      	orrs	r2, r0
 8002186:	430a      	orrs	r2, r1
  tmp &= ((uint32_t)~(DMA_SxCR_CHSEL | DMA_SxCR_MBURST | DMA_SxCR_PBURST | \
 8002188:	4931      	ldr	r1, [pc, #196]	@ (8002250 <HAL_DMA_Init+0x11c>)
 800218a:	4029      	ands	r1, r5
          hdma->Init.Mode                | hdma->Init.Priority;
 800218c:	6a25      	ldr	r5, [r4, #32]
 800218e:	432a      	orrs	r2, r5
  tmp |=  hdma->Init.Channel             | hdma->Init.Direction        |
 8002190:	430a      	orrs	r2, r1

  /* the Memory burst and peripheral burst are not used when the FIFO is disabled */
  if(hdma->Init.FIFOMode == DMA_FIFOMODE_ENABLE)
 8002192:	6a61      	ldr	r1, [r4, #36]	@ 0x24
 8002194:	2904      	cmp	r1, #4
 8002196:	d024      	beq.n	80021e2 <HAL_DMA_Init+0xae>
    /* Get memory burst and peripheral burst */
    tmp |=  hdma->Init.MemBurst | hdma->Init.PeriphBurst;
  }
  
  /* Write to DMA Stream CR register */
  hdma->Instance->CR = tmp;  
 8002198:	601a      	str	r2, [r3, #0]

  /* Get the FCR register value */
  tmp = hdma->Instance->FCR;
 800219a:	695a      	ldr	r2, [r3, #20]

  /* Clear Direct mode and FIFO threshold bits */
  tmp &= (uint32_t)~(DMA_SxFCR_DMDIS | DMA_SxFCR_FTH);
 800219c:	f022 0207 	bic.w	r2, r2, #7

  /* Prepare the DMA Stream FIFO configuration */
  tmp |= hdma->Init.FIFOMode;
 80021a0:	4311      	orrs	r1, r2
  *                     the configuration information for the specified DMA Stream. 
  * @retval Stream base address
  */
static uint32_t DMA_CalcBaseAndBitshift(DMA_HandleTypeDef *hdma)
{
  uint32_t stream_number = (((uint32_t)hdma->Instance & 0xFFU) - 16U) / 24U;
 80021a2:	b2d8      	uxtb	r0, r3
 80021a4:	4a2b      	ldr	r2, [pc, #172]	@ (8002254 <HAL_DMA_Init+0x120>)
  hdma->Instance->FCR = tmp;
 80021a6:	6159      	str	r1, [r3, #20]
  uint32_t stream_number = (((uint32_t)hdma->Instance & 0xFFU) - 16U) / 24U;
 80021a8:	3810      	subs	r0, #16
 80021aa:	fba2 5200 	umull	r5, r2, r2, r0
 80021ae:	0912      	lsrs	r2, r2, #4
  
  /* lookup table for necessary bitshift of flags within status registers */
  static const uint8_t flagBitshiftOffset[8U] = {0U, 6U, 16U, 22U, 0U, 6U, 16U, 22U};
  hdma->StreamIndex = flagBitshiftOffset[stream_number];
 80021b0:	4929      	ldr	r1, [pc, #164]	@ (8002258 <HAL_DMA_Init+0x124>)
  
  if (stream_number > 3U)
  {
    /* return pointer to HISR and HIFCR */
    hdma->StreamBaseAddress = (((uint32_t)hdma->Instance & (uint32_t)(~0x3FFU)) + 4U);
 80021b2:	f36f 0309 	bfc	r3, #0, #10
  hdma->StreamIndex = flagBitshiftOffset[stream_number];
 80021b6:	5c89      	ldrb	r1, [r1, r2]
 80021b8:	65e1      	str	r1, [r4, #92]	@ 0x5c
  if (stream_number > 3U)
 80021ba:	285f      	cmp	r0, #95	@ 0x5f
    hdma->StreamBaseAddress = (((uint32_t)hdma->Instance & (uint32_t)(~0x3FFU)) + 4U);
 80021bc:	bf88      	it	hi
 80021be:	3304      	addhi	r3, #4
  regs->IFCR = 0x3FU << hdma->StreamIndex;
 80021c0:	223f      	movs	r2, #63	@ 0x3f
 80021c2:	408a      	lsls	r2, r1
 80021c4:	65a3      	str	r3, [r4, #88]	@ 0x58
  hdma->ErrorCode = HAL_DMA_ERROR_NONE;
 80021c6:	2000      	movs	r0, #0
  regs->IFCR = 0x3FU << hdma->StreamIndex;
 80021c8:	609a      	str	r2, [r3, #8]
  hdma->State = HAL_DMA_STATE_READY;
 80021ca:	2301      	movs	r3, #1
  hdma->ErrorCode = HAL_DMA_ERROR_NONE;
 80021cc:	6560      	str	r0, [r4, #84]	@ 0x54
  hdma->State = HAL_DMA_STATE_READY;
 80021ce:	f884 3035 	strb.w	r3, [r4, #53]	@ 0x35
}
 80021d2:	bd38      	pop	{r3, r4, r5, pc}
      hdma->State = HAL_DMA_STATE_TIMEOUT;
 80021d4:	2303      	movs	r3, #3
      hdma->ErrorCode = HAL_DMA_ERROR_TIMEOUT;
 80021d6:	2220      	movs	r2, #32
 80021d8:	6562      	str	r2, [r4, #84]	@ 0x54
      hdma->State = HAL_DMA_STATE_TIMEOUT;
 80021da:	f884 3035 	strb.w	r3, [r4, #53]	@ 0x35
      return HAL_TIMEOUT;
 80021de:	4618      	mov	r0, r3
}
 80021e0:	bd38      	pop	{r3, r4, r5, pc}
    tmp |=  hdma->Init.MemBurst | hdma->Init.PeriphBurst;
 80021e2:	e9d4 510b 	ldrd	r5, r1, [r4, #44]	@ 0x2c
 80021e6:	4329      	orrs	r1, r5
 80021e8:	4311      	orrs	r1, r2
  hdma->Instance->CR = tmp;  
 80021ea:	6019      	str	r1, [r3, #0]
  tmp = hdma->Instance->FCR;
 80021ec:	6959      	ldr	r1, [r3, #20]
    tmp |= hdma->Init.FIFOThreshold;
 80021ee:	6aa2      	ldr	r2, [r4, #40]	@ 0x28
  tmp &= (uint32_t)~(DMA_SxFCR_DMDIS | DMA_SxFCR_FTH);
 80021f0:	f021 0107 	bic.w	r1, r1, #7
 80021f4:	4311      	orrs	r1, r2
    tmp |= hdma->Init.FIFOThreshold;
 80021f6:	f041 0104 	orr.w	r1, r1, #4
    if (hdma->Init.MemBurst != DMA_MBURST_SINGLE)
 80021fa:	2d00      	cmp	r5, #0
 80021fc:	d0d1      	beq.n	80021a2 <HAL_DMA_Init+0x6e>
{
  HAL_StatusTypeDef status = HAL_OK;
  uint32_t tmp = hdma->Init.FIFOThreshold;
  
  /* Memory Data size equal to Byte */
  if(hdma->Init.MemDataAlignment == DMA_MDATAALIGN_BYTE)
 80021fe:	b178      	cbz	r0, 8002220 <HAL_DMA_Init+0xec>
      break;
    }
  }
  
  /* Memory Data size equal to Half-Word */
  else if (hdma->Init.MemDataAlignment == DMA_MDATAALIGN_HALFWORD)
 8002200:	f5b0 5f00 	cmp.w	r0, #8192	@ 0x2000
 8002204:	d016      	beq.n	8002234 <HAL_DMA_Init+0x100>
  }
  
  /* Memory Data size equal to Word */
  else
  {
    switch (tmp)
 8002206:	2a02      	cmp	r2, #2
 8002208:	d903      	bls.n	8002212 <HAL_DMA_Init+0xde>
 800220a:	2a03      	cmp	r2, #3
 800220c:	d1c9      	bne.n	80021a2 <HAL_DMA_Init+0x6e>
    case DMA_FIFO_THRESHOLD_HALFFULL:
    case DMA_FIFO_THRESHOLD_3QUARTERSFULL:
      status = HAL_ERROR;
      break;
    case DMA_FIFO_THRESHOLD_FULL:
      if ((hdma->Init.MemBurst & DMA_SxCR_MBURST_1) == DMA_SxCR_MBURST_1)
 800220e:	01ea      	lsls	r2, r5, #7
 8002210:	d5c7      	bpl.n	80021a2 <HAL_DMA_Init+0x6e>
        hdma->ErrorCode = HAL_DMA_ERROR_PARAM;
 8002212:	2240      	movs	r2, #64	@ 0x40
        hdma->State = HAL_DMA_STATE_READY;
 8002214:	2301      	movs	r3, #1
        hdma->ErrorCode = HAL_DMA_ERROR_PARAM;
 8002216:	6562      	str	r2, [r4, #84]	@ 0x54
        hdma->State = HAL_DMA_STATE_READY;
 8002218:	f884 3035 	strb.w	r3, [r4, #53]	@ 0x35
    return HAL_ERROR;
 800221c:	2001      	movs	r0, #1
}
 800221e:	bd38      	pop	{r3, r4, r5, pc}
    switch (tmp)
 8002220:	2a01      	cmp	r2, #1
 8002222:	d003      	beq.n	800222c <HAL_DMA_Init+0xf8>
 8002224:	f032 0202 	bics.w	r2, r2, #2
 8002228:	d1bb      	bne.n	80021a2 <HAL_DMA_Init+0x6e>
 800222a:	e7f0      	b.n	800220e <HAL_DMA_Init+0xda>
      if (hdma->Init.MemBurst == DMA_MBURST_INC16)
 800222c:	f1b5 7fc0 	cmp.w	r5, #25165824	@ 0x1800000
 8002230:	d1b7      	bne.n	80021a2 <HAL_DMA_Init+0x6e>
 8002232:	e7ee      	b.n	8002212 <HAL_DMA_Init+0xde>
    switch (tmp)
 8002234:	2a03      	cmp	r2, #3
 8002236:	d8b4      	bhi.n	80021a2 <HAL_DMA_Init+0x6e>
 8002238:	a001      	add	r0, pc, #4	@ (adr r0, 8002240 <HAL_DMA_Init+0x10c>)
 800223a:	f850 f022 	ldr.w	pc, [r0, r2, lsl #2]
 800223e:	bf00      	nop
 8002240:	08002213 	.word	0x08002213
 8002244:	0800220f 	.word	0x0800220f
 8002248:	08002213 	.word	0x08002213
 800224c:	0800222d 	.word	0x0800222d
 8002250:	f010803f 	.word	0xf010803f
 8002254:	aaaaaaab 	.word	0xaaaaaaab
 8002258:	080079e0 	.word	0x080079e0

0800225c <HAL_DMA_Start_IT>:
{
 800225c:	b470      	push	{r4, r5, r6}
  __HAL_LOCK(hdma);
 800225e:	f890 4034 	ldrb.w	r4, [r0, #52]	@ 0x34
  DMA_Base_Registers *regs = (DMA_Base_Registers *)hdma->StreamBaseAddress;
 8002262:	6d85      	ldr	r5, [r0, #88]	@ 0x58
  __HAL_LOCK(hdma);
 8002264:	2c01      	cmp	r4, #1
 8002266:	d00a      	beq.n	800227e <HAL_DMA_Start_IT+0x22>
  if(HAL_DMA_STATE_READY == hdma->State)
 8002268:	f890 4035 	ldrb.w	r4, [r0, #53]	@ 0x35
  __HAL_LOCK(hdma);
 800226c:	f04f 0c01 	mov.w	ip, #1
  if(HAL_DMA_STATE_READY == hdma->State)
 8002270:	4564      	cmp	r4, ip
  __HAL_LOCK(hdma);
 8002272:	f880 c034 	strb.w	ip, [r0, #52]	@ 0x34
  if(HAL_DMA_STATE_READY == hdma->State)
 8002276:	d005      	beq.n	8002284 <HAL_DMA_Start_IT+0x28>
    __HAL_UNLOCK(hdma);	  
 8002278:	2300      	movs	r3, #0
 800227a:	f880 3034 	strb.w	r3, [r0, #52]	@ 0x34
  __HAL_LOCK(hdma);
 800227e:	2002      	movs	r0, #2
}
 8002280:	bc70      	pop	{r4, r5, r6}
 8002282:	4770      	bx	lr
    hdma->State = HAL_DMA_STATE_BUSY;
 8002284:	2602      	movs	r6, #2
 8002286:	f880 6035 	strb.w	r6, [r0, #53]	@ 0x35
  hdma->Instance->CR &= (uint32_t)(~DMA_SxCR_DBM);
 800228a:	6804      	ldr	r4, [r0, #0]
    hdma->ErrorCode = HAL_DMA_ERROR_NONE;
 800228c:	2600      	movs	r6, #0
 800228e:	6546      	str	r6, [r0, #84]	@ 0x54
  hdma->Instance->CR &= (uint32_t)(~DMA_SxCR_DBM);
 8002290:	6826      	ldr	r6, [r4, #0]
 8002292:	f426 2680 	bic.w	r6, r6, #262144	@ 0x40000
 8002296:	6026      	str	r6, [r4, #0]
  hdma->Instance->NDTR = DataLength;
 8002298:	6063      	str	r3, [r4, #4]
  if((hdma->Init.Direction) == DMA_MEMORY_TO_PERIPH)
 800229a:	6883      	ldr	r3, [r0, #8]
 800229c:	2b40      	cmp	r3, #64	@ 0x40
    hdma->Instance->PAR = DstAddress;
 800229e:	bf0e      	itee	eq
 80022a0:	60a2      	streq	r2, [r4, #8]
    hdma->Instance->PAR = SrcAddress;
 80022a2:	60a1      	strne	r1, [r4, #8]
    hdma->Instance->M0AR = DstAddress;
 80022a4:	60e2      	strne	r2, [r4, #12]
    regs->IFCR = 0x3FU << hdma->StreamIndex;
 80022a6:	6dc2      	ldr	r2, [r0, #92]	@ 0x5c
    hdma->Instance->M0AR = SrcAddress;
 80022a8:	bf08      	it	eq
 80022aa:	60e1      	streq	r1, [r4, #12]
    regs->IFCR = 0x3FU << hdma->StreamIndex;
 80022ac:	233f      	movs	r3, #63	@ 0x3f
 80022ae:	4093      	lsls	r3, r2
 80022b0:	60ab      	str	r3, [r5, #8]
    hdma->Instance->CR  |= DMA_IT_TC | DMA_IT_TE | DMA_IT_DME;
 80022b2:	6823      	ldr	r3, [r4, #0]
    if(hdma->XferHalfCpltCallback != NULL)
 80022b4:	6c02      	ldr	r2, [r0, #64]	@ 0x40
    hdma->Instance->CR  |= DMA_IT_TC | DMA_IT_TE | DMA_IT_DME;
 80022b6:	f043 0316 	orr.w	r3, r3, #22
 80022ba:	6023      	str	r3, [r4, #0]
    if(hdma->XferHalfCpltCallback != NULL)
 80022bc:	b11a      	cbz	r2, 80022c6 <HAL_DMA_Start_IT+0x6a>
      hdma->Instance->CR  |= DMA_IT_HT;
 80022be:	6823      	ldr	r3, [r4, #0]
 80022c0:	f043 0308 	orr.w	r3, r3, #8
 80022c4:	6023      	str	r3, [r4, #0]
    __HAL_DMA_ENABLE(hdma);
 80022c6:	6823      	ldr	r3, [r4, #0]
 80022c8:	f043 0301 	orr.w	r3, r3, #1
  HAL_StatusTypeDef status = HAL_OK;
 80022cc:	2000      	movs	r0, #0
    __HAL_DMA_ENABLE(hdma);
 80022ce:	6023      	str	r3, [r4, #0]
}
 80022d0:	bc70      	pop	{r4, r5, r6}
 80022d2:	4770      	bx	lr

080022d4 <HAL_DMA_IRQHandler>:
{
 80022d4:	b5f0      	push	{r4, r5, r6, r7, lr}
 80022d6:	b083      	sub	sp, #12
  uint32_t timeout = SystemCoreClock / 9600U;
 80022d8:	4a67      	ldr	r2, [pc, #412]	@ (8002478 <HAL_DMA_IRQHandler+0x1a4>)
  DMA_Base_Registers *regs = (DMA_Base_Registers *)hdma->StreamBaseAddress;
 80022da:	6d87      	ldr	r7, [r0, #88]	@ 0x58
  uint32_t timeout = SystemCoreClock / 9600U;
 80022dc:	6816      	ldr	r6, [r2, #0]
  __IO uint32_t count = 0U;
 80022de:	2300      	movs	r3, #0
 80022e0:	9301      	str	r3, [sp, #4]
  if ((tmpisr & (DMA_FLAG_TEIF0_4 << hdma->StreamIndex)) != RESET)
 80022e2:	6dc3      	ldr	r3, [r0, #92]	@ 0x5c
  tmpisr = regs->ISR;
 80022e4:	683d      	ldr	r5, [r7, #0]
  if ((tmpisr & (DMA_FLAG_TEIF0_4 << hdma->StreamIndex)) != RESET)
 80022e6:	2208      	movs	r2, #8
 80022e8:	409a      	lsls	r2, r3
 80022ea:	422a      	tst	r2, r5
{
 80022ec:	4604      	mov	r4, r0
  if ((tmpisr & (DMA_FLAG_TEIF0_4 << hdma->StreamIndex)) != RESET)
 80022ee:	d003      	beq.n	80022f8 <HAL_DMA_IRQHandler+0x24>
    if(__HAL_DMA_GET_IT_SOURCE(hdma, DMA_IT_TE) != RESET)
 80022f0:	6801      	ldr	r1, [r0, #0]
 80022f2:	6808      	ldr	r0, [r1, #0]
 80022f4:	0740      	lsls	r0, r0, #29
 80022f6:	d478      	bmi.n	80023ea <HAL_DMA_IRQHandler+0x116>
  if ((tmpisr & (DMA_FLAG_FEIF0_4 << hdma->StreamIndex)) != RESET)
 80022f8:	2201      	movs	r2, #1
 80022fa:	409a      	lsls	r2, r3
 80022fc:	422a      	tst	r2, r5
 80022fe:	d003      	beq.n	8002308 <HAL_DMA_IRQHandler+0x34>
    if(__HAL_DMA_GET_IT_SOURCE(hdma, DMA_IT_FE) != RESET)
 8002300:	6821      	ldr	r1, [r4, #0]
 8002302:	6949      	ldr	r1, [r1, #20]
 8002304:	0608      	lsls	r0, r1, #24
 8002306:	d46a      	bmi.n	80023de <HAL_DMA_IRQHandler+0x10a>
  if ((tmpisr & (DMA_FLAG_DMEIF0_4 << hdma->StreamIndex)) != RESET)
 8002308:	2204      	movs	r2, #4
 800230a:	409a      	lsls	r2, r3
 800230c:	422a      	tst	r2, r5
 800230e:	d003      	beq.n	8002318 <HAL_DMA_IRQHandler+0x44>
    if(__HAL_DMA_GET_IT_SOURCE(hdma, DMA_IT_DME) != RESET)
 8002310:	6821      	ldr	r1, [r4, #0]
 8002312:	6809      	ldr	r1, [r1, #0]
 8002314:	0789      	lsls	r1, r1, #30
 8002316:	d45c      	bmi.n	80023d2 <HAL_DMA_IRQHandler+0xfe>
  if ((tmpisr & (DMA_FLAG_HTIF0_4 << hdma->StreamIndex)) != RESET)
 8002318:	2210      	movs	r2, #16
 800231a:	409a      	lsls	r2, r3
 800231c:	422a      	tst	r2, r5
 800231e:	d003      	beq.n	8002328 <HAL_DMA_IRQHandler+0x54>
    if(__HAL_DMA_GET_IT_SOURCE(hdma, DMA_IT_HT) != RESET)
 8002320:	6821      	ldr	r1, [r4, #0]
 8002322:	6808      	ldr	r0, [r1, #0]
 8002324:	0700      	lsls	r0, r0, #28
 8002326:	d441      	bmi.n	80023ac <HAL_DMA_IRQHandler+0xd8>
  if ((tmpisr & (DMA_FLAG_TCIF0_4 << hdma->StreamIndex)) != RESET)
 8002328:	2220      	movs	r2, #32
 800232a:	409a      	lsls	r2, r3
 800232c:	422a      	tst	r2, r5
 800232e:	d014      	beq.n	800235a <HAL_DMA_IRQHandler+0x86>
    if(__HAL_DMA_GET_IT_SOURCE(hdma, DMA_IT_TC) != RESET)
 8002330:	6821      	ldr	r1, [r4, #0]
 8002332:	6808      	ldr	r0, [r1, #0]
 8002334:	06c0      	lsls	r0, r0, #27
 8002336:	d510      	bpl.n	800235a <HAL_DMA_IRQHandler+0x86>
      regs->IFCR = DMA_FLAG_TCIF0_4 << hdma->StreamIndex;
 8002338:	60ba      	str	r2, [r7, #8]
      if(HAL_DMA_STATE_ABORT == hdma->State)
 800233a:	f894 2035 	ldrb.w	r2, [r4, #53]	@ 0x35
 800233e:	2a05      	cmp	r2, #5
 8002340:	d063      	beq.n	800240a <HAL_DMA_IRQHandler+0x136>
      if(((hdma->Instance->CR) & (uint32_t)(DMA_SxCR_DBM)) != RESET)
 8002342:	680b      	ldr	r3, [r1, #0]
 8002344:	f413 2f80 	tst.w	r3, #262144	@ 0x40000
        if((hdma->Instance->CR & DMA_SxCR_CT) == RESET)
 8002348:	680b      	ldr	r3, [r1, #0]
      if(((hdma->Instance->CR) & (uint32_t)(DMA_SxCR_DBM)) != RESET)
 800234a:	d07e      	beq.n	800244a <HAL_DMA_IRQHandler+0x176>
        if((hdma->Instance->CR & DMA_SxCR_CT) == RESET)
 800234c:	0319      	lsls	r1, r3, #12
 800234e:	f140 8089 	bpl.w	8002464 <HAL_DMA_IRQHandler+0x190>
        if(hdma->XferCpltCallback != NULL)
 8002352:	6be3      	ldr	r3, [r4, #60]	@ 0x3c
 8002354:	b10b      	cbz	r3, 800235a <HAL_DMA_IRQHandler+0x86>
          hdma->XferCpltCallback(hdma);
 8002356:	4620      	mov	r0, r4
 8002358:	4798      	blx	r3
  if(hdma->ErrorCode != HAL_DMA_ERROR_NONE)
 800235a:	6d63      	ldr	r3, [r4, #84]	@ 0x54
 800235c:	b323      	cbz	r3, 80023a8 <HAL_DMA_IRQHandler+0xd4>
    if((hdma->ErrorCode & HAL_DMA_ERROR_TE) != RESET)
 800235e:	6d63      	ldr	r3, [r4, #84]	@ 0x54
 8002360:	07da      	lsls	r2, r3, #31
 8002362:	d51a      	bpl.n	800239a <HAL_DMA_IRQHandler+0xc6>
      __HAL_DMA_DISABLE(hdma);
 8002364:	6822      	ldr	r2, [r4, #0]
  uint32_t timeout = SystemCoreClock / 9600U;
 8002366:	4945      	ldr	r1, [pc, #276]	@ (800247c <HAL_DMA_IRQHandler+0x1a8>)
      hdma->State = HAL_DMA_STATE_ABORT;
 8002368:	2305      	movs	r3, #5
 800236a:	f884 3035 	strb.w	r3, [r4, #53]	@ 0x35
      __HAL_DMA_DISABLE(hdma);
 800236e:	6813      	ldr	r3, [r2, #0]
  uint32_t timeout = SystemCoreClock / 9600U;
 8002370:	fba1 1606 	umull	r1, r6, r1, r6
      __HAL_DMA_DISABLE(hdma);
 8002374:	f023 0301 	bic.w	r3, r3, #1
  uint32_t timeout = SystemCoreClock / 9600U;
 8002378:	0ab6      	lsrs	r6, r6, #10
      __HAL_DMA_DISABLE(hdma);
 800237a:	6013      	str	r3, [r2, #0]
 800237c:	e002      	b.n	8002384 <HAL_DMA_IRQHandler+0xb0>
      while((hdma->Instance->CR & DMA_SxCR_EN) != RESET);
 800237e:	6813      	ldr	r3, [r2, #0]
 8002380:	07db      	lsls	r3, r3, #31
 8002382:	d504      	bpl.n	800238e <HAL_DMA_IRQHandler+0xba>
        if (++count > timeout)
 8002384:	9b01      	ldr	r3, [sp, #4]
 8002386:	3301      	adds	r3, #1
 8002388:	42b3      	cmp	r3, r6
 800238a:	9301      	str	r3, [sp, #4]
 800238c:	d9f7      	bls.n	800237e <HAL_DMA_IRQHandler+0xaa>
      hdma->State = HAL_DMA_STATE_READY;
 800238e:	2201      	movs	r2, #1
      __HAL_UNLOCK(hdma);
 8002390:	2300      	movs	r3, #0
      hdma->State = HAL_DMA_STATE_READY;
 8002392:	f884 2035 	strb.w	r2, [r4, #53]	@ 0x35
      __HAL_UNLOCK(hdma);
 8002396:	f884 3034 	strb.w	r3, [r4, #52]	@ 0x34
    if(hdma->XferErrorCallback != NULL)
 800239a:	6ce3      	ldr	r3, [r4, #76]	@ 0x4c
 800239c:	b123      	cbz	r3, 80023a8 <HAL_DMA_IRQHandler+0xd4>
      hdma->XferErrorCallback(hdma);
 800239e:	4620      	mov	r0, r4
}
 80023a0:	b003      	add	sp, #12
 80023a2:	e8bd 40f0 	ldmia.w	sp!, {r4, r5, r6, r7, lr}
      hdma->XferErrorCallback(hdma);
 80023a6:	4718      	bx	r3
}
 80023a8:	b003      	add	sp, #12
 80023aa:	bdf0      	pop	{r4, r5, r6, r7, pc}
      regs->IFCR = DMA_FLAG_HTIF0_4 << hdma->StreamIndex;
 80023ac:	60ba      	str	r2, [r7, #8]
      if(((hdma->Instance->CR) & (uint32_t)(DMA_SxCR_DBM)) != RESET)
 80023ae:	680a      	ldr	r2, [r1, #0]
 80023b0:	f412 2f80 	tst.w	r2, #262144	@ 0x40000
        if((hdma->Instance->CR & DMA_SxCR_CT) == RESET)
 80023b4:	680a      	ldr	r2, [r1, #0]
      if(((hdma->Instance->CR) & (uint32_t)(DMA_SxCR_DBM)) != RESET)
 80023b6:	d122      	bne.n	80023fe <HAL_DMA_IRQHandler+0x12a>
        if((hdma->Instance->CR & DMA_SxCR_CIRC) == RESET)
 80023b8:	05d2      	lsls	r2, r2, #23
 80023ba:	d403      	bmi.n	80023c4 <HAL_DMA_IRQHandler+0xf0>
          hdma->Instance->CR  &= ~(DMA_IT_HT);
 80023bc:	680a      	ldr	r2, [r1, #0]
 80023be:	f022 0208 	bic.w	r2, r2, #8
 80023c2:	600a      	str	r2, [r1, #0]
        if(hdma->XferHalfCpltCallback != NULL)
 80023c4:	6c22      	ldr	r2, [r4, #64]	@ 0x40
 80023c6:	2a00      	cmp	r2, #0
 80023c8:	d0ae      	beq.n	8002328 <HAL_DMA_IRQHandler+0x54>
          hdma->XferHalfCpltCallback(hdma);
 80023ca:	4620      	mov	r0, r4
 80023cc:	4790      	blx	r2
  if ((tmpisr & (DMA_FLAG_TCIF0_4 << hdma->StreamIndex)) != RESET)
 80023ce:	6de3      	ldr	r3, [r4, #92]	@ 0x5c
 80023d0:	e7aa      	b.n	8002328 <HAL_DMA_IRQHandler+0x54>
      regs->IFCR = DMA_FLAG_DMEIF0_4 << hdma->StreamIndex;
 80023d2:	60ba      	str	r2, [r7, #8]
      hdma->ErrorCode |= HAL_DMA_ERROR_DME;
 80023d4:	6d62      	ldr	r2, [r4, #84]	@ 0x54
 80023d6:	f042 0204 	orr.w	r2, r2, #4
 80023da:	6562      	str	r2, [r4, #84]	@ 0x54
 80023dc:	e79c      	b.n	8002318 <HAL_DMA_IRQHandler+0x44>
      regs->IFCR = DMA_FLAG_FEIF0_4 << hdma->StreamIndex;
 80023de:	60ba      	str	r2, [r7, #8]
      hdma->ErrorCode |= HAL_DMA_ERROR_FE;
 80023e0:	6d62      	ldr	r2, [r4, #84]	@ 0x54
 80023e2:	f042 0202 	orr.w	r2, r2, #2
 80023e6:	6562      	str	r2, [r4, #84]	@ 0x54
 80023e8:	e78e      	b.n	8002308 <HAL_DMA_IRQHandler+0x34>
      hdma->Instance->CR  &= ~(DMA_IT_TE);
 80023ea:	6808      	ldr	r0, [r1, #0]
 80023ec:	f020 0004 	bic.w	r0, r0, #4
 80023f0:	6008      	str	r0, [r1, #0]
      regs->IFCR = DMA_FLAG_TEIF0_4 << hdma->StreamIndex;
 80023f2:	60ba      	str	r2, [r7, #8]
      hdma->ErrorCode |= HAL_DMA_ERROR_TE;
 80023f4:	6d62      	ldr	r2, [r4, #84]	@ 0x54
 80023f6:	f042 0201 	orr.w	r2, r2, #1
 80023fa:	6562      	str	r2, [r4, #84]	@ 0x54
 80023fc:	e77c      	b.n	80022f8 <HAL_DMA_IRQHandler+0x24>
        if((hdma->Instance->CR & DMA_SxCR_CT) == RESET)
 80023fe:	0311      	lsls	r1, r2, #12
 8002400:	d5e0      	bpl.n	80023c4 <HAL_DMA_IRQHandler+0xf0>
          if(hdma->XferM1HalfCpltCallback != NULL)
 8002402:	6ca2      	ldr	r2, [r4, #72]	@ 0x48
 8002404:	2a00      	cmp	r2, #0
 8002406:	d1e0      	bne.n	80023ca <HAL_DMA_IRQHandler+0xf6>
 8002408:	e78e      	b.n	8002328 <HAL_DMA_IRQHandler+0x54>
        hdma->Instance->CR  &= ~(DMA_IT_TC | DMA_IT_TE | DMA_IT_DME);
 800240a:	680a      	ldr	r2, [r1, #0]
 800240c:	f022 0216 	bic.w	r2, r2, #22
 8002410:	600a      	str	r2, [r1, #0]
        hdma->Instance->FCR &= ~(DMA_IT_FE);
 8002412:	694a      	ldr	r2, [r1, #20]
 8002414:	f022 0280 	bic.w	r2, r2, #128	@ 0x80
 8002418:	614a      	str	r2, [r1, #20]
        if((hdma->XferHalfCpltCallback != NULL) || (hdma->XferM1HalfCpltCallback != NULL))
 800241a:	6c22      	ldr	r2, [r4, #64]	@ 0x40
 800241c:	b33a      	cbz	r2, 800246e <HAL_DMA_IRQHandler+0x19a>
          hdma->Instance->CR  &= ~(DMA_IT_HT);
 800241e:	680a      	ldr	r2, [r1, #0]
 8002420:	f022 0208 	bic.w	r2, r2, #8
 8002424:	600a      	str	r2, [r1, #0]
        regs->IFCR = 0x3FU << hdma->StreamIndex;
 8002426:	223f      	movs	r2, #63	@ 0x3f
 8002428:	fa02 f303 	lsl.w	r3, r2, r3
        if(hdma->XferAbortCallback != NULL)
 800242c:	6d21      	ldr	r1, [r4, #80]	@ 0x50
        regs->IFCR = 0x3FU << hdma->StreamIndex;
 800242e:	60bb      	str	r3, [r7, #8]
        hdma->State = HAL_DMA_STATE_READY;
 8002430:	2201      	movs	r2, #1
        __HAL_UNLOCK(hdma);
 8002432:	2300      	movs	r3, #0
        hdma->State = HAL_DMA_STATE_READY;
 8002434:	f884 2035 	strb.w	r2, [r4, #53]	@ 0x35
        __HAL_UNLOCK(hdma);
 8002438:	f884 3034 	strb.w	r3, [r4, #52]	@ 0x34
        if(hdma->XferAbortCallback != NULL)
 800243c:	2900      	cmp	r1, #0
 800243e:	d0b3      	beq.n	80023a8 <HAL_DMA_IRQHandler+0xd4>
          hdma->XferAbortCallback(hdma);
 8002440:	4620      	mov	r0, r4
}
 8002442:	b003      	add	sp, #12
 8002444:	e8bd 40f0 	ldmia.w	sp!, {r4, r5, r6, r7, lr}
          hdma->XferAbortCallback(hdma);
 8002448:	4708      	bx	r1
        if((hdma->Instance->CR & DMA_SxCR_CIRC) == RESET)
 800244a:	f413 7380 	ands.w	r3, r3, #256	@ 0x100
 800244e:	d180      	bne.n	8002352 <HAL_DMA_IRQHandler+0x7e>
          hdma->Instance->CR  &= ~(DMA_IT_TC);
 8002450:	680a      	ldr	r2, [r1, #0]
 8002452:	f022 0210 	bic.w	r2, r2, #16
 8002456:	600a      	str	r2, [r1, #0]
          hdma->State = HAL_DMA_STATE_READY;
 8002458:	2201      	movs	r2, #1
 800245a:	f884 2035 	strb.w	r2, [r4, #53]	@ 0x35
          __HAL_UNLOCK(hdma);
 800245e:	f884 3034 	strb.w	r3, [r4, #52]	@ 0x34
 8002462:	e776      	b.n	8002352 <HAL_DMA_IRQHandler+0x7e>
          if(hdma->XferM1CpltCallback != NULL)
 8002464:	6c63      	ldr	r3, [r4, #68]	@ 0x44
 8002466:	2b00      	cmp	r3, #0
 8002468:	f47f af75 	bne.w	8002356 <HAL_DMA_IRQHandler+0x82>
 800246c:	e775      	b.n	800235a <HAL_DMA_IRQHandler+0x86>
        if((hdma->XferHalfCpltCallback != NULL) || (hdma->XferM1HalfCpltCallback != NULL))
 800246e:	6ca2      	ldr	r2, [r4, #72]	@ 0x48
 8002470:	2a00      	cmp	r2, #0
 8002472:	d1d4      	bne.n	800241e <HAL_DMA_IRQHandler+0x14a>
 8002474:	e7d7      	b.n	8002426 <HAL_DMA_IRQHandler+0x152>
 8002476:	bf00      	nop
 8002478:	20000008 	.word	0x20000008
 800247c:	1b4e81b5 	.word	0x1b4e81b5

08002480 <HAL_GPIO_Init>:
  * @param  GPIO_Init pointer to a GPIO_InitTypeDef structure that contains
  *         the configuration information for the specified GPIO peripheral.
  * @retval None
  */
void HAL_GPIO_Init(GPIO_TypeDef  *GPIOx, GPIO_InitTypeDef *GPIO_Init)
{
 8002480:	e92d 4ff0 	stmdb	sp!, {r4, r5, r6, r7, r8, r9, sl, fp, lr}
 8002484:	4aa4      	ldr	r2, [pc, #656]	@ (8002718 <HAL_GPIO_Init+0x298>)
  for(position = 0U; position < GPIO_NUMBER; position++)
  {
    /* Get the IO position */
    ioposition = 0x01U << position;
    /* Get the current IO position */
    iocurrent = (uint32_t)(GPIO_Init->Pin) & ioposition;
 8002486:	680b      	ldr	r3, [r1, #0]
 8002488:	4290      	cmp	r0, r2
{
 800248a:	b085      	sub	sp, #20
  for(position = 0U; position < GPIO_NUMBER; position++)
 800248c:	f04f 0200 	mov.w	r2, #0
 8002490:	f000 80d4 	beq.w	800263c <HAL_GPIO_Init+0x1bc>
        temp &= ~(0x0FU << (4U * (position & 0x03U)));
        temp |= ((uint32_t)(GPIO_GET_INDEX(GPIOx)) << (4U * (position & 0x03U)));
        SYSCFG->EXTICR[position >> 2U] = temp;

        /* Clear Rising Falling edge configuration */
        temp = EXTI->RTSR;
 8002494:	f8df 8290 	ldr.w	r8, [pc, #656]	@ 8002728 <HAL_GPIO_Init+0x2a8>
    ioposition = 0x01U << position;
 8002498:	f04f 0b01 	mov.w	fp, #1
        temp &= ~(0x0FU << (4U * (position & 0x03U)));
 800249c:	468a      	mov	sl, r1
 800249e:	e003      	b.n	80024a8 <HAL_GPIO_Init+0x28>
  for(position = 0U; position < GPIO_NUMBER; position++)
 80024a0:	3201      	adds	r2, #1
 80024a2:	2a10      	cmp	r2, #16
 80024a4:	f000 809e 	beq.w	80025e4 <HAL_GPIO_Init+0x164>
    ioposition = 0x01U << position;
 80024a8:	fa0b f102 	lsl.w	r1, fp, r2
    iocurrent = (uint32_t)(GPIO_Init->Pin) & ioposition;
 80024ac:	ea01 0603 	and.w	r6, r1, r3
    if(iocurrent == ioposition)
 80024b0:	4399      	bics	r1, r3
 80024b2:	d1f5      	bne.n	80024a0 <HAL_GPIO_Init+0x20>
      if(((GPIO_Init->Mode & GPIO_MODE) == MODE_OUTPUT) || \
 80024b4:	f8da 4004 	ldr.w	r4, [sl, #4]
 80024b8:	f004 0c03 	and.w	ip, r4, #3
 80024bc:	0051      	lsls	r1, r2, #1
        temp &= ~(GPIO_OSPEEDER_OSPEEDR0 << (position * 2U));
 80024be:	2503      	movs	r5, #3
      if(((GPIO_Init->Mode & GPIO_MODE) == MODE_OUTPUT) || \
 80024c0:	f10c 37ff 	add.w	r7, ip, #4294967295
        temp &= ~(GPIO_OSPEEDER_OSPEEDR0 << (position * 2U));
 80024c4:	408d      	lsls	r5, r1
      if(((GPIO_Init->Mode & GPIO_MODE) == MODE_OUTPUT) || \
 80024c6:	2f01      	cmp	r7, #1
        temp &= ~(GPIO_OSPEEDER_OSPEEDR0 << (position * 2U));
 80024c8:	ea6f 0505 	mvn.w	r5, r5
      if(((GPIO_Init->Mode & GPIO_MODE) == MODE_OUTPUT) || \
 80024cc:	d950      	bls.n	8002570 <HAL_GPIO_Init+0xf0>
      if((GPIO_Init->Mode & GPIO_MODE) != MODE_ANALOG)
 80024ce:	f1bc 0f03 	cmp.w	ip, #3
 80024d2:	f040 81a5 	bne.w	8002820 <HAL_GPIO_Init+0x3a0>
      temp = GPIOx->MODER;
 80024d6:	6807      	ldr	r7, [r0, #0]
      temp |= ((GPIO_Init->Mode & GPIO_MODE) << (position * 2U));
 80024d8:	fa0c f101 	lsl.w	r1, ip, r1
      temp &= ~(GPIO_MODER_MODER0 << (position * 2U));
 80024dc:	403d      	ands	r5, r7
      temp |= ((GPIO_Init->Mode & GPIO_MODE) << (position * 2U));
 80024de:	4329      	orrs	r1, r5
      if((GPIO_Init->Mode & EXTI_MODE) != 0x00U)
 80024e0:	f414 3f40 	tst.w	r4, #196608	@ 0x30000
      GPIOx->MODER = temp;
 80024e4:	6001      	str	r1, [r0, #0]
      if((GPIO_Init->Mode & EXTI_MODE) != 0x00U)
 80024e6:	d0db      	beq.n	80024a0 <HAL_GPIO_Init+0x20>
        __HAL_RCC_SYSCFG_CLK_ENABLE();
 80024e8:	4d8c      	ldr	r5, [pc, #560]	@ (800271c <HAL_GPIO_Init+0x29c>)
 80024ea:	2100      	movs	r1, #0
 80024ec:	9103      	str	r1, [sp, #12]
 80024ee:	6c69      	ldr	r1, [r5, #68]	@ 0x44
 80024f0:	f441 4180 	orr.w	r1, r1, #16384	@ 0x4000
 80024f4:	6469      	str	r1, [r5, #68]	@ 0x44
 80024f6:	6c69      	ldr	r1, [r5, #68]	@ 0x44
 80024f8:	f401 4180 	and.w	r1, r1, #16384	@ 0x4000
 80024fc:	9103      	str	r1, [sp, #12]
 80024fe:	9903      	ldr	r1, [sp, #12]
        temp = SYSCFG->EXTICR[position >> 2U];
 8002500:	f022 0103 	bic.w	r1, r2, #3
 8002504:	f101 4180 	add.w	r1, r1, #1073741824	@ 0x40000000
 8002508:	f501 319c 	add.w	r1, r1, #79872	@ 0x13800
        temp &= ~(0x0FU << (4U * (position & 0x03U)));
 800250c:	f002 0703 	and.w	r7, r2, #3
        temp = SYSCFG->EXTICR[position >> 2U];
 8002510:	688d      	ldr	r5, [r1, #8]
        temp &= ~(0x0FU << (4U * (position & 0x03U)));
 8002512:	00bf      	lsls	r7, r7, #2
 8002514:	f04f 0c0f 	mov.w	ip, #15
 8002518:	fa0c fc07 	lsl.w	ip, ip, r7
 800251c:	ea25 0e0c 	bic.w	lr, r5, ip
        temp |= ((uint32_t)(GPIO_GET_INDEX(GPIOx)) << (4U * (position & 0x03U)));
 8002520:	4d7f      	ldr	r5, [pc, #508]	@ (8002720 <HAL_GPIO_Init+0x2a0>)
 8002522:	42a8      	cmp	r0, r5
 8002524:	d061      	beq.n	80025ea <HAL_GPIO_Init+0x16a>
 8002526:	4d7f      	ldr	r5, [pc, #508]	@ (8002724 <HAL_GPIO_Init+0x2a4>)
 8002528:	42a8      	cmp	r0, r5
 800252a:	f000 8156 	beq.w	80027da <HAL_GPIO_Init+0x35a>
 800252e:	f8df c1fc 	ldr.w	ip, [pc, #508]	@ 800272c <HAL_GPIO_Init+0x2ac>
 8002532:	4560      	cmp	r0, ip
 8002534:	f000 8158 	beq.w	80027e8 <HAL_GPIO_Init+0x368>
 8002538:	f8df c1f4 	ldr.w	ip, [pc, #500]	@ 8002730 <HAL_GPIO_Init+0x2b0>
 800253c:	4560      	cmp	r0, ip
 800253e:	f000 8161 	beq.w	8002804 <HAL_GPIO_Init+0x384>
 8002542:	f8df c1f0 	ldr.w	ip, [pc, #496]	@ 8002734 <HAL_GPIO_Init+0x2b4>
 8002546:	4560      	cmp	r0, ip
 8002548:	f000 8163 	beq.w	8002812 <HAL_GPIO_Init+0x392>
 800254c:	f8df c1e8 	ldr.w	ip, [pc, #488]	@ 8002738 <HAL_GPIO_Init+0x2b8>
 8002550:	4560      	cmp	r0, ip
 8002552:	f000 8150 	beq.w	80027f6 <HAL_GPIO_Init+0x376>
 8002556:	f8df c1e4 	ldr.w	ip, [pc, #484]	@ 800273c <HAL_GPIO_Init+0x2bc>
 800255a:	4560      	cmp	r0, ip
 800255c:	bf0c      	ite	eq
 800255e:	f04f 0c07 	moveq.w	ip, #7
 8002562:	f04f 0c08 	movne.w	ip, #8
 8002566:	fa0c f707 	lsl.w	r7, ip, r7
 800256a:	ea4e 0507 	orr.w	r5, lr, r7
 800256e:	e042      	b.n	80025f6 <HAL_GPIO_Init+0x176>
        temp = GPIOx->OSPEEDR; 
 8002570:	6887      	ldr	r7, [r0, #8]
        temp &= ~(GPIO_OSPEEDER_OSPEEDR0 << (position * 2U));
 8002572:	ea07 0e05 	and.w	lr, r7, r5
        temp |= (GPIO_Init->Speed << (position * 2U));
 8002576:	f8da 700c 	ldr.w	r7, [sl, #12]
 800257a:	408f      	lsls	r7, r1
 800257c:	ea47 070e 	orr.w	r7, r7, lr
        GPIOx->OSPEEDR = temp;
 8002580:	6087      	str	r7, [r0, #8]
        temp = GPIOx->OTYPER;
 8002582:	6847      	ldr	r7, [r0, #4]
        temp &= ~(GPIO_OTYPER_OT_0 << position) ;
 8002584:	ea27 0e06 	bic.w	lr, r7, r6
        temp |= (((GPIO_Init->Mode & OUTPUT_TYPE) >> OUTPUT_TYPE_Pos) << position);
 8002588:	f3c4 1700 	ubfx	r7, r4, #4, #1
 800258c:	4097      	lsls	r7, r2
 800258e:	ea47 070e 	orr.w	r7, r7, lr
        GPIOx->OTYPER = temp;
 8002592:	6047      	str	r7, [r0, #4]
        temp = GPIOx->PUPDR;
 8002594:	68c7      	ldr	r7, [r0, #12]
        temp &= ~(GPIO_PUPDR_PUPDR0 << (position * 2U));
 8002596:	ea07 0e05 	and.w	lr, r7, r5
        temp |= ((GPIO_Init->Pull) << (position * 2U));
 800259a:	f8da 7008 	ldr.w	r7, [sl, #8]
 800259e:	408f      	lsls	r7, r1
 80025a0:	ea47 070e 	orr.w	r7, r7, lr
      if((GPIO_Init->Mode & GPIO_MODE) == MODE_AF)
 80025a4:	f1bc 0f02 	cmp.w	ip, #2
        GPIOx->PUPDR = temp;
 80025a8:	60c7      	str	r7, [r0, #12]
      if((GPIO_Init->Mode & GPIO_MODE) == MODE_AF)
 80025aa:	d194      	bne.n	80024d6 <HAL_GPIO_Init+0x56>
        temp = GPIOx->AFR[position >> 3U];
 80025ac:	ea4f 09d2 	mov.w	r9, r2, lsr #3
 80025b0:	eb00 0989 	add.w	r9, r0, r9, lsl #2
        temp &= ~(0xFU << ((uint32_t)(position & 0x07U) * 4U)) ;
 80025b4:	f002 0e07 	and.w	lr, r2, #7
        temp = GPIOx->AFR[position >> 3U];
 80025b8:	f8d9 7020 	ldr.w	r7, [r9, #32]
 80025bc:	9700      	str	r7, [sp, #0]
        temp |= ((uint32_t)(GPIO_Init->Alternate) << (((uint32_t)position & 0x07U) * 4U));
 80025be:	f8da 7010 	ldr.w	r7, [sl, #16]
        temp &= ~(0xFU << ((uint32_t)(position & 0x07U) * 4U)) ;
 80025c2:	ea4f 0e8e 	mov.w	lr, lr, lsl #2
        temp |= ((uint32_t)(GPIO_Init->Alternate) << (((uint32_t)position & 0x07U) * 4U));
 80025c6:	fa07 f70e 	lsl.w	r7, r7, lr
 80025ca:	9701      	str	r7, [sp, #4]
        temp &= ~(0xFU << ((uint32_t)(position & 0x07U) * 4U)) ;
 80025cc:	270f      	movs	r7, #15
 80025ce:	fa07 fe0e 	lsl.w	lr, r7, lr
 80025d2:	9f00      	ldr	r7, [sp, #0]
 80025d4:	ea27 0e0e 	bic.w	lr, r7, lr
        temp |= ((uint32_t)(GPIO_Init->Alternate) << (((uint32_t)position & 0x07U) * 4U));
 80025d8:	9f01      	ldr	r7, [sp, #4]
 80025da:	ea47 070e 	orr.w	r7, r7, lr
        GPIOx->AFR[position >> 3U] = temp;
 80025de:	f8c9 7020 	str.w	r7, [r9, #32]
 80025e2:	e778      	b.n	80024d6 <HAL_GPIO_Init+0x56>
        }
        EXTI->IMR = temp;
      }
    }
  }
}
 80025e4:	b005      	add	sp, #20
 80025e6:	e8bd 8ff0 	ldmia.w	sp!, {r4, r5, r6, r7, r8, r9, sl, fp, pc}
        temp |= ((uint32_t)(GPIO_GET_INDEX(GPIOx)) << (4U * (position & 0x03U)));
 80025ea:	f04f 0c01 	mov.w	ip, #1
 80025ee:	fa0c f707 	lsl.w	r7, ip, r7
 80025f2:	ea4e 0507 	orr.w	r5, lr, r7
        SYSCFG->EXTICR[position >> 2U] = temp;
 80025f6:	608d      	str	r5, [r1, #8]
        temp = EXTI->RTSR;
 80025f8:	f8d8 1008 	ldr.w	r1, [r8, #8]
        temp &= ~((uint32_t)iocurrent);
 80025fc:	43f5      	mvns	r5, r6
        if((GPIO_Init->Mode & TRIGGER_RISING) != 0x00U)
 80025fe:	02e7      	lsls	r7, r4, #11
        temp &= ~((uint32_t)iocurrent);
 8002600:	bf54      	ite	pl
 8002602:	4029      	andpl	r1, r5
          temp |= iocurrent;
 8002604:	4331      	orrmi	r1, r6
        EXTI->RTSR = temp;
 8002606:	f8c8 1008 	str.w	r1, [r8, #8]
        temp = EXTI->FTSR;
 800260a:	f8d8 100c 	ldr.w	r1, [r8, #12]
        if((GPIO_Init->Mode & TRIGGER_FALLING) != 0x00U)
 800260e:	02a7      	lsls	r7, r4, #10
        temp &= ~((uint32_t)iocurrent);
 8002610:	bf54      	ite	pl
 8002612:	4029      	andpl	r1, r5
          temp |= iocurrent;
 8002614:	4331      	orrmi	r1, r6
        EXTI->FTSR = temp;
 8002616:	f8c8 100c 	str.w	r1, [r8, #12]
        temp = EXTI->EMR;
 800261a:	f8d8 1004 	ldr.w	r1, [r8, #4]
        if((GPIO_Init->Mode & EXTI_EVT) != 0x00U)
 800261e:	03a7      	lsls	r7, r4, #14
        temp &= ~((uint32_t)iocurrent);
 8002620:	bf54      	ite	pl
 8002622:	4029      	andpl	r1, r5
          temp |= iocurrent;
 8002624:	4331      	orrmi	r1, r6
        EXTI->EMR = temp;
 8002626:	f8c8 1004 	str.w	r1, [r8, #4]
        temp = EXTI->IMR;
 800262a:	f8d8 1000 	ldr.w	r1, [r8]
        if((GPIO_Init->Mode & EXTI_IT) != 0x00U)
 800262e:	03e4      	lsls	r4, r4, #15
        temp &= ~((uint32_t)iocurrent);
 8002630:	bf54      	ite	pl
 8002632:	4029      	andpl	r1, r5
          temp |= iocurrent;
 8002634:	4331      	orrmi	r1, r6
        EXTI->IMR = temp;
 8002636:	f8c8 1000 	str.w	r1, [r8]
 800263a:	e731      	b.n	80024a0 <HAL_GPIO_Init+0x20>
        __HAL_RCC_SYSCFG_CLK_ENABLE();
 800263c:	f8df b0dc 	ldr.w	fp, [pc, #220]	@ 800271c <HAL_GPIO_Init+0x29c>
    ioposition = 0x01U << position;
 8002640:	f04f 0a01 	mov.w	sl, #1
 8002644:	e002      	b.n	800264c <HAL_GPIO_Init+0x1cc>
  for(position = 0U; position < GPIO_NUMBER; position++)
 8002646:	3201      	adds	r2, #1
 8002648:	2a10      	cmp	r2, #16
 800264a:	d0cb      	beq.n	80025e4 <HAL_GPIO_Init+0x164>
    ioposition = 0x01U << position;
 800264c:	fa0a f402 	lsl.w	r4, sl, r2
    iocurrent = (uint32_t)(GPIO_Init->Pin) & ioposition;
 8002650:	ea03 0604 	and.w	r6, r3, r4
    if(iocurrent == ioposition)
 8002654:	439c      	bics	r4, r3
 8002656:	d1f6      	bne.n	8002646 <HAL_GPIO_Init+0x1c6>
      if(((GPIO_Init->Mode & GPIO_MODE) == MODE_OUTPUT) || \
 8002658:	684d      	ldr	r5, [r1, #4]
 800265a:	0054      	lsls	r4, r2, #1
        temp &= ~(GPIO_OSPEEDER_OSPEEDR0 << (position * 2U));
 800265c:	2703      	movs	r7, #3
 800265e:	fa07 fc04 	lsl.w	ip, r7, r4
      if(((GPIO_Init->Mode & GPIO_MODE) == MODE_OUTPUT) || \
 8002662:	f005 0803 	and.w	r8, r5, #3
        temp &= ~(GPIO_OSPEEDER_OSPEEDR0 << (position * 2U));
 8002666:	ea6f 090c 	mvn.w	r9, ip
      if(((GPIO_Init->Mode & GPIO_MODE) == MODE_OUTPUT) || \
 800266a:	f108 3cff 	add.w	ip, r8, #4294967295
 800266e:	f1bc 0f01 	cmp.w	ip, #1
 8002672:	d965      	bls.n	8002740 <HAL_GPIO_Init+0x2c0>
      if((GPIO_Init->Mode & GPIO_MODE) != MODE_ANALOG)
 8002674:	f1b8 0f03 	cmp.w	r8, #3
 8002678:	f040 80dc 	bne.w	8002834 <HAL_GPIO_Init+0x3b4>
      temp = GPIOx->MODER;
 800267c:	f8d0 c000 	ldr.w	ip, [r0]
      temp |= ((GPIO_Init->Mode & GPIO_MODE) << (position * 2U));
 8002680:	fa08 f404 	lsl.w	r4, r8, r4
      temp &= ~(GPIO_MODER_MODER0 << (position * 2U));
 8002684:	ea0c 0c09 	and.w	ip, ip, r9
      temp |= ((GPIO_Init->Mode & GPIO_MODE) << (position * 2U));
 8002688:	ea44 040c 	orr.w	r4, r4, ip
      if((GPIO_Init->Mode & EXTI_MODE) != 0x00U)
 800268c:	f415 3f40 	tst.w	r5, #196608	@ 0x30000
      GPIOx->MODER = temp;
 8002690:	6004      	str	r4, [r0, #0]
      if((GPIO_Init->Mode & EXTI_MODE) != 0x00U)
 8002692:	d0d8      	beq.n	8002646 <HAL_GPIO_Init+0x1c6>
        __HAL_RCC_SYSCFG_CLK_ENABLE();
 8002694:	2400      	movs	r4, #0
 8002696:	9403      	str	r4, [sp, #12]
 8002698:	f8db 4044 	ldr.w	r4, [fp, #68]	@ 0x44
 800269c:	f444 4480 	orr.w	r4, r4, #16384	@ 0x4000
 80026a0:	f8cb 4044 	str.w	r4, [fp, #68]	@ 0x44
 80026a4:	f8db 4044 	ldr.w	r4, [fp, #68]	@ 0x44
 80026a8:	f404 4480 	and.w	r4, r4, #16384	@ 0x4000
 80026ac:	9403      	str	r4, [sp, #12]
 80026ae:	9c03      	ldr	r4, [sp, #12]
        temp = SYSCFG->EXTICR[position >> 2U];
 80026b0:	f022 0403 	bic.w	r4, r2, #3
 80026b4:	f104 4480 	add.w	r4, r4, #1073741824	@ 0x40000000
 80026b8:	f504 349c 	add.w	r4, r4, #79872	@ 0x13800
        temp &= ~(0x0FU << (4U * (position & 0x03U)));
 80026bc:	f002 0c03 	and.w	ip, r2, #3
        temp = SYSCFG->EXTICR[position >> 2U];
 80026c0:	f8d4 e008 	ldr.w	lr, [r4, #8]
        temp &= ~(0x0FU << (4U * (position & 0x03U)));
 80026c4:	270f      	movs	r7, #15
 80026c6:	ea4f 0c8c 	mov.w	ip, ip, lsl #2
 80026ca:	fa07 fc0c 	lsl.w	ip, r7, ip
 80026ce:	ea2e 0c0c 	bic.w	ip, lr, ip
        SYSCFG->EXTICR[position >> 2U] = temp;
 80026d2:	f8c4 c008 	str.w	ip, [r4, #8]
        temp = EXTI->RTSR;
 80026d6:	4c14      	ldr	r4, [pc, #80]	@ (8002728 <HAL_GPIO_Init+0x2a8>)
        if((GPIO_Init->Mode & TRIGGER_RISING) != 0x00U)
 80026d8:	02ef      	lsls	r7, r5, #11
        temp = EXTI->RTSR;
 80026da:	68a4      	ldr	r4, [r4, #8]
        temp &= ~((uint32_t)iocurrent);
 80026dc:	ea6f 0c06 	mvn.w	ip, r6
        if((GPIO_Init->Mode & TRIGGER_RISING) != 0x00U)
 80026e0:	d479      	bmi.n	80027d6 <HAL_GPIO_Init+0x356>
        temp &= ~((uint32_t)iocurrent);
 80026e2:	ea04 040c 	and.w	r4, r4, ip
        EXTI->RTSR = temp;
 80026e6:	4f10      	ldr	r7, [pc, #64]	@ (8002728 <HAL_GPIO_Init+0x2a8>)
 80026e8:	60bc      	str	r4, [r7, #8]
        temp = EXTI->FTSR;
 80026ea:	68fc      	ldr	r4, [r7, #12]
        if((GPIO_Init->Mode & TRIGGER_FALLING) != 0x00U)
 80026ec:	02af      	lsls	r7, r5, #10
 80026ee:	d470      	bmi.n	80027d2 <HAL_GPIO_Init+0x352>
        temp &= ~((uint32_t)iocurrent);
 80026f0:	ea04 040c 	and.w	r4, r4, ip
        EXTI->FTSR = temp;
 80026f4:	4f0c      	ldr	r7, [pc, #48]	@ (8002728 <HAL_GPIO_Init+0x2a8>)
 80026f6:	60fc      	str	r4, [r7, #12]
        temp = EXTI->EMR;
 80026f8:	687c      	ldr	r4, [r7, #4]
        if((GPIO_Init->Mode & EXTI_EVT) != 0x00U)
 80026fa:	03af      	lsls	r7, r5, #14
 80026fc:	d467      	bmi.n	80027ce <HAL_GPIO_Init+0x34e>
        temp &= ~((uint32_t)iocurrent);
 80026fe:	ea0c 0404 	and.w	r4, ip, r4
        EXTI->EMR = temp;
 8002702:	4f09      	ldr	r7, [pc, #36]	@ (8002728 <HAL_GPIO_Init+0x2a8>)
        if((GPIO_Init->Mode & EXTI_IT) != 0x00U)
 8002704:	03ed      	lsls	r5, r5, #15
        EXTI->EMR = temp;
 8002706:	607c      	str	r4, [r7, #4]
        temp = EXTI->IMR;
 8002708:	683c      	ldr	r4, [r7, #0]
        if((GPIO_Init->Mode & EXTI_IT) != 0x00U)
 800270a:	d45e      	bmi.n	80027ca <HAL_GPIO_Init+0x34a>
        temp &= ~((uint32_t)iocurrent);
 800270c:	ea0c 0404 	and.w	r4, ip, r4
        EXTI->IMR = temp;
 8002710:	4d05      	ldr	r5, [pc, #20]	@ (8002728 <HAL_GPIO_Init+0x2a8>)
 8002712:	602c      	str	r4, [r5, #0]
 8002714:	e797      	b.n	8002646 <HAL_GPIO_Init+0x1c6>
 8002716:	bf00      	nop
 8002718:	40020000 	.word	0x40020000
 800271c:	40023800 	.word	0x40023800
 8002720:	40020400 	.word	0x40020400
 8002724:	40020800 	.word	0x40020800
 8002728:	40013c00 	.word	0x40013c00
 800272c:	40020c00 	.word	0x40020c00
 8002730:	40021000 	.word	0x40021000
 8002734:	40021400 	.word	0x40021400
 8002738:	40021800 	.word	0x40021800
 800273c:	40021c00 	.word	0x40021c00
        temp = GPIOx->OSPEEDR; 
 8002740:	f8d0 e008 	ldr.w	lr, [r0, #8]
        temp |= (GPIO_Init->Speed << (position * 2U));
 8002744:	68cf      	ldr	r7, [r1, #12]
        temp &= ~(GPIO_OSPEEDER_OSPEEDR0 << (position * 2U));
 8002746:	ea09 0e0e 	and.w	lr, r9, lr
        temp |= (GPIO_Init->Speed << (position * 2U));
 800274a:	fa07 fc04 	lsl.w	ip, r7, r4
 800274e:	ea4c 0c0e 	orr.w	ip, ip, lr
        GPIOx->OSPEEDR = temp;
 8002752:	f8c0 c008 	str.w	ip, [r0, #8]
        temp = GPIOx->OTYPER;
 8002756:	f8d0 e004 	ldr.w	lr, [r0, #4]
        temp |= (((GPIO_Init->Mode & OUTPUT_TYPE) >> OUTPUT_TYPE_Pos) << position);
 800275a:	f3c5 1c00 	ubfx	ip, r5, #4, #1
        temp &= ~(GPIO_OTYPER_OT_0 << position) ;
 800275e:	ea2e 0e06 	bic.w	lr, lr, r6
        temp |= (((GPIO_Init->Mode & OUTPUT_TYPE) >> OUTPUT_TYPE_Pos) << position);
 8002762:	fa0c fc02 	lsl.w	ip, ip, r2
 8002766:	ea4c 0c0e 	orr.w	ip, ip, lr
        GPIOx->OTYPER = temp;
 800276a:	f8c0 c004 	str.w	ip, [r0, #4]
        temp = GPIOx->PUPDR;
 800276e:	f8d0 e00c 	ldr.w	lr, [r0, #12]
        temp |= ((GPIO_Init->Pull) << (position * 2U));
 8002772:	688f      	ldr	r7, [r1, #8]
        temp &= ~(GPIO_PUPDR_PUPDR0 << (position * 2U));
 8002774:	ea09 0e0e 	and.w	lr, r9, lr
        temp |= ((GPIO_Init->Pull) << (position * 2U));
 8002778:	fa07 fc04 	lsl.w	ip, r7, r4
 800277c:	ea4c 0c0e 	orr.w	ip, ip, lr
      if((GPIO_Init->Mode & GPIO_MODE) == MODE_AF)
 8002780:	f1b8 0f02 	cmp.w	r8, #2
        GPIOx->PUPDR = temp;
 8002784:	f8c0 c00c 	str.w	ip, [r0, #12]
      if((GPIO_Init->Mode & GPIO_MODE) == MODE_AF)
 8002788:	f47f af78 	bne.w	800267c <HAL_GPIO_Init+0x1fc>
        temp = GPIOx->AFR[position >> 3U];
 800278c:	ea4f 0cd2 	mov.w	ip, r2, lsr #3
 8002790:	ea4f 0c8c 	mov.w	ip, ip, lsl #2
 8002794:	f10c 4c80 	add.w	ip, ip, #1073741824	@ 0x40000000
 8002798:	f50c 3c00 	add.w	ip, ip, #131072	@ 0x20000
        temp &= ~(0xFU << ((uint32_t)(position & 0x07U) * 4U)) ;
 800279c:	f002 0e07 	and.w	lr, r2, #7
        temp = GPIOx->AFR[position >> 3U];
 80027a0:	f8dc 7020 	ldr.w	r7, [ip, #32]
 80027a4:	9700      	str	r7, [sp, #0]
        temp |= ((uint32_t)(GPIO_Init->Alternate) << (((uint32_t)position & 0x07U) * 4U));
 80027a6:	690f      	ldr	r7, [r1, #16]
        temp &= ~(0xFU << ((uint32_t)(position & 0x07U) * 4U)) ;
 80027a8:	ea4f 0e8e 	mov.w	lr, lr, lsl #2
        temp |= ((uint32_t)(GPIO_Init->Alternate) << (((uint32_t)position & 0x07U) * 4U));
 80027ac:	fa07 f70e 	lsl.w	r7, r7, lr
 80027b0:	9701      	str	r7, [sp, #4]
        temp &= ~(0xFU << ((uint32_t)(position & 0x07U) * 4U)) ;
 80027b2:	270f      	movs	r7, #15
 80027b4:	fa07 fe0e 	lsl.w	lr, r7, lr
 80027b8:	9f00      	ldr	r7, [sp, #0]
 80027ba:	ea27 0e0e 	bic.w	lr, r7, lr
        temp |= ((uint32_t)(GPIO_Init->Alternate) << (((uint32_t)position & 0x07U) * 4U));
 80027be:	9f01      	ldr	r7, [sp, #4]
 80027c0:	ea47 0e0e 	orr.w	lr, r7, lr
        GPIOx->AFR[position >> 3U] = temp;
 80027c4:	f8cc e020 	str.w	lr, [ip, #32]
 80027c8:	e758      	b.n	800267c <HAL_GPIO_Init+0x1fc>
          temp |= iocurrent;
 80027ca:	4334      	orrs	r4, r6
 80027cc:	e7a0      	b.n	8002710 <HAL_GPIO_Init+0x290>
          temp |= iocurrent;
 80027ce:	4334      	orrs	r4, r6
 80027d0:	e797      	b.n	8002702 <HAL_GPIO_Init+0x282>
          temp |= iocurrent;
 80027d2:	4334      	orrs	r4, r6
 80027d4:	e78e      	b.n	80026f4 <HAL_GPIO_Init+0x274>
          temp |= iocurrent;
 80027d6:	4334      	orrs	r4, r6
 80027d8:	e785      	b.n	80026e6 <HAL_GPIO_Init+0x266>
        temp |= ((uint32_t)(GPIO_GET_INDEX(GPIOx)) << (4U * (position & 0x03U)));
 80027da:	f04f 0c02 	mov.w	ip, #2
 80027de:	fa0c f707 	lsl.w	r7, ip, r7
 80027e2:	ea4e 0507 	orr.w	r5, lr, r7
 80027e6:	e706      	b.n	80025f6 <HAL_GPIO_Init+0x176>
 80027e8:	f04f 0c03 	mov.w	ip, #3
 80027ec:	fa0c f707 	lsl.w	r7, ip, r7
 80027f0:	ea4e 0507 	orr.w	r5, lr, r7
 80027f4:	e6ff      	b.n	80025f6 <HAL_GPIO_Init+0x176>
 80027f6:	f04f 0c06 	mov.w	ip, #6
 80027fa:	fa0c f707 	lsl.w	r7, ip, r7
 80027fe:	ea4e 0507 	orr.w	r5, lr, r7
 8002802:	e6f8      	b.n	80025f6 <HAL_GPIO_Init+0x176>
 8002804:	f04f 0c04 	mov.w	ip, #4
 8002808:	fa0c f707 	lsl.w	r7, ip, r7
 800280c:	ea4e 0507 	orr.w	r5, lr, r7
 8002810:	e6f1      	b.n	80025f6 <HAL_GPIO_Init+0x176>
 8002812:	f04f 0c05 	mov.w	ip, #5
 8002816:	fa0c f707 	lsl.w	r7, ip, r7
 800281a:	ea4e 0507 	orr.w	r5, lr, r7
 800281e:	e6ea      	b.n	80025f6 <HAL_GPIO_Init+0x176>
        temp = GPIOx->PUPDR;
 8002820:	68c7      	ldr	r7, [r0, #12]
        temp &= ~(GPIO_PUPDR_PUPDR0 << (position * 2U));
 8002822:	ea07 0e05 	and.w	lr, r7, r5
        temp |= ((GPIO_Init->Pull) << (position * 2U));
 8002826:	f8da 7008 	ldr.w	r7, [sl, #8]
 800282a:	408f      	lsls	r7, r1
 800282c:	ea47 070e 	orr.w	r7, r7, lr
        GPIOx->PUPDR = temp;
 8002830:	60c7      	str	r7, [r0, #12]
      if((GPIO_Init->Mode & GPIO_MODE) == MODE_AF)
 8002832:	e650      	b.n	80024d6 <HAL_GPIO_Init+0x56>
        temp = GPIOx->PUPDR;
 8002834:	f8df c018 	ldr.w	ip, [pc, #24]	@ 8002850 <HAL_GPIO_Init+0x3d0>
        temp |= ((GPIO_Init->Pull) << (position * 2U));
 8002838:	688f      	ldr	r7, [r1, #8]
        temp = GPIOx->PUPDR;
 800283a:	f8dc e00c 	ldr.w	lr, [ip, #12]
        temp |= ((GPIO_Init->Pull) << (position * 2U));
 800283e:	40a7      	lsls	r7, r4
        temp &= ~(GPIO_PUPDR_PUPDR0 << (position * 2U));
 8002840:	ea09 0e0e 	and.w	lr, r9, lr
        temp |= ((GPIO_Init->Pull) << (position * 2U));
 8002844:	ea47 0e0e 	orr.w	lr, r7, lr
        GPIOx->PUPDR = temp;
 8002848:	f8cc e00c 	str.w	lr, [ip, #12]
      if((GPIO_Init->Mode & GPIO_MODE) == MODE_AF)
 800284c:	e716      	b.n	800267c <HAL_GPIO_Init+0x1fc>
 800284e:	bf00      	nop
 8002850:	40020000 	.word	0x40020000

08002854 <HAL_GPIO_WritePin>:
{
  /* Check the parameters */
  assert_param(IS_GPIO_PIN(GPIO_Pin));
  assert_param(IS_GPIO_PIN_ACTION(PinState));

  if(PinState != GPIO_PIN_RESET)
 8002854:	b902      	cbnz	r2, 8002858 <HAL_GPIO_WritePin+0x4>
  {
    GPIOx->BSRR = GPIO_Pin;
  }
  else
  {
    GPIOx->BSRR = (uint32_t)GPIO_Pin << 16U;
 8002856:	0409      	lsls	r1, r1, #16
 8002858:	6181      	str	r1, [r0, #24]
  }
}
 800285a:	4770      	bx	lr

0800285c <HAL_I2S_Init>:
#if defined (SPI_I2S_FULLDUPLEX_SUPPORT)
  uint16_t tmpreg;
#endif

  /* Check the I2S handle allocation */
  if (hi2s == NULL)
 800285c:	2800      	cmp	r0, #0
 800285e:	f000 809b 	beq.w	8002998 <HAL_I2S_Init+0x13c>
{
 8002862:	b5f8      	push	{r3, r4, r5, r6, r7, lr}
  assert_param(IS_I2S_MCLK_OUTPUT(hi2s->Init.MCLKOutput));
  assert_param(IS_I2S_AUDIO_FREQ(hi2s->Init.AudioFreq));
  assert_param(IS_I2S_CPOL(hi2s->Init.CPOL));
  assert_param(IS_I2S_CLOCKSOURCE(hi2s->Init.ClockSource));

  if (hi2s->State == HAL_I2S_STATE_RESET)
 8002864:	f890 3041 	ldrb.w	r3, [r0, #65]	@ 0x41
 8002868:	4604      	mov	r4, r0
 800286a:	f003 02ff 	and.w	r2, r3, #255	@ 0xff
 800286e:	2b00      	cmp	r3, #0
 8002870:	d076      	beq.n	8002960 <HAL_I2S_Init+0x104>

  hi2s->State = HAL_I2S_STATE_BUSY;

  /*----------------------- SPIx I2SCFGR & I2SPR Configuration ----------------*/
  /* Clear I2SMOD, I2SE, I2SCFG, PCMSYNC, I2SSTD, CKPOL, DATLEN and CHLEN bits */
  CLEAR_BIT(hi2s->Instance->I2SCFGR, (SPI_I2SCFGR_CHLEN | SPI_I2SCFGR_DATLEN | SPI_I2SCFGR_CKPOL | \
 8002872:	6821      	ldr	r1, [r4, #0]
                                      SPI_I2SCFGR_I2SE | SPI_I2SCFGR_I2SMOD));
  hi2s->Instance->I2SPR = 0x0002U;

  /*----------------------- I2SPR: I2SDIV and ODD Calculation -----------------*/
  /* If the requested audio frequency is not the default, compute the prescaler */
  if (hi2s->Init.AudioFreq != I2S_AUDIOFREQ_DEFAULT)
 8002874:	6960      	ldr	r0, [r4, #20]
  {
    /* Check the frame length (For the Prescaler computing) ********************/
    if (hi2s->Init.DataFormat == I2S_DATAFORMAT_16B)
 8002876:	68e5      	ldr	r5, [r4, #12]
  hi2s->State = HAL_I2S_STATE_BUSY;
 8002878:	2202      	movs	r2, #2
 800287a:	f884 2041 	strb.w	r2, [r4, #65]	@ 0x41
  CLEAR_BIT(hi2s->Instance->I2SCFGR, (SPI_I2SCFGR_CHLEN | SPI_I2SCFGR_DATLEN | SPI_I2SCFGR_CKPOL | \
 800287e:	69cb      	ldr	r3, [r1, #28]
 8002880:	f423 637b 	bic.w	r3, r3, #4016	@ 0xfb0
 8002884:	f023 030f 	bic.w	r3, r3, #15
  if (hi2s->Init.AudioFreq != I2S_AUDIOFREQ_DEFAULT)
 8002888:	4290      	cmp	r0, r2
  CLEAR_BIT(hi2s->Instance->I2SCFGR, (SPI_I2SCFGR_CHLEN | SPI_I2SCFGR_DATLEN | SPI_I2SCFGR_CKPOL | \
 800288a:	61cb      	str	r3, [r1, #28]
  hi2s->Instance->I2SPR = 0x0002U;
 800288c:	620a      	str	r2, [r1, #32]
  if (hi2s->Init.AudioFreq != I2S_AUDIOFREQ_DEFAULT)
 800288e:	d065      	beq.n	800295c <HAL_I2S_Init+0x100>
    if (hi2s->Init.DataFormat == I2S_DATAFORMAT_16B)
 8002890:	2d00      	cmp	r5, #0
      /* Packet length is 32 bits */
      packetlength = 32U;
    }

    /* I2S standard */
    if (hi2s->Init.Standard <= I2S_STANDARD_LSB)
 8002892:	68a2      	ldr	r2, [r4, #8]
    if (hi2s->Init.DataFormat == I2S_DATAFORMAT_16B)
 8002894:	bf15      	itete	ne
 8002896:	2640      	movne	r6, #64	@ 0x40
 8002898:	2620      	moveq	r6, #32
 800289a:	2320      	movne	r3, #32
 800289c:	2310      	moveq	r3, #16
    else
    {
      i2sclk = HAL_RCCEx_GetPeriphCLKFreq(RCC_PERIPHCLK_I2S_APB2);
    }
#else
    i2sclk = HAL_RCCEx_GetPeriphCLKFreq(RCC_PERIPHCLK_I2S);
 800289e:	2001      	movs	r0, #1
    if (hi2s->Init.Standard <= I2S_STANDARD_LSB)
 80028a0:	2a20      	cmp	r2, #32
 80028a2:	bf88      	it	hi
 80028a4:	461e      	movhi	r6, r3
    i2sclk = HAL_RCCEx_GetPeriphCLKFreq(RCC_PERIPHCLK_I2S);
 80028a6:	f001 ffa1 	bl	80047ec <HAL_RCCEx_GetPeriphCLKFreq>
#endif /* I2S_APB1_APB2_FEATURE */

    /* Compute the Real divider depending on the MCLK output state, with a floating point */
    if (hi2s->Init.MCLKOutput == I2S_MCLKOUTPUT_ENABLE)
 80028aa:	6922      	ldr	r2, [r4, #16]
 80028ac:	f5b2 7f00 	cmp.w	r2, #512	@ 0x200
 80028b0:	d05d      	beq.n	800296e <HAL_I2S_Init+0x112>
      }
    }
    else
    {
      /* MCLK output is disabled */
      tmp = (uint32_t)(((((i2sclk / packetlength) * 10U) / hi2s->Init.AudioFreq)) + 5U);
 80028b2:	fbb0 f0f6 	udiv	r0, r0, r6
 80028b6:	eb00 0080 	add.w	r0, r0, r0, lsl #2
 80028ba:	6961      	ldr	r1, [r4, #20]
 80028bc:	0043      	lsls	r3, r0, #1
 80028be:	fbb3 f3f1 	udiv	r3, r3, r1
 80028c2:	3305      	adds	r3, #5
    }

    /* Remove the flatting point */
    tmp = tmp / 10U;
 80028c4:	4935      	ldr	r1, [pc, #212]	@ (800299c <HAL_I2S_Init+0x140>)
 80028c6:	fba1 1303 	umull	r1, r3, r1, r3

    /* Check the parity of the divider */
    i2sodd = (uint32_t)(tmp & (uint32_t)1U);

    /* Compute the i2sdiv prescaler */
    i2sdiv = (uint32_t)((tmp - i2sodd) / 2U);
 80028ca:	0918      	lsrs	r0, r3, #4
    i2sdiv = 2U;
    i2sodd = 0U;
  }

  /* Test if the divider is 1 or 0 or greater than 0xFF */
  if ((i2sdiv < 2U) || (i2sdiv > 0xFFU))
 80028cc:	1e81      	subs	r1, r0, #2
 80028ce:	29fd      	cmp	r1, #253	@ 0xfd
    i2sdiv = (uint32_t)((tmp - i2sodd) / 2U);
 80028d0:	f3c3 03c0 	ubfx	r3, r3, #3, #1
  if ((i2sdiv < 2U) || (i2sdiv > 0xFFU))
 80028d4:	d858      	bhi.n	8002988 <HAL_I2S_Init+0x12c>
  }

  /*----------------------- SPIx I2SCFGR & I2SPR Configuration ----------------*/

  /* Write to SPIx I2SPR register the computed value */
  hi2s->Instance->I2SPR = (uint32_t)((uint32_t)i2sdiv | (uint32_t)(i2sodd | (uint32_t)hi2s->Init.MCLKOutput));
 80028d6:	6821      	ldr	r1, [r4, #0]
 80028d8:	68e5      	ldr	r5, [r4, #12]
 80028da:	ea40 2003 	orr.w	r0, r0, r3, lsl #8
 80028de:	4302      	orrs	r2, r0
 80028e0:	620a      	str	r2, [r1, #32]

  /* Clear I2SMOD, I2SE, I2SCFG, PCMSYNC, I2SSTD, CKPOL, DATLEN and CHLEN bits */
  /* And configure the I2S with the I2S_InitStruct values                      */
  MODIFY_REG(hi2s->Instance->I2SCFGR, (SPI_I2SCFGR_CHLEN | SPI_I2SCFGR_DATLEN | \
 80028e2:	e9d4 2001 	ldrd	r2, r0, [r4, #4]
 80028e6:	69cb      	ldr	r3, [r1, #28]
 80028e8:	f8df c0c4 	ldr.w	ip, [pc, #196]	@ 80029b0 <HAL_I2S_Init+0x154>
 80028ec:	69a7      	ldr	r7, [r4, #24]
 80028ee:	ea03 030c 	and.w	r3, r3, ip
 80028f2:	ea42 0600 	orr.w	r6, r2, r0
 80028f6:	4333      	orrs	r3, r6
 80028f8:	432b      	orrs	r3, r5
 80028fa:	433b      	orrs	r3, r7
 80028fc:	f443 6300 	orr.w	r3, r3, #2048	@ 0x800
 8002900:	61cb      	str	r3, [r1, #28]
#if defined (SPI_I2S_FULLDUPLEX_SUPPORT)

  /* Configure the I2S extended if the full duplex mode is enabled */
  assert_param(IS_I2S_FULLDUPLEX_MODE(hi2s->Init.FullDuplexMode));

  if (hi2s->Init.FullDuplexMode == I2S_FULLDUPLEXMODE_ENABLE)
 8002902:	6a23      	ldr	r3, [r4, #32]
 8002904:	2b01      	cmp	r3, #1
 8002906:	d123      	bne.n	8002950 <HAL_I2S_Init+0xf4>
  {
    /* Set FullDuplex I2S IrqHandler ISR if FULLDUPLEXMODE is enabled */
    hi2s->IrqHandlerISR = HAL_I2SEx_FullDuplex_IRQHandler;

    /* Clear I2SMOD, I2SE, I2SCFG, PCMSYNC, I2SSTD, CKPOL, DATLEN and CHLEN bits */
    CLEAR_BIT(I2SxEXT(hi2s->Instance)->I2SCFGR, (SPI_I2SCFGR_CHLEN | SPI_I2SCFGR_DATLEN | SPI_I2SCFGR_CKPOL | \
 8002908:	4b25      	ldr	r3, [pc, #148]	@ (80029a0 <HAL_I2S_Init+0x144>)
 800290a:	4e26      	ldr	r6, [pc, #152]	@ (80029a4 <HAL_I2S_Init+0x148>)
 800290c:	4299      	cmp	r1, r3
 800290e:	bf18      	it	ne
 8002910:	f04f 2640 	movne.w	r6, #1073758208	@ 0x40004000
    hi2s->IrqHandlerISR = HAL_I2SEx_FullDuplex_IRQHandler;
 8002914:	4b24      	ldr	r3, [pc, #144]	@ (80029a8 <HAL_I2S_Init+0x14c>)
 8002916:	6363      	str	r3, [r4, #52]	@ 0x34
    CLEAR_BIT(I2SxEXT(hi2s->Instance)->I2SCFGR, (SPI_I2SCFGR_CHLEN | SPI_I2SCFGR_DATLEN | SPI_I2SCFGR_CKPOL | \
 8002918:	69f3      	ldr	r3, [r6, #28]

    /* Get the I2SCFGR register value */
    tmpreg = I2SxEXT(hi2s->Instance)->I2SCFGR;

    /* Get the mode to be configured for the extended I2S */
    if ((hi2s->Init.Mode == I2S_MODE_MASTER_TX) || (hi2s->Init.Mode == I2S_MODE_SLAVE_TX))
 800291a:	f5b2 7f00 	cmp.w	r2, #512	@ 0x200
    CLEAR_BIT(I2SxEXT(hi2s->Instance)->I2SCFGR, (SPI_I2SCFGR_CHLEN | SPI_I2SCFGR_DATLEN | SPI_I2SCFGR_CKPOL | \
 800291e:	ea03 030c 	and.w	r3, r3, ip
 8002922:	61f3      	str	r3, [r6, #28]
    if ((hi2s->Init.Mode == I2S_MODE_MASTER_TX) || (hi2s->Init.Mode == I2S_MODE_SLAVE_TX))
 8002924:	bf18      	it	ne
 8002926:	fab2 f282 	clzne	r2, r2
    I2SxEXT(hi2s->Instance)->I2SPR = 2U;
 800292a:	f04f 0302 	mov.w	r3, #2
 800292e:	6233      	str	r3, [r6, #32]
    if ((hi2s->Init.Mode == I2S_MODE_MASTER_TX) || (hi2s->Init.Mode == I2S_MODE_SLAVE_TX))
 8002930:	bf18      	it	ne
 8002932:	0952      	lsrne	r2, r2, #5
    tmpreg = I2SxEXT(hi2s->Instance)->I2SCFGR;
 8002934:	69f3      	ldr	r3, [r6, #28]
      tmp = I2S_MODE_SLAVE_TX;
    }

    /* Configure the I2S Slave with the I2S Master parameter values */
    tmpreg |= (uint16_t)((uint16_t)SPI_I2SCFGR_I2SMOD    | \
                         (uint16_t)tmp                   | \
 8002936:	bf14      	ite	ne
 8002938:	0212      	lslne	r2, r2, #8
 800293a:	f44f 7280 	moveq.w	r2, #256	@ 0x100
    tmpreg |= (uint16_t)((uint16_t)SPI_I2SCFGR_I2SMOD    | \
 800293e:	4328      	orrs	r0, r5
 8002940:	4302      	orrs	r2, r0
    tmpreg = I2SxEXT(hi2s->Instance)->I2SCFGR;
 8002942:	b29b      	uxth	r3, r3
    tmpreg |= (uint16_t)((uint16_t)SPI_I2SCFGR_I2SMOD    | \
 8002944:	433a      	orrs	r2, r7
 8002946:	4313      	orrs	r3, r2
 8002948:	b29b      	uxth	r3, r3
                         (uint16_t)hi2s->Init.Standard   | \
                         (uint16_t)hi2s->Init.DataFormat | \
                         (uint16_t)hi2s->Init.CPOL);

    /* Write to SPIx I2SCFGR */
    WRITE_REG(I2SxEXT(hi2s->Instance)->I2SCFGR, tmpreg);
 800294a:	f443 6300 	orr.w	r3, r3, #2048	@ 0x800
 800294e:	61f3      	str	r3, [r6, #28]
  }
#endif /* SPI_I2S_FULLDUPLEX_SUPPORT */

  hi2s->ErrorCode = HAL_I2S_ERROR_NONE;
 8002950:	2000      	movs	r0, #0
  hi2s->State     = HAL_I2S_STATE_READY;
 8002952:	2301      	movs	r3, #1
  hi2s->ErrorCode = HAL_I2S_ERROR_NONE;
 8002954:	6460      	str	r0, [r4, #68]	@ 0x44
  hi2s->State     = HAL_I2S_STATE_READY;
 8002956:	f884 3041 	strb.w	r3, [r4, #65]	@ 0x41

  return HAL_OK;
}
 800295a:	bdf8      	pop	{r3, r4, r5, r6, r7, pc}
  hi2s->Instance->I2SPR = (uint32_t)((uint32_t)i2sdiv | (uint32_t)(i2sodd | (uint32_t)hi2s->Init.MCLKOutput));
 800295c:	6922      	ldr	r2, [r4, #16]
 800295e:	e7be      	b.n	80028de <HAL_I2S_Init+0x82>
    hi2s->IrqHandlerISR = I2S_IRQHandler;
 8002960:	4b12      	ldr	r3, [pc, #72]	@ (80029ac <HAL_I2S_Init+0x150>)
    hi2s->Lock = HAL_UNLOCKED;
 8002962:	f880 2040 	strb.w	r2, [r0, #64]	@ 0x40
    hi2s->IrqHandlerISR = I2S_IRQHandler;
 8002966:	6343      	str	r3, [r0, #52]	@ 0x34
    HAL_I2S_MspInit(hi2s);
 8002968:	f7fe ffd2 	bl	8001910 <HAL_I2S_MspInit>
 800296c:	e781      	b.n	8002872 <HAL_I2S_Init+0x16>
      if (hi2s->Init.DataFormat != I2S_DATAFORMAT_16B)
 800296e:	68e5      	ldr	r5, [r4, #12]
        tmp = (uint32_t)(((((i2sclk / (packetlength * 4U)) * 10U) / hi2s->Init.AudioFreq)) + 5U);
 8002970:	6961      	ldr	r1, [r4, #20]
      if (hi2s->Init.DataFormat != I2S_DATAFORMAT_16B)
 8002972:	b17d      	cbz	r5, 8002994 <HAL_I2S_Init+0x138>
        tmp = (uint32_t)(((((i2sclk / (packetlength * 4U)) * 10U) / hi2s->Init.AudioFreq)) + 5U);
 8002974:	00b6      	lsls	r6, r6, #2
        tmp = (uint32_t)(((((i2sclk / (packetlength * 8U)) * 10U) / hi2s->Init.AudioFreq)) + 5U);
 8002976:	fbb0 f0f6 	udiv	r0, r0, r6
 800297a:	eb00 0080 	add.w	r0, r0, r0, lsl #2
 800297e:	0043      	lsls	r3, r0, #1
 8002980:	fbb3 f3f1 	udiv	r3, r3, r1
 8002984:	3305      	adds	r3, #5
 8002986:	e79d      	b.n	80028c4 <HAL_I2S_Init+0x68>
    SET_BIT(hi2s->ErrorCode, HAL_I2S_ERROR_PRESCALER);
 8002988:	6c63      	ldr	r3, [r4, #68]	@ 0x44
 800298a:	f043 0310 	orr.w	r3, r3, #16
 800298e:	6463      	str	r3, [r4, #68]	@ 0x44
    return HAL_ERROR;
 8002990:	2001      	movs	r0, #1
}
 8002992:	bdf8      	pop	{r3, r4, r5, r6, r7, pc}
        tmp = (uint32_t)(((((i2sclk / (packetlength * 8U)) * 10U) / hi2s->Init.AudioFreq)) + 5U);
 8002994:	00f6      	lsls	r6, r6, #3
 8002996:	e7ee      	b.n	8002976 <HAL_I2S_Init+0x11a>
    return HAL_ERROR;
 8002998:	2001      	movs	r0, #1
}
 800299a:	4770      	bx	lr
 800299c:	cccccccd 	.word	0xcccccccd
 80029a0:	40003800 	.word	0x40003800
 80029a4:	40003400 	.word	0x40003400
 80029a8:	08002bdd 	.word	0x08002bdd
 80029ac:	08002aa5 	.word	0x08002aa5
 80029b0:	fffff040 	.word	0xfffff040

080029b4 <HAL_I2S_Transmit_DMA>:
  */
HAL_StatusTypeDef HAL_I2S_Transmit_DMA(I2S_HandleTypeDef *hi2s, uint16_t *pData, uint16_t Size)
{
  uint32_t tmpreg_cfgr;

  if ((pData == NULL) || (Size == 0U))
 80029b4:	2900      	cmp	r1, #0
 80029b6:	d051      	beq.n	8002a5c <HAL_I2S_Transmit_DMA+0xa8>
 80029b8:	2a00      	cmp	r2, #0
 80029ba:	d04f      	beq.n	8002a5c <HAL_I2S_Transmit_DMA+0xa8>
{
 80029bc:	b538      	push	{r3, r4, r5, lr}
  {
    return  HAL_ERROR;
  }

  if (hi2s->State != HAL_I2S_STATE_READY)
 80029be:	f890 3041 	ldrb.w	r3, [r0, #65]	@ 0x41
 80029c2:	2b01      	cmp	r3, #1
 80029c4:	4604      	mov	r4, r0
 80029c6:	b2d8      	uxtb	r0, r3
 80029c8:	d135      	bne.n	8002a36 <HAL_I2S_Transmit_DMA+0x82>
  {
    return HAL_BUSY;
  }

  /* Process Locked */
  __HAL_LOCK(hi2s);
 80029ca:	f894 3040 	ldrb.w	r3, [r4, #64]	@ 0x40
 80029ce:	2b01      	cmp	r3, #1
 80029d0:	d031      	beq.n	8002a36 <HAL_I2S_Transmit_DMA+0x82>

  /* Set state and reset error code */
  hi2s->State = HAL_I2S_STATE_BUSY_TX;
 80029d2:	2303      	movs	r3, #3
  __HAL_LOCK(hi2s);
 80029d4:	f884 0040 	strb.w	r0, [r4, #64]	@ 0x40
  hi2s->ErrorCode = HAL_I2S_ERROR_NONE;
  hi2s->pTxBuffPtr = pData;

  tmpreg_cfgr = hi2s->Instance->I2SCFGR & (SPI_I2SCFGR_DATLEN | SPI_I2SCFGR_CHLEN);
 80029d8:	6825      	ldr	r5, [r4, #0]
  hi2s->State = HAL_I2S_STATE_BUSY_TX;
 80029da:	f884 3041 	strb.w	r3, [r4, #65]	@ 0x41
  hi2s->ErrorCode = HAL_I2S_ERROR_NONE;
 80029de:	2300      	movs	r3, #0
 80029e0:	6463      	str	r3, [r4, #68]	@ 0x44
  tmpreg_cfgr = hi2s->Instance->I2SCFGR & (SPI_I2SCFGR_DATLEN | SPI_I2SCFGR_CHLEN);
 80029e2:	69e8      	ldr	r0, [r5, #28]
  hi2s->pTxBuffPtr = pData;
 80029e4:	6261      	str	r1, [r4, #36]	@ 0x24
  tmpreg_cfgr = hi2s->Instance->I2SCFGR & (SPI_I2SCFGR_DATLEN | SPI_I2SCFGR_CHLEN);
 80029e6:	f000 0007 	and.w	r0, r0, #7

  if ((tmpreg_cfgr == I2S_DATAFORMAT_24B) || (tmpreg_cfgr == I2S_DATAFORMAT_32B))
 80029ea:	2328      	movs	r3, #40	@ 0x28
 80029ec:	40c3      	lsrs	r3, r0
 80029ee:	07d8      	lsls	r0, r3, #31
 80029f0:	d423      	bmi.n	8002a3a <HAL_I2S_Transmit_DMA+0x86>
    hi2s->TxXferSize = (Size << 1U);
    hi2s->TxXferCount = (Size << 1U);
  }
  else
  {
    hi2s->TxXferSize = Size;
 80029f2:	8522      	strh	r2, [r4, #40]	@ 0x28
    hi2s->TxXferCount = Size;
 80029f4:	8562      	strh	r2, [r4, #42]	@ 0x2a
  }

  /* Set the I2S Tx DMA Half transfer complete callback */
  hi2s->hdmatx->XferHalfCpltCallback = I2S_DMATxHalfCplt;
 80029f6:	6ba0      	ldr	r0, [r4, #56]	@ 0x38
 80029f8:	4b19      	ldr	r3, [pc, #100]	@ (8002a60 <HAL_I2S_Transmit_DMA+0xac>)
 80029fa:	6403      	str	r3, [r0, #64]	@ 0x40

  /* Set the I2S Tx DMA transfer complete callback */
  hi2s->hdmatx->XferCpltCallback = I2S_DMATxCplt;
 80029fc:	4b19      	ldr	r3, [pc, #100]	@ (8002a64 <HAL_I2S_Transmit_DMA+0xb0>)
 80029fe:	63c3      	str	r3, [r0, #60]	@ 0x3c

  /* Set the DMA error callback */
  hi2s->hdmatx->XferErrorCallback = I2S_DMAError;
 8002a00:	4b19      	ldr	r3, [pc, #100]	@ (8002a68 <HAL_I2S_Transmit_DMA+0xb4>)
 8002a02:	64c3      	str	r3, [r0, #76]	@ 0x4c

  /* Enable the Tx DMA Stream/Channel */
  if (HAL_OK != HAL_DMA_Start_IT(hi2s->hdmatx,
                                 (uint32_t)hi2s->pTxBuffPtr,
                                 (uint32_t)&hi2s->Instance->DR,
                                 hi2s->TxXferSize))
 8002a04:	8d23      	ldrh	r3, [r4, #40]	@ 0x28
  if (HAL_OK != HAL_DMA_Start_IT(hi2s->hdmatx,
 8002a06:	f105 020c 	add.w	r2, r5, #12
 8002a0a:	b29b      	uxth	r3, r3
 8002a0c:	f7ff fc26 	bl	800225c <HAL_DMA_Start_IT>
 8002a10:	b9c0      	cbnz	r0, 8002a44 <HAL_I2S_Transmit_DMA+0x90>
  }

  __HAL_UNLOCK(hi2s);

  /* Check if the I2S Tx request is already enabled */
  if (HAL_IS_BIT_CLR(hi2s->Instance->CR2, SPI_CR2_TXDMAEN))
 8002a12:	6823      	ldr	r3, [r4, #0]
  __HAL_UNLOCK(hi2s);
 8002a14:	f884 0040 	strb.w	r0, [r4, #64]	@ 0x40
  if (HAL_IS_BIT_CLR(hi2s->Instance->CR2, SPI_CR2_TXDMAEN))
 8002a18:	685a      	ldr	r2, [r3, #4]
 8002a1a:	0791      	lsls	r1, r2, #30
 8002a1c:	d403      	bmi.n	8002a26 <HAL_I2S_Transmit_DMA+0x72>
  {
    /* Enable Tx DMA Request */
    SET_BIT(hi2s->Instance->CR2, SPI_CR2_TXDMAEN);
 8002a1e:	685a      	ldr	r2, [r3, #4]
 8002a20:	f042 0202 	orr.w	r2, r2, #2
 8002a24:	605a      	str	r2, [r3, #4]
  }

  /* Check if the I2S is already enabled */
  if (HAL_IS_BIT_CLR(hi2s->Instance->I2SCFGR, SPI_I2SCFGR_I2SE))
 8002a26:	69da      	ldr	r2, [r3, #28]
 8002a28:	0552      	lsls	r2, r2, #21
 8002a2a:	d403      	bmi.n	8002a34 <HAL_I2S_Transmit_DMA+0x80>
  {
    /* Enable I2S peripheral */
    __HAL_I2S_ENABLE(hi2s);
 8002a2c:	69da      	ldr	r2, [r3, #28]
 8002a2e:	f442 6280 	orr.w	r2, r2, #1024	@ 0x400
 8002a32:	61da      	str	r2, [r3, #28]
  }

  return HAL_OK;
}
 8002a34:	bd38      	pop	{r3, r4, r5, pc}
    return HAL_BUSY;
 8002a36:	2002      	movs	r0, #2
}
 8002a38:	bd38      	pop	{r3, r4, r5, pc}
    hi2s->TxXferSize = (Size << 1U);
 8002a3a:	0053      	lsls	r3, r2, #1
 8002a3c:	b29b      	uxth	r3, r3
 8002a3e:	8523      	strh	r3, [r4, #40]	@ 0x28
    hi2s->TxXferCount = (Size << 1U);
 8002a40:	8563      	strh	r3, [r4, #42]	@ 0x2a
 8002a42:	e7d8      	b.n	80029f6 <HAL_I2S_Transmit_DMA+0x42>
    SET_BIT(hi2s->ErrorCode, HAL_I2S_ERROR_DMA);
 8002a44:	6c63      	ldr	r3, [r4, #68]	@ 0x44
    hi2s->State = HAL_I2S_STATE_READY;
 8002a46:	2101      	movs	r1, #1
    SET_BIT(hi2s->ErrorCode, HAL_I2S_ERROR_DMA);
 8002a48:	f043 0308 	orr.w	r3, r3, #8
    __HAL_UNLOCK(hi2s);
 8002a4c:	2200      	movs	r2, #0
    SET_BIT(hi2s->ErrorCode, HAL_I2S_ERROR_DMA);
 8002a4e:	6463      	str	r3, [r4, #68]	@ 0x44
    hi2s->State = HAL_I2S_STATE_READY;
 8002a50:	f884 1041 	strb.w	r1, [r4, #65]	@ 0x41
    __HAL_UNLOCK(hi2s);
 8002a54:	f884 2040 	strb.w	r2, [r4, #64]	@ 0x40
    return  HAL_ERROR;
 8002a58:	2001      	movs	r0, #1
}
 8002a5a:	bd38      	pop	{r3, r4, r5, pc}
    return  HAL_ERROR;
 8002a5c:	2001      	movs	r0, #1
}
 8002a5e:	4770      	bx	lr
 8002a60:	08002a6d 	.word	0x08002a6d
 8002a64:	08002a79 	.word	0x08002a79
 8002a68:	08002bad 	.word	0x08002bad

08002a6c <I2S_DMATxHalfCplt>:
  * @param  hdma pointer to a DMA_HandleTypeDef structure that contains
  *                the configuration information for the specified DMA module.
  * @retval None
  */
static void I2S_DMATxHalfCplt(DMA_HandleTypeDef *hdma)
{
 8002a6c:	b508      	push	{r3, lr}

  /* Call user Tx half complete callback */
#if (USE_HAL_I2S_REGISTER_CALLBACKS == 1U)
  hi2s->TxHalfCpltCallback(hi2s);
#else
  HAL_I2S_TxHalfCpltCallback(hi2s);
 8002a6e:	6b80      	ldr	r0, [r0, #56]	@ 0x38
 8002a70:	f7fd ffaa 	bl	80009c8 <HAL_I2S_TxHalfCpltCallback>
#endif /* USE_HAL_I2S_REGISTER_CALLBACKS */
}
 8002a74:	bd08      	pop	{r3, pc}
 8002a76:	bf00      	nop

08002a78 <I2S_DMATxCplt>:
{
 8002a78:	b508      	push	{r3, lr}
  if (hdma->Init.Mode == DMA_NORMAL)
 8002a7a:	69c3      	ldr	r3, [r0, #28]
  I2S_HandleTypeDef *hi2s = (I2S_HandleTypeDef *)((DMA_HandleTypeDef *)hdma)->Parent; /* Derogation MISRAC2012-Rule-11.5 */
 8002a7c:	6b80      	ldr	r0, [r0, #56]	@ 0x38
  if (hdma->Init.Mode == DMA_NORMAL)
 8002a7e:	b94b      	cbnz	r3, 8002a94 <I2S_DMATxCplt+0x1c>
    CLEAR_BIT(hi2s->Instance->CR2, SPI_CR2_TXDMAEN);
 8002a80:	6801      	ldr	r1, [r0, #0]
 8002a82:	684a      	ldr	r2, [r1, #4]
    hi2s->State = HAL_I2S_STATE_READY;
 8002a84:	f04f 0c01 	mov.w	ip, #1
    CLEAR_BIT(hi2s->Instance->CR2, SPI_CR2_TXDMAEN);
 8002a88:	f022 0202 	bic.w	r2, r2, #2
 8002a8c:	604a      	str	r2, [r1, #4]
    hi2s->TxXferCount = 0U;
 8002a8e:	8543      	strh	r3, [r0, #42]	@ 0x2a
    hi2s->State = HAL_I2S_STATE_READY;
 8002a90:	f880 c041 	strb.w	ip, [r0, #65]	@ 0x41
  HAL_I2S_TxCpltCallback(hi2s);
 8002a94:	f7fd ffa2 	bl	80009dc <HAL_I2S_TxCpltCallback>
}
 8002a98:	bd08      	pop	{r3, pc}
 8002a9a:	bf00      	nop

08002a9c <HAL_I2S_RxCpltCallback>:
__weak void HAL_I2S_RxCpltCallback(I2S_HandleTypeDef *hi2s)
 8002a9c:	4770      	bx	lr
 8002a9e:	bf00      	nop

08002aa0 <HAL_I2S_ErrorCallback>:
__weak void HAL_I2S_ErrorCallback(I2S_HandleTypeDef *hi2s)
 8002aa0:	4770      	bx	lr
 8002aa2:	bf00      	nop

08002aa4 <I2S_IRQHandler>:
  * @param  hi2s: pointer to a I2S_HandleTypeDef structure that contains
  *         the configuration information for I2S module
  * @retval None
  */
static void I2S_IRQHandler(I2S_HandleTypeDef *hi2s)
{
 8002aa4:	b510      	push	{r4, lr}
  __IO uint32_t i2ssr = hi2s->Instance->SR;
 8002aa6:	6803      	ldr	r3, [r0, #0]
{
 8002aa8:	b084      	sub	sp, #16
  __IO uint32_t i2ssr = hi2s->Instance->SR;
 8002aaa:	689a      	ldr	r2, [r3, #8]
 8002aac:	9201      	str	r2, [sp, #4]

  if (hi2s->State == HAL_I2S_STATE_BUSY_RX)
 8002aae:	f890 2041 	ldrb.w	r2, [r0, #65]	@ 0x41
 8002ab2:	2a04      	cmp	r2, #4
{
 8002ab4:	4604      	mov	r4, r0
  if (hi2s->State == HAL_I2S_STATE_BUSY_RX)
 8002ab6:	d005      	beq.n	8002ac4 <I2S_IRQHandler+0x20>
      HAL_I2S_ErrorCallback(hi2s);
#endif /* USE_HAL_I2S_REGISTER_CALLBACKS */
    }
  }

  if (hi2s->State == HAL_I2S_STATE_BUSY_TX)
 8002ab8:	f894 3041 	ldrb.w	r3, [r4, #65]	@ 0x41
 8002abc:	2b03      	cmp	r3, #3
 8002abe:	d031      	beq.n	8002b24 <I2S_IRQHandler+0x80>
#else
      HAL_I2S_ErrorCallback(hi2s);
#endif /* USE_HAL_I2S_REGISTER_CALLBACKS */
    }
  }
}
 8002ac0:	b004      	add	sp, #16
 8002ac2:	bd10      	pop	{r4, pc}
    if (((i2ssr & I2S_FLAG_RXNE) == I2S_FLAG_RXNE) && (__HAL_I2S_GET_IT_SOURCE(hi2s, I2S_IT_RXNE) != RESET))
 8002ac4:	9a01      	ldr	r2, [sp, #4]
 8002ac6:	07d1      	lsls	r1, r2, #31
 8002ac8:	d50f      	bpl.n	8002aea <I2S_IRQHandler+0x46>
 8002aca:	685a      	ldr	r2, [r3, #4]
 8002acc:	0652      	lsls	r2, r2, #25
 8002ace:	d50c      	bpl.n	8002aea <I2S_IRQHandler+0x46>
  (*hi2s->pRxBuffPtr) = (uint16_t)hi2s->Instance->DR;
 8002ad0:	6ac1      	ldr	r1, [r0, #44]	@ 0x2c
 8002ad2:	68da      	ldr	r2, [r3, #12]
 8002ad4:	f821 2b02 	strh.w	r2, [r1], #2
  hi2s->RxXferCount--;
 8002ad8:	8e42      	ldrh	r2, [r0, #50]	@ 0x32
  hi2s->pRxBuffPtr++;
 8002ada:	62c1      	str	r1, [r0, #44]	@ 0x2c
  hi2s->RxXferCount--;
 8002adc:	3a01      	subs	r2, #1
 8002ade:	b292      	uxth	r2, r2
 8002ae0:	8642      	strh	r2, [r0, #50]	@ 0x32
  if (hi2s->RxXferCount == 0U)
 8002ae2:	8e42      	ldrh	r2, [r0, #50]	@ 0x32
 8002ae4:	b292      	uxth	r2, r2
 8002ae6:	2a00      	cmp	r2, #0
 8002ae8:	d04a      	beq.n	8002b80 <I2S_IRQHandler+0xdc>
    if (((i2ssr & I2S_FLAG_OVR) == I2S_FLAG_OVR) && (__HAL_I2S_GET_IT_SOURCE(hi2s, I2S_IT_ERR) != RESET))
 8002aea:	9b01      	ldr	r3, [sp, #4]
 8002aec:	0659      	lsls	r1, r3, #25
 8002aee:	d5e3      	bpl.n	8002ab8 <I2S_IRQHandler+0x14>
 8002af0:	6823      	ldr	r3, [r4, #0]
 8002af2:	685a      	ldr	r2, [r3, #4]
 8002af4:	0692      	lsls	r2, r2, #26
 8002af6:	d5df      	bpl.n	8002ab8 <I2S_IRQHandler+0x14>
      __HAL_I2S_DISABLE_IT(hi2s, (I2S_IT_RXNE | I2S_IT_ERR));
 8002af8:	685a      	ldr	r2, [r3, #4]
      __HAL_I2S_CLEAR_OVRFLAG(hi2s);
 8002afa:	2100      	movs	r1, #0
      __HAL_I2S_DISABLE_IT(hi2s, (I2S_IT_RXNE | I2S_IT_ERR));
 8002afc:	f022 0260 	bic.w	r2, r2, #96	@ 0x60
 8002b00:	605a      	str	r2, [r3, #4]
      __HAL_I2S_CLEAR_OVRFLAG(hi2s);
 8002b02:	9102      	str	r1, [sp, #8]
 8002b04:	68da      	ldr	r2, [r3, #12]
 8002b06:	9202      	str	r2, [sp, #8]
 8002b08:	689b      	ldr	r3, [r3, #8]
 8002b0a:	9302      	str	r3, [sp, #8]
      hi2s->State = HAL_I2S_STATE_READY;
 8002b0c:	2301      	movs	r3, #1
      __HAL_I2S_CLEAR_OVRFLAG(hi2s);
 8002b0e:	9a02      	ldr	r2, [sp, #8]
      hi2s->State = HAL_I2S_STATE_READY;
 8002b10:	f884 3041 	strb.w	r3, [r4, #65]	@ 0x41
      SET_BIT(hi2s->ErrorCode, HAL_I2S_ERROR_OVR);
 8002b14:	6c63      	ldr	r3, [r4, #68]	@ 0x44
 8002b16:	f043 0302 	orr.w	r3, r3, #2
      HAL_I2S_ErrorCallback(hi2s);
 8002b1a:	4620      	mov	r0, r4
      SET_BIT(hi2s->ErrorCode, HAL_I2S_ERROR_OVR);
 8002b1c:	6463      	str	r3, [r4, #68]	@ 0x44
      HAL_I2S_ErrorCallback(hi2s);
 8002b1e:	f7ff ffbf 	bl	8002aa0 <HAL_I2S_ErrorCallback>
 8002b22:	e7c9      	b.n	8002ab8 <I2S_IRQHandler+0x14>
    if (((i2ssr & I2S_FLAG_TXE) == I2S_FLAG_TXE) && (__HAL_I2S_GET_IT_SOURCE(hi2s, I2S_IT_TXE) != RESET))
 8002b24:	9b01      	ldr	r3, [sp, #4]
 8002b26:	079b      	lsls	r3, r3, #30
 8002b28:	d50f      	bpl.n	8002b4a <I2S_IRQHandler+0xa6>
 8002b2a:	6823      	ldr	r3, [r4, #0]
 8002b2c:	685a      	ldr	r2, [r3, #4]
 8002b2e:	0610      	lsls	r0, r2, #24
 8002b30:	d50b      	bpl.n	8002b4a <I2S_IRQHandler+0xa6>
  hi2s->Instance->DR = (*hi2s->pTxBuffPtr);
 8002b32:	6a61      	ldr	r1, [r4, #36]	@ 0x24
 8002b34:	f831 2b02 	ldrh.w	r2, [r1], #2
 8002b38:	60da      	str	r2, [r3, #12]
  hi2s->TxXferCount--;
 8002b3a:	8d62      	ldrh	r2, [r4, #42]	@ 0x2a
  hi2s->pTxBuffPtr++;
 8002b3c:	6261      	str	r1, [r4, #36]	@ 0x24
  hi2s->TxXferCount--;
 8002b3e:	3a01      	subs	r2, #1
 8002b40:	b292      	uxth	r2, r2
 8002b42:	8562      	strh	r2, [r4, #42]	@ 0x2a
  if (hi2s->TxXferCount == 0U)
 8002b44:	8d62      	ldrh	r2, [r4, #42]	@ 0x2a
 8002b46:	b292      	uxth	r2, r2
 8002b48:	b322      	cbz	r2, 8002b94 <I2S_IRQHandler+0xf0>
    if (((i2ssr & I2S_FLAG_UDR) == I2S_FLAG_UDR) && (__HAL_I2S_GET_IT_SOURCE(hi2s, I2S_IT_ERR) != RESET))
 8002b4a:	9b01      	ldr	r3, [sp, #4]
 8002b4c:	0719      	lsls	r1, r3, #28
 8002b4e:	d5b7      	bpl.n	8002ac0 <I2S_IRQHandler+0x1c>
 8002b50:	6823      	ldr	r3, [r4, #0]
 8002b52:	685a      	ldr	r2, [r3, #4]
 8002b54:	0692      	lsls	r2, r2, #26
 8002b56:	d5b3      	bpl.n	8002ac0 <I2S_IRQHandler+0x1c>
      __HAL_I2S_DISABLE_IT(hi2s, (I2S_IT_TXE | I2S_IT_ERR));
 8002b58:	685a      	ldr	r2, [r3, #4]
      __HAL_I2S_CLEAR_UDRFLAG(hi2s);
 8002b5a:	2100      	movs	r1, #0
      __HAL_I2S_DISABLE_IT(hi2s, (I2S_IT_TXE | I2S_IT_ERR));
 8002b5c:	f022 02a0 	bic.w	r2, r2, #160	@ 0xa0
 8002b60:	605a      	str	r2, [r3, #4]
      __HAL_I2S_CLEAR_UDRFLAG(hi2s);
 8002b62:	9103      	str	r1, [sp, #12]
 8002b64:	689b      	ldr	r3, [r3, #8]
 8002b66:	9303      	str	r3, [sp, #12]
      hi2s->State = HAL_I2S_STATE_READY;
 8002b68:	2301      	movs	r3, #1
      __HAL_I2S_CLEAR_UDRFLAG(hi2s);
 8002b6a:	9a03      	ldr	r2, [sp, #12]
      hi2s->State = HAL_I2S_STATE_READY;
 8002b6c:	f884 3041 	strb.w	r3, [r4, #65]	@ 0x41
      SET_BIT(hi2s->ErrorCode, HAL_I2S_ERROR_UDR);
 8002b70:	6c63      	ldr	r3, [r4, #68]	@ 0x44
 8002b72:	f043 0304 	orr.w	r3, r3, #4
      HAL_I2S_ErrorCallback(hi2s);
 8002b76:	4620      	mov	r0, r4
      SET_BIT(hi2s->ErrorCode, HAL_I2S_ERROR_UDR);
 8002b78:	6463      	str	r3, [r4, #68]	@ 0x44
      HAL_I2S_ErrorCallback(hi2s);
 8002b7a:	f7ff ff91 	bl	8002aa0 <HAL_I2S_ErrorCallback>
}
 8002b7e:	e79f      	b.n	8002ac0 <I2S_IRQHandler+0x1c>
    __HAL_I2S_DISABLE_IT(hi2s, (I2S_IT_RXNE | I2S_IT_ERR));
 8002b80:	685a      	ldr	r2, [r3, #4]
    hi2s->State = HAL_I2S_STATE_READY;
 8002b82:	2101      	movs	r1, #1
    __HAL_I2S_DISABLE_IT(hi2s, (I2S_IT_RXNE | I2S_IT_ERR));
 8002b84:	f022 0260 	bic.w	r2, r2, #96	@ 0x60
 8002b88:	605a      	str	r2, [r3, #4]
    hi2s->State = HAL_I2S_STATE_READY;
 8002b8a:	f880 1041 	strb.w	r1, [r0, #65]	@ 0x41
    HAL_I2S_RxCpltCallback(hi2s);
 8002b8e:	f7ff ff85 	bl	8002a9c <HAL_I2S_RxCpltCallback>
 8002b92:	e7aa      	b.n	8002aea <I2S_IRQHandler+0x46>
    __HAL_I2S_DISABLE_IT(hi2s, (I2S_IT_TXE | I2S_IT_ERR));
 8002b94:	685a      	ldr	r2, [r3, #4]
    hi2s->State = HAL_I2S_STATE_READY;
 8002b96:	2101      	movs	r1, #1
    __HAL_I2S_DISABLE_IT(hi2s, (I2S_IT_TXE | I2S_IT_ERR));
 8002b98:	f022 02a0 	bic.w	r2, r2, #160	@ 0xa0
 8002b9c:	605a      	str	r2, [r3, #4]
    HAL_I2S_TxCpltCallback(hi2s);
 8002b9e:	4620      	mov	r0, r4
    hi2s->State = HAL_I2S_STATE_READY;
 8002ba0:	f884 1041 	strb.w	r1, [r4, #65]	@ 0x41
    HAL_I2S_TxCpltCallback(hi2s);
 8002ba4:	f7fd ff1a 	bl	80009dc <HAL_I2S_TxCpltCallback>
 8002ba8:	e7cf      	b.n	8002b4a <I2S_IRQHandler+0xa6>
 8002baa:	bf00      	nop

08002bac <I2S_DMAError>:
  I2S_HandleTypeDef *hi2s = (I2S_HandleTypeDef *)((DMA_HandleTypeDef *)hdma)->Parent; /* Derogation MISRAC2012-Rule-11.5 */
 8002bac:	6b80      	ldr	r0, [r0, #56]	@ 0x38
  CLEAR_BIT(hi2s->Instance->CR2, (SPI_CR2_RXDMAEN | SPI_CR2_TXDMAEN));
 8002bae:	6801      	ldr	r1, [r0, #0]
{
 8002bb0:	b508      	push	{r3, lr}
  CLEAR_BIT(hi2s->Instance->CR2, (SPI_CR2_RXDMAEN | SPI_CR2_TXDMAEN));
 8002bb2:	684b      	ldr	r3, [r1, #4]
  hi2s->TxXferCount = 0U;
 8002bb4:	2200      	movs	r2, #0
  hi2s->State = HAL_I2S_STATE_READY;
 8002bb6:	f04f 0c01 	mov.w	ip, #1
  CLEAR_BIT(hi2s->Instance->CR2, (SPI_CR2_RXDMAEN | SPI_CR2_TXDMAEN));
 8002bba:	f023 0303 	bic.w	r3, r3, #3
 8002bbe:	604b      	str	r3, [r1, #4]
  hi2s->TxXferCount = 0U;
 8002bc0:	8542      	strh	r2, [r0, #42]	@ 0x2a
  hi2s->RxXferCount = 0U;
 8002bc2:	8642      	strh	r2, [r0, #50]	@ 0x32
  hi2s->State = HAL_I2S_STATE_READY;
 8002bc4:	f880 c041 	strb.w	ip, [r0, #65]	@ 0x41
  SET_BIT(hi2s->ErrorCode, HAL_I2S_ERROR_DMA);
 8002bc8:	6c43      	ldr	r3, [r0, #68]	@ 0x44
 8002bca:	f043 0308 	orr.w	r3, r3, #8
 8002bce:	6443      	str	r3, [r0, #68]	@ 0x44
  HAL_I2S_ErrorCallback(hi2s);
 8002bd0:	f7ff ff66 	bl	8002aa0 <HAL_I2S_ErrorCallback>
}
 8002bd4:	bd08      	pop	{r3, pc}
 8002bd6:	bf00      	nop

08002bd8 <HAL_I2SEx_TxRxCpltCallback>:
/**
  * @brief  Tx and Rx Transfer completed callback
  * @param  hi2s I2S handle
  * @retval None
  */
__weak void HAL_I2SEx_TxRxCpltCallback(I2S_HandleTypeDef *hi2s)
 8002bd8:	4770      	bx	lr
 8002bda:	bf00      	nop

08002bdc <HAL_I2SEx_FullDuplex_IRQHandler>:
{
 8002bdc:	b510      	push	{r4, lr}
  __IO uint32_t i2ssr     = hi2s->Instance->SR;
 8002bde:	6801      	ldr	r1, [r0, #0]
  __IO uint32_t i2sextsr  = I2SxEXT(hi2s->Instance)->SR;
 8002be0:	4a93      	ldr	r2, [pc, #588]	@ (8002e30 <HAL_I2SEx_FullDuplex_IRQHandler+0x254>)
  __IO uint32_t i2ssr     = hi2s->Instance->SR;
 8002be2:	688b      	ldr	r3, [r1, #8]
{
 8002be4:	b086      	sub	sp, #24
 8002be6:	4604      	mov	r4, r0
  __IO uint32_t i2ssr     = hi2s->Instance->SR;
 8002be8:	9300      	str	r3, [sp, #0]
  __IO uint32_t i2sextsr  = I2SxEXT(hi2s->Instance)->SR;
 8002bea:	4b92      	ldr	r3, [pc, #584]	@ (8002e34 <HAL_I2SEx_FullDuplex_IRQHandler+0x258>)
 8002bec:	4291      	cmp	r1, r2
 8002bee:	bf18      	it	ne
 8002bf0:	f04f 2340 	movne.w	r3, #1073758208	@ 0x40004000
 8002bf4:	689a      	ldr	r2, [r3, #8]
 8002bf6:	9201      	str	r2, [sp, #4]
  __IO uint32_t i2scr2    = hi2s->Instance->CR2;
 8002bf8:	684a      	ldr	r2, [r1, #4]
 8002bfa:	9202      	str	r2, [sp, #8]
  __IO uint32_t i2sextcr2 = I2SxEXT(hi2s->Instance)->CR2;
 8002bfc:	685a      	ldr	r2, [r3, #4]
 8002bfe:	9203      	str	r2, [sp, #12]
  if ((hi2s->Init.Mode == I2S_MODE_MASTER_TX) || (hi2s->Init.Mode == I2S_MODE_SLAVE_TX))
 8002c00:	6842      	ldr	r2, [r0, #4]
 8002c02:	f432 7200 	bics.w	r2, r2, #512	@ 0x200
 8002c06:	d078      	beq.n	8002cfa <HAL_I2SEx_FullDuplex_IRQHandler+0x11e>
    if (((i2sextsr & I2S_FLAG_TXE) == I2S_FLAG_TXE) && ((i2sextcr2 & I2S_IT_TXE) != RESET))
 8002c08:	9a01      	ldr	r2, [sp, #4]
 8002c0a:	0792      	lsls	r2, r2, #30
 8002c0c:	d51a      	bpl.n	8002c44 <HAL_I2SEx_FullDuplex_IRQHandler+0x68>
 8002c0e:	9a03      	ldr	r2, [sp, #12]
 8002c10:	0611      	lsls	r1, r2, #24
 8002c12:	d517      	bpl.n	8002c44 <HAL_I2SEx_FullDuplex_IRQHandler+0x68>
  * @retval None
  */
static void I2SEx_TxISR_I2SExt(I2S_HandleTypeDef *hi2s)
{
  /* Write Data on DR register */
  I2SxEXT(hi2s->Instance)->DR = (*hi2s->pTxBuffPtr++);
 8002c14:	6a42      	ldr	r2, [r0, #36]	@ 0x24
 8002c16:	1c91      	adds	r1, r2, #2
 8002c18:	8812      	ldrh	r2, [r2, #0]
 8002c1a:	6241      	str	r1, [r0, #36]	@ 0x24
 8002c1c:	60da      	str	r2, [r3, #12]
  hi2s->TxXferCount--;
 8002c1e:	8d42      	ldrh	r2, [r0, #42]	@ 0x2a
 8002c20:	3a01      	subs	r2, #1
 8002c22:	b292      	uxth	r2, r2
 8002c24:	8542      	strh	r2, [r0, #42]	@ 0x2a

  if (hi2s->TxXferCount == 0U)
 8002c26:	8d42      	ldrh	r2, [r0, #42]	@ 0x2a
 8002c28:	b292      	uxth	r2, r2
 8002c2a:	b95a      	cbnz	r2, 8002c44 <HAL_I2SEx_FullDuplex_IRQHandler+0x68>
  {
    /* Disable I2Sext TXE and ERR interrupt */
    __HAL_I2SEXT_DISABLE_IT(hi2s, (I2S_IT_TXE | I2S_IT_ERR));
 8002c2c:	685a      	ldr	r2, [r3, #4]
 8002c2e:	f022 02a0 	bic.w	r2, r2, #160	@ 0xa0
 8002c32:	605a      	str	r2, [r3, #4]

    if (hi2s->RxXferCount == 0U)
 8002c34:	8e43      	ldrh	r3, [r0, #50]	@ 0x32
 8002c36:	b29b      	uxth	r3, r3
 8002c38:	b923      	cbnz	r3, 8002c44 <HAL_I2SEx_FullDuplex_IRQHandler+0x68>
    {
      hi2s->State = HAL_I2S_STATE_READY;
 8002c3a:	2301      	movs	r3, #1
 8002c3c:	f880 3041 	strb.w	r3, [r0, #65]	@ 0x41
      /* Call user TxRx complete callback */
#if (USE_HAL_I2S_REGISTER_CALLBACKS == 1U)
      hi2s->TxRxCpltCallback(hi2s);
#else
      HAL_I2SEx_TxRxCpltCallback(hi2s);
 8002c40:	f7ff ffca 	bl	8002bd8 <HAL_I2SEx_TxRxCpltCallback>
    if (((i2ssr & I2S_FLAG_RXNE) == I2S_FLAG_RXNE) && ((i2scr2 & I2S_IT_RXNE) != RESET))
 8002c44:	9b00      	ldr	r3, [sp, #0]
 8002c46:	07da      	lsls	r2, r3, #31
 8002c48:	d51c      	bpl.n	8002c84 <HAL_I2SEx_FullDuplex_IRQHandler+0xa8>
 8002c4a:	9b02      	ldr	r3, [sp, #8]
 8002c4c:	065b      	lsls	r3, r3, #25
 8002c4e:	d519      	bpl.n	8002c84 <HAL_I2SEx_FullDuplex_IRQHandler+0xa8>
  * @retval None
  */
static void I2SEx_RxISR_I2S(I2S_HandleTypeDef *hi2s)
{
  /* Read Data from DR register */
  (*hi2s->pRxBuffPtr++) = hi2s->Instance->DR;
 8002c50:	6ae3      	ldr	r3, [r4, #44]	@ 0x2c
 8002c52:	6822      	ldr	r2, [r4, #0]
 8002c54:	1c98      	adds	r0, r3, #2
 8002c56:	68d1      	ldr	r1, [r2, #12]
 8002c58:	62e0      	str	r0, [r4, #44]	@ 0x2c
 8002c5a:	8019      	strh	r1, [r3, #0]
  hi2s->RxXferCount--;
 8002c5c:	8e63      	ldrh	r3, [r4, #50]	@ 0x32
 8002c5e:	3b01      	subs	r3, #1
 8002c60:	b29b      	uxth	r3, r3
 8002c62:	8663      	strh	r3, [r4, #50]	@ 0x32

  if (hi2s->RxXferCount == 0U)
 8002c64:	8e63      	ldrh	r3, [r4, #50]	@ 0x32
 8002c66:	b29b      	uxth	r3, r3
 8002c68:	b963      	cbnz	r3, 8002c84 <HAL_I2SEx_FullDuplex_IRQHandler+0xa8>
  {
    /* Disable RXNE and ERR interrupt */
    __HAL_I2S_DISABLE_IT(hi2s, (I2S_IT_RXNE | I2S_IT_ERR));
 8002c6a:	6853      	ldr	r3, [r2, #4]
 8002c6c:	f023 0360 	bic.w	r3, r3, #96	@ 0x60
 8002c70:	6053      	str	r3, [r2, #4]

    if (hi2s->TxXferCount == 0U)
 8002c72:	8d63      	ldrh	r3, [r4, #42]	@ 0x2a
 8002c74:	b29b      	uxth	r3, r3
 8002c76:	b92b      	cbnz	r3, 8002c84 <HAL_I2SEx_FullDuplex_IRQHandler+0xa8>
    {
      hi2s->State = HAL_I2S_STATE_READY;
 8002c78:	2301      	movs	r3, #1
 8002c7a:	f884 3041 	strb.w	r3, [r4, #65]	@ 0x41
      /* Call user TxRx complete callback */
#if (USE_HAL_I2S_REGISTER_CALLBACKS == 1U)
      hi2s->TxRxCpltCallback(hi2s);
#else
      HAL_I2SEx_TxRxCpltCallback(hi2s);
 8002c7e:	4620      	mov	r0, r4
 8002c80:	f7ff ffaa 	bl	8002bd8 <HAL_I2SEx_TxRxCpltCallback>
    if (((i2ssr & I2S_FLAG_OVR) == I2S_FLAG_OVR) && ((i2scr2 & I2S_IT_ERR) != RESET))
 8002c84:	9b00      	ldr	r3, [sp, #0]
 8002c86:	0658      	lsls	r0, r3, #25
 8002c88:	d51b      	bpl.n	8002cc2 <HAL_I2SEx_FullDuplex_IRQHandler+0xe6>
 8002c8a:	9b02      	ldr	r3, [sp, #8]
 8002c8c:	0699      	lsls	r1, r3, #26
 8002c8e:	d518      	bpl.n	8002cc2 <HAL_I2SEx_FullDuplex_IRQHandler+0xe6>
      __HAL_I2S_DISABLE_IT(hi2s, (I2S_IT_RXNE | I2S_IT_ERR));
 8002c90:	6822      	ldr	r2, [r4, #0]
      __HAL_I2SEXT_DISABLE_IT(hi2s, (I2S_IT_TXE | I2S_IT_ERR));
 8002c92:	4867      	ldr	r0, [pc, #412]	@ (8002e30 <HAL_I2SEx_FullDuplex_IRQHandler+0x254>)
      __HAL_I2S_DISABLE_IT(hi2s, (I2S_IT_RXNE | I2S_IT_ERR));
 8002c94:	6851      	ldr	r1, [r2, #4]
      __HAL_I2SEXT_DISABLE_IT(hi2s, (I2S_IT_TXE | I2S_IT_ERR));
 8002c96:	4b67      	ldr	r3, [pc, #412]	@ (8002e34 <HAL_I2SEx_FullDuplex_IRQHandler+0x258>)
      __HAL_I2S_DISABLE_IT(hi2s, (I2S_IT_RXNE | I2S_IT_ERR));
 8002c98:	f021 0160 	bic.w	r1, r1, #96	@ 0x60
      __HAL_I2SEXT_DISABLE_IT(hi2s, (I2S_IT_TXE | I2S_IT_ERR));
 8002c9c:	4282      	cmp	r2, r0
 8002c9e:	bf18      	it	ne
 8002ca0:	f04f 2340 	movne.w	r3, #1073758208	@ 0x40004000
      __HAL_I2S_DISABLE_IT(hi2s, (I2S_IT_RXNE | I2S_IT_ERR));
 8002ca4:	6051      	str	r1, [r2, #4]
      __HAL_I2SEXT_DISABLE_IT(hi2s, (I2S_IT_TXE | I2S_IT_ERR));
 8002ca6:	685a      	ldr	r2, [r3, #4]
      hi2s->State = HAL_I2S_STATE_READY;
 8002ca8:	2101      	movs	r1, #1
      __HAL_I2SEXT_DISABLE_IT(hi2s, (I2S_IT_TXE | I2S_IT_ERR));
 8002caa:	f022 02a0 	bic.w	r2, r2, #160	@ 0xa0
 8002cae:	605a      	str	r2, [r3, #4]
      hi2s->State = HAL_I2S_STATE_READY;
 8002cb0:	f884 1041 	strb.w	r1, [r4, #65]	@ 0x41
      SET_BIT(hi2s->ErrorCode, HAL_I2S_ERROR_OVR);
 8002cb4:	6c63      	ldr	r3, [r4, #68]	@ 0x44
 8002cb6:	f043 0302 	orr.w	r3, r3, #2
      HAL_I2S_ErrorCallback(hi2s);
 8002cba:	4620      	mov	r0, r4
      SET_BIT(hi2s->ErrorCode, HAL_I2S_ERROR_OVR);
 8002cbc:	6463      	str	r3, [r4, #68]	@ 0x44
      HAL_I2S_ErrorCallback(hi2s);
 8002cbe:	f7ff feef 	bl	8002aa0 <HAL_I2S_ErrorCallback>
    if (((i2sextsr & I2S_FLAG_UDR) == I2S_FLAG_UDR) && ((i2sextcr2 & I2S_IT_ERR) != RESET))
 8002cc2:	9b01      	ldr	r3, [sp, #4]
 8002cc4:	071a      	lsls	r2, r3, #28
 8002cc6:	d571      	bpl.n	8002dac <HAL_I2SEx_FullDuplex_IRQHandler+0x1d0>
 8002cc8:	9b03      	ldr	r3, [sp, #12]
 8002cca:	069b      	lsls	r3, r3, #26
 8002ccc:	d56e      	bpl.n	8002dac <HAL_I2SEx_FullDuplex_IRQHandler+0x1d0>
      __HAL_I2SEXT_DISABLE_IT(hi2s, (I2S_IT_TXE | I2S_IT_ERR));
 8002cce:	6822      	ldr	r2, [r4, #0]
 8002cd0:	4957      	ldr	r1, [pc, #348]	@ (8002e30 <HAL_I2SEx_FullDuplex_IRQHandler+0x254>)
 8002cd2:	4b58      	ldr	r3, [pc, #352]	@ (8002e34 <HAL_I2SEx_FullDuplex_IRQHandler+0x258>)
 8002cd4:	428a      	cmp	r2, r1
 8002cd6:	bf18      	it	ne
 8002cd8:	f04f 2340 	movne.w	r3, #1073758208	@ 0x40004000
      hi2s->State = HAL_I2S_STATE_READY;
 8002cdc:	f04f 0c01 	mov.w	ip, #1
      __HAL_I2SEXT_DISABLE_IT(hi2s, (I2S_IT_TXE | I2S_IT_ERR));
 8002ce0:	6859      	ldr	r1, [r3, #4]
 8002ce2:	f021 01a0 	bic.w	r1, r1, #160	@ 0xa0
 8002ce6:	6059      	str	r1, [r3, #4]
      __HAL_I2S_DISABLE_IT(hi2s, (I2S_IT_RXNE | I2S_IT_ERR));
 8002ce8:	6853      	ldr	r3, [r2, #4]
 8002cea:	f023 0360 	bic.w	r3, r3, #96	@ 0x60
 8002cee:	6053      	str	r3, [r2, #4]
      hi2s->State = HAL_I2S_STATE_READY;
 8002cf0:	f884 c041 	strb.w	ip, [r4, #65]	@ 0x41
      SET_BIT(hi2s->ErrorCode, HAL_I2S_ERROR_UDR);
 8002cf4:	6c63      	ldr	r3, [r4, #68]	@ 0x44
      HAL_I2S_ErrorCallback(hi2s);
 8002cf6:	4620      	mov	r0, r4
 8002cf8:	e050      	b.n	8002d9c <HAL_I2SEx_FullDuplex_IRQHandler+0x1c0>
    if (((i2ssr & I2S_FLAG_TXE) == I2S_FLAG_TXE) && ((i2scr2 & I2S_IT_TXE) != RESET))
 8002cfa:	9b00      	ldr	r3, [sp, #0]
 8002cfc:	079a      	lsls	r2, r3, #30
 8002cfe:	d502      	bpl.n	8002d06 <HAL_I2SEx_FullDuplex_IRQHandler+0x12a>
 8002d00:	9b02      	ldr	r3, [sp, #8]
 8002d02:	061b      	lsls	r3, r3, #24
 8002d04:	d454      	bmi.n	8002db0 <HAL_I2SEx_FullDuplex_IRQHandler+0x1d4>
    if (((i2sextsr & I2S_FLAG_RXNE) == I2S_FLAG_RXNE) && ((i2sextcr2 & I2S_IT_RXNE) != RESET))
 8002d06:	9b01      	ldr	r3, [sp, #4]
 8002d08:	07d8      	lsls	r0, r3, #31
 8002d0a:	d502      	bpl.n	8002d12 <HAL_I2SEx_FullDuplex_IRQHandler+0x136>
 8002d0c:	9b03      	ldr	r3, [sp, #12]
 8002d0e:	0659      	lsls	r1, r3, #25
 8002d10:	d469      	bmi.n	8002de6 <HAL_I2SEx_FullDuplex_IRQHandler+0x20a>
    if (((i2sextsr & I2S_FLAG_OVR) == I2S_FLAG_OVR) && ((i2sextcr2 & I2S_IT_ERR) != RESET))
 8002d12:	9b01      	ldr	r3, [sp, #4]
 8002d14:	065a      	lsls	r2, r3, #25
 8002d16:	d522      	bpl.n	8002d5e <HAL_I2SEx_FullDuplex_IRQHandler+0x182>
 8002d18:	9b03      	ldr	r3, [sp, #12]
 8002d1a:	069b      	lsls	r3, r3, #26
 8002d1c:	d51f      	bpl.n	8002d5e <HAL_I2SEx_FullDuplex_IRQHandler+0x182>
      __HAL_I2SEXT_DISABLE_IT(hi2s, (I2S_IT_RXNE | I2S_IT_ERR));
 8002d1e:	6823      	ldr	r3, [r4, #0]
 8002d20:	4943      	ldr	r1, [pc, #268]	@ (8002e30 <HAL_I2SEx_FullDuplex_IRQHandler+0x254>)
 8002d22:	4a44      	ldr	r2, [pc, #272]	@ (8002e34 <HAL_I2SEx_FullDuplex_IRQHandler+0x258>)
 8002d24:	428b      	cmp	r3, r1
 8002d26:	bf18      	it	ne
 8002d28:	f04f 2240 	movne.w	r2, #1073758208	@ 0x40004000
      __HAL_I2S_CLEAR_OVRFLAG(hi2s);
 8002d2c:	2000      	movs	r0, #0
      __HAL_I2SEXT_DISABLE_IT(hi2s, (I2S_IT_RXNE | I2S_IT_ERR));
 8002d2e:	6851      	ldr	r1, [r2, #4]
 8002d30:	f021 0160 	bic.w	r1, r1, #96	@ 0x60
 8002d34:	6051      	str	r1, [r2, #4]
      __HAL_I2S_DISABLE_IT(hi2s, (I2S_IT_TXE | I2S_IT_ERR));
 8002d36:	685a      	ldr	r2, [r3, #4]
 8002d38:	f022 02a0 	bic.w	r2, r2, #160	@ 0xa0
 8002d3c:	605a      	str	r2, [r3, #4]
      __HAL_I2S_CLEAR_OVRFLAG(hi2s);
 8002d3e:	9004      	str	r0, [sp, #16]
 8002d40:	68da      	ldr	r2, [r3, #12]
 8002d42:	9204      	str	r2, [sp, #16]
 8002d44:	689b      	ldr	r3, [r3, #8]
 8002d46:	9304      	str	r3, [sp, #16]
      hi2s->State = HAL_I2S_STATE_READY;
 8002d48:	2101      	movs	r1, #1
      __HAL_I2S_CLEAR_OVRFLAG(hi2s);
 8002d4a:	9b04      	ldr	r3, [sp, #16]
      hi2s->State = HAL_I2S_STATE_READY;
 8002d4c:	f884 1041 	strb.w	r1, [r4, #65]	@ 0x41
      SET_BIT(hi2s->ErrorCode, HAL_I2S_ERROR_OVR);
 8002d50:	6c63      	ldr	r3, [r4, #68]	@ 0x44
 8002d52:	f043 0302 	orr.w	r3, r3, #2
      HAL_I2S_ErrorCallback(hi2s);
 8002d56:	4620      	mov	r0, r4
      SET_BIT(hi2s->ErrorCode, HAL_I2S_ERROR_OVR);
 8002d58:	6463      	str	r3, [r4, #68]	@ 0x44
      HAL_I2S_ErrorCallback(hi2s);
 8002d5a:	f7ff fea1 	bl	8002aa0 <HAL_I2S_ErrorCallback>
    if (((i2ssr & I2S_FLAG_UDR) == I2S_FLAG_UDR) && ((i2scr2 & I2S_IT_ERR) != RESET))
 8002d5e:	9b00      	ldr	r3, [sp, #0]
 8002d60:	0718      	lsls	r0, r3, #28
 8002d62:	d523      	bpl.n	8002dac <HAL_I2SEx_FullDuplex_IRQHandler+0x1d0>
 8002d64:	9b02      	ldr	r3, [sp, #8]
 8002d66:	0699      	lsls	r1, r3, #26
 8002d68:	d520      	bpl.n	8002dac <HAL_I2SEx_FullDuplex_IRQHandler+0x1d0>
      __HAL_I2S_DISABLE_IT(hi2s, (I2S_IT_TXE | I2S_IT_ERR));
 8002d6a:	6823      	ldr	r3, [r4, #0]
      __HAL_I2SEXT_DISABLE_IT(hi2s, (I2S_IT_RXNE | I2S_IT_ERR));
 8002d6c:	4830      	ldr	r0, [pc, #192]	@ (8002e30 <HAL_I2SEx_FullDuplex_IRQHandler+0x254>)
      __HAL_I2S_DISABLE_IT(hi2s, (I2S_IT_TXE | I2S_IT_ERR));
 8002d6e:	6859      	ldr	r1, [r3, #4]
      __HAL_I2SEXT_DISABLE_IT(hi2s, (I2S_IT_RXNE | I2S_IT_ERR));
 8002d70:	4a30      	ldr	r2, [pc, #192]	@ (8002e34 <HAL_I2SEx_FullDuplex_IRQHandler+0x258>)
      __HAL_I2S_DISABLE_IT(hi2s, (I2S_IT_TXE | I2S_IT_ERR));
 8002d72:	f021 01a0 	bic.w	r1, r1, #160	@ 0xa0
      __HAL_I2SEXT_DISABLE_IT(hi2s, (I2S_IT_RXNE | I2S_IT_ERR));
 8002d76:	4283      	cmp	r3, r0
 8002d78:	bf18      	it	ne
 8002d7a:	f04f 2240 	movne.w	r2, #1073758208	@ 0x40004000
      __HAL_I2S_DISABLE_IT(hi2s, (I2S_IT_TXE | I2S_IT_ERR));
 8002d7e:	6059      	str	r1, [r3, #4]
      __HAL_I2SEXT_DISABLE_IT(hi2s, (I2S_IT_RXNE | I2S_IT_ERR));
 8002d80:	6851      	ldr	r1, [r2, #4]
      __HAL_I2S_CLEAR_UDRFLAG(hi2s);
 8002d82:	2000      	movs	r0, #0
      __HAL_I2SEXT_DISABLE_IT(hi2s, (I2S_IT_RXNE | I2S_IT_ERR));
 8002d84:	f021 0160 	bic.w	r1, r1, #96	@ 0x60
 8002d88:	6051      	str	r1, [r2, #4]
      __HAL_I2S_CLEAR_UDRFLAG(hi2s);
 8002d8a:	9005      	str	r0, [sp, #20]
 8002d8c:	689b      	ldr	r3, [r3, #8]
 8002d8e:	9305      	str	r3, [sp, #20]
      hi2s->State = HAL_I2S_STATE_READY;
 8002d90:	2301      	movs	r3, #1
      __HAL_I2S_CLEAR_UDRFLAG(hi2s);
 8002d92:	9a05      	ldr	r2, [sp, #20]
      hi2s->State = HAL_I2S_STATE_READY;
 8002d94:	f884 3041 	strb.w	r3, [r4, #65]	@ 0x41
      SET_BIT(hi2s->ErrorCode, HAL_I2S_ERROR_UDR);
 8002d98:	6c63      	ldr	r3, [r4, #68]	@ 0x44
      HAL_I2S_ErrorCallback(hi2s);
 8002d9a:	4620      	mov	r0, r4
      SET_BIT(hi2s->ErrorCode, HAL_I2S_ERROR_UDR);
 8002d9c:	f043 0304 	orr.w	r3, r3, #4
 8002da0:	6463      	str	r3, [r4, #68]	@ 0x44
}
 8002da2:	b006      	add	sp, #24
 8002da4:	e8bd 4010 	ldmia.w	sp!, {r4, lr}
      HAL_I2S_ErrorCallback(hi2s);
 8002da8:	f7ff be7a 	b.w	8002aa0 <HAL_I2S_ErrorCallback>
}
 8002dac:	b006      	add	sp, #24
 8002dae:	bd10      	pop	{r4, pc}
  hi2s->Instance->DR = (*hi2s->pTxBuffPtr++);
 8002db0:	6a43      	ldr	r3, [r0, #36]	@ 0x24
 8002db2:	1c9a      	adds	r2, r3, #2
 8002db4:	881b      	ldrh	r3, [r3, #0]
 8002db6:	6242      	str	r2, [r0, #36]	@ 0x24
 8002db8:	60cb      	str	r3, [r1, #12]
  hi2s->TxXferCount--;
 8002dba:	8d43      	ldrh	r3, [r0, #42]	@ 0x2a
 8002dbc:	3b01      	subs	r3, #1
 8002dbe:	b29b      	uxth	r3, r3
 8002dc0:	8543      	strh	r3, [r0, #42]	@ 0x2a
  if (hi2s->TxXferCount == 0U)
 8002dc2:	8d43      	ldrh	r3, [r0, #42]	@ 0x2a
 8002dc4:	b29b      	uxth	r3, r3
 8002dc6:	2b00      	cmp	r3, #0
 8002dc8:	d19d      	bne.n	8002d06 <HAL_I2SEx_FullDuplex_IRQHandler+0x12a>
    __HAL_I2S_DISABLE_IT(hi2s, (I2S_IT_TXE | I2S_IT_ERR));
 8002dca:	684b      	ldr	r3, [r1, #4]
 8002dcc:	f023 03a0 	bic.w	r3, r3, #160	@ 0xa0
 8002dd0:	604b      	str	r3, [r1, #4]
    if (hi2s->RxXferCount == 0U)
 8002dd2:	8e43      	ldrh	r3, [r0, #50]	@ 0x32
 8002dd4:	b29b      	uxth	r3, r3
 8002dd6:	2b00      	cmp	r3, #0
 8002dd8:	d195      	bne.n	8002d06 <HAL_I2SEx_FullDuplex_IRQHandler+0x12a>
      hi2s->State = HAL_I2S_STATE_READY;
 8002dda:	2301      	movs	r3, #1
 8002ddc:	f880 3041 	strb.w	r3, [r0, #65]	@ 0x41
      HAL_I2SEx_TxRxCpltCallback(hi2s);
 8002de0:	f7ff fefa 	bl	8002bd8 <HAL_I2SEx_TxRxCpltCallback>
 8002de4:	e78f      	b.n	8002d06 <HAL_I2SEx_FullDuplex_IRQHandler+0x12a>
  * @retval None
  */
static void I2SEx_RxISR_I2SExt(I2S_HandleTypeDef *hi2s)
{
  /* Read Data from DR register */
  (*hi2s->pRxBuffPtr++) = I2SxEXT(hi2s->Instance)->DR;
 8002de6:	6820      	ldr	r0, [r4, #0]
 8002de8:	4911      	ldr	r1, [pc, #68]	@ (8002e30 <HAL_I2SEx_FullDuplex_IRQHandler+0x254>)
 8002dea:	4a12      	ldr	r2, [pc, #72]	@ (8002e34 <HAL_I2SEx_FullDuplex_IRQHandler+0x258>)
 8002dec:	6ae3      	ldr	r3, [r4, #44]	@ 0x2c
 8002dee:	4288      	cmp	r0, r1
 8002df0:	bf18      	it	ne
 8002df2:	f04f 2240 	movne.w	r2, #1073758208	@ 0x40004000
 8002df6:	1c98      	adds	r0, r3, #2
 8002df8:	68d1      	ldr	r1, [r2, #12]
 8002dfa:	62e0      	str	r0, [r4, #44]	@ 0x2c
 8002dfc:	8019      	strh	r1, [r3, #0]
  hi2s->RxXferCount--;
 8002dfe:	8e63      	ldrh	r3, [r4, #50]	@ 0x32
 8002e00:	3b01      	subs	r3, #1
 8002e02:	b29b      	uxth	r3, r3
 8002e04:	8663      	strh	r3, [r4, #50]	@ 0x32

  if (hi2s->RxXferCount == 0U)
 8002e06:	8e63      	ldrh	r3, [r4, #50]	@ 0x32
 8002e08:	b29b      	uxth	r3, r3
 8002e0a:	2b00      	cmp	r3, #0
 8002e0c:	d181      	bne.n	8002d12 <HAL_I2SEx_FullDuplex_IRQHandler+0x136>
  {
    /* Disable I2Sext RXNE and ERR interrupt */
    __HAL_I2SEXT_DISABLE_IT(hi2s, (I2S_IT_RXNE | I2S_IT_ERR));
 8002e0e:	6853      	ldr	r3, [r2, #4]
 8002e10:	f023 0360 	bic.w	r3, r3, #96	@ 0x60
 8002e14:	6053      	str	r3, [r2, #4]

    if (hi2s->TxXferCount == 0U)
 8002e16:	8d63      	ldrh	r3, [r4, #42]	@ 0x2a
 8002e18:	b29b      	uxth	r3, r3
 8002e1a:	2b00      	cmp	r3, #0
 8002e1c:	f47f af79 	bne.w	8002d12 <HAL_I2SEx_FullDuplex_IRQHandler+0x136>
    {
      hi2s->State = HAL_I2S_STATE_READY;
 8002e20:	2301      	movs	r3, #1
 8002e22:	f884 3041 	strb.w	r3, [r4, #65]	@ 0x41
      /* Call user TxRx complete callback */
#if (USE_HAL_I2S_REGISTER_CALLBACKS == 1U)
      hi2s->TxRxCpltCallback(hi2s);
#else
      HAL_I2SEx_TxRxCpltCallback(hi2s);
 8002e26:	4620      	mov	r0, r4
 8002e28:	f7ff fed6 	bl	8002bd8 <HAL_I2SEx_TxRxCpltCallback>
 8002e2c:	e771      	b.n	8002d12 <HAL_I2SEx_FullDuplex_IRQHandler+0x136>
 8002e2e:	bf00      	nop
 8002e30:	40003800 	.word	0x40003800
 8002e34:	40003400 	.word	0x40003400

08002e38 <HAL_PCD_Init>:
  *         parameters in the PCD_InitTypeDef and initialize the associated handle.
  * @param  hpcd PCD handle
  * @retval HAL status
  */
HAL_StatusTypeDef HAL_PCD_Init(PCD_HandleTypeDef *hpcd)
{
 8002e38:	b530      	push	{r4, r5, lr}
 8002e3a:	b083      	sub	sp, #12
  const USB_OTG_GlobalTypeDef *USBx;
#endif /* defined (USB_OTG_FS) */
  uint8_t i;

  /* Check the PCD handle allocation */
  if (hpcd == NULL)
 8002e3c:	b308      	cbz	r0, 8002e82 <HAL_PCD_Init+0x4a>

#if defined (USB_OTG_FS)
  USBx = hpcd->Instance;
#endif /* defined (USB_OTG_FS) */

  if (hpcd->State == HAL_PCD_STATE_RESET)
 8002e3e:	f890 3495 	ldrb.w	r3, [r0, #1173]	@ 0x495
  USBx = hpcd->Instance;
 8002e42:	6805      	ldr	r5, [r0, #0]
  if (hpcd->State == HAL_PCD_STATE_RESET)
 8002e44:	4604      	mov	r4, r0
 8002e46:	f003 02ff 	and.w	r2, r3, #255	@ 0xff
 8002e4a:	2b00      	cmp	r3, #0
 8002e4c:	f000 81ef 	beq.w	800322e <HAL_PCD_Init+0x3f6>
 8002e50:	4628      	mov	r0, r5
    /* Init the low level hardware : GPIO, CLOCK, NVIC... */
    HAL_PCD_MspInit(hpcd);
#endif /* (USE_HAL_PCD_REGISTER_CALLBACKS) */
  }

  hpcd->State = HAL_PCD_STATE_BUSY;
 8002e52:	2303      	movs	r3, #3

#if defined (USB_OTG_FS)
  /* Disable DMA mode for FS instance */
  if (USBx == USB_OTG_FS)
 8002e54:	f1b5 4fa0 	cmp.w	r5, #1342177280	@ 0x50000000
  hpcd->State = HAL_PCD_STATE_BUSY;
 8002e58:	f884 3495 	strb.w	r3, [r4, #1173]	@ 0x495
  {
    hpcd->Init.dma_enable = 0U;
 8002e5c:	bf04      	itt	eq
 8002e5e:	2300      	moveq	r3, #0
 8002e60:	71a3      	strbeq	r3, [r4, #6]
  }
#endif /* defined (USB_OTG_FS) */

  /* Disable the Interrupts */
  __HAL_PCD_DISABLE(hpcd);
 8002e62:	f001 fe03 	bl	8004a6c <USB_DisableGlobalInt>

  /*Init the Core (common init.) */
  if (USB_CoreInit(hpcd->Instance, hpcd->Init) != HAL_OK)
 8002e66:	7c23      	ldrb	r3, [r4, #16]
 8002e68:	f88d 3000 	strb.w	r3, [sp]
 8002e6c:	1d25      	adds	r5, r4, #4
 8002e6e:	e895 000e 	ldmia.w	r5, {r1, r2, r3}
 8002e72:	6820      	ldr	r0, [r4, #0]
 8002e74:	f001 fce4 	bl	8004840 <USB_CoreInit>
 8002e78:	4601      	mov	r1, r0
 8002e7a:	b130      	cbz	r0, 8002e8a <HAL_PCD_Init+0x52>
  {
    hpcd->State = HAL_PCD_STATE_ERROR;
 8002e7c:	2302      	movs	r3, #2
 8002e7e:	f884 3495 	strb.w	r3, [r4, #1173]	@ 0x495
    return HAL_ERROR;
 8002e82:	2501      	movs	r5, #1
          defined(STM32F412Vx) || defined(STM32F412Rx) || defined(STM32F412Cx) || defined(STM32F413xx) ||
          defined(STM32F423xx) */
  (void)USB_DevDisconnect(hpcd->Instance);

  return HAL_OK;
}
 8002e84:	4628      	mov	r0, r5
 8002e86:	b003      	add	sp, #12
 8002e88:	bd30      	pop	{r4, r5, pc}
  if (USB_SetCurrentMode(hpcd->Instance, USB_DEVICE_MODE) != HAL_OK)
 8002e8a:	6820      	ldr	r0, [r4, #0]
 8002e8c:	f001 fdf6 	bl	8004a7c <USB_SetCurrentMode>
 8002e90:	2800      	cmp	r0, #0
 8002e92:	d1f3      	bne.n	8002e7c <HAL_PCD_Init+0x44>
  for (i = 0U; i < hpcd->Init.dev_endpoints; i++)
 8002e94:	7922      	ldrb	r2, [r4, #4]
 8002e96:	2a00      	cmp	r2, #0
 8002e98:	f000 81b3 	beq.w	8003202 <HAL_PCD_Init+0x3ca>
    hpcd->IN_ep[i].num = i;
 8002e9c:	f44f 7380 	mov.w	r3, #256	@ 0x100
  for (i = 0U; i < hpcd->Init.dev_endpoints; i++)
 8002ea0:	2a01      	cmp	r2, #1
    hpcd->IN_ep[i].xfer_buff = 0U;
 8002ea2:	e9c4 0007 	strd	r0, r0, [r4, #28]
    hpcd->IN_ep[i].num = i;
 8002ea6:	82a3      	strh	r3, [r4, #20]
    hpcd->IN_ep[i].tx_fifo_num = i;
 8002ea8:	85e0      	strh	r0, [r4, #46]	@ 0x2e
    hpcd->IN_ep[i].type = EP_TYPE_CTRL;
 8002eaa:	7620      	strb	r0, [r4, #24]
    hpcd->IN_ep[i].xfer_len = 0U;
 8002eac:	6260      	str	r0, [r4, #36]	@ 0x24
  for (i = 0U; i < hpcd->Init.dev_endpoints; i++)
 8002eae:	f000 81c4 	beq.w	800323a <HAL_PCD_Init+0x402>
    hpcd->IN_ep[i].num = i;
 8002eb2:	f240 1301 	movw	r3, #257	@ 0x101
 8002eb6:	8723      	strh	r3, [r4, #56]	@ 0x38
  for (i = 0U; i < hpcd->Init.dev_endpoints; i++)
 8002eb8:	2a02      	cmp	r2, #2
    hpcd->IN_ep[i].tx_fifo_num = i;
 8002eba:	f04f 0301 	mov.w	r3, #1
    hpcd->IN_ep[i].xfer_buff = 0U;
 8002ebe:	e9c4 0010 	strd	r0, r0, [r4, #64]	@ 0x40
    hpcd->IN_ep[i].tx_fifo_num = i;
 8002ec2:	f8a4 3052 	strh.w	r3, [r4, #82]	@ 0x52
    hpcd->IN_ep[i].type = EP_TYPE_CTRL;
 8002ec6:	f884 003c 	strb.w	r0, [r4, #60]	@ 0x3c
    hpcd->IN_ep[i].xfer_len = 0U;
 8002eca:	64a0      	str	r0, [r4, #72]	@ 0x48
  for (i = 0U; i < hpcd->Init.dev_endpoints; i++)
 8002ecc:	f000 80e2 	beq.w	8003094 <HAL_PCD_Init+0x25c>
    hpcd->IN_ep[i].num = i;
 8002ed0:	f44f 7381 	mov.w	r3, #258	@ 0x102
 8002ed4:	f8a4 305c 	strh.w	r3, [r4, #92]	@ 0x5c
  for (i = 0U; i < hpcd->Init.dev_endpoints; i++)
 8002ed8:	2a03      	cmp	r2, #3
    hpcd->IN_ep[i].tx_fifo_num = i;
 8002eda:	f04f 0302 	mov.w	r3, #2
    hpcd->IN_ep[i].xfer_buff = 0U;
 8002ede:	e9c4 0019 	strd	r0, r0, [r4, #100]	@ 0x64
    hpcd->IN_ep[i].tx_fifo_num = i;
 8002ee2:	f8a4 3076 	strh.w	r3, [r4, #118]	@ 0x76
    hpcd->IN_ep[i].type = EP_TYPE_CTRL;
 8002ee6:	f884 0060 	strb.w	r0, [r4, #96]	@ 0x60
    hpcd->IN_ep[i].xfer_len = 0U;
 8002eea:	66e0      	str	r0, [r4, #108]	@ 0x6c
  for (i = 0U; i < hpcd->Init.dev_endpoints; i++)
 8002eec:	f000 80d2 	beq.w	8003094 <HAL_PCD_Init+0x25c>
    hpcd->IN_ep[i].num = i;
 8002ef0:	f240 1303 	movw	r3, #259	@ 0x103
 8002ef4:	f8a4 3080 	strh.w	r3, [r4, #128]	@ 0x80
  for (i = 0U; i < hpcd->Init.dev_endpoints; i++)
 8002ef8:	2a04      	cmp	r2, #4
    hpcd->IN_ep[i].tx_fifo_num = i;
 8002efa:	f04f 0303 	mov.w	r3, #3
    hpcd->IN_ep[i].xfer_buff = 0U;
 8002efe:	e9c4 0022 	strd	r0, r0, [r4, #136]	@ 0x88
    hpcd->IN_ep[i].tx_fifo_num = i;
 8002f02:	f8a4 309a 	strh.w	r3, [r4, #154]	@ 0x9a
    hpcd->IN_ep[i].type = EP_TYPE_CTRL;
 8002f06:	f884 0084 	strb.w	r0, [r4, #132]	@ 0x84
    hpcd->IN_ep[i].xfer_len = 0U;
 8002f0a:	f8c4 0090 	str.w	r0, [r4, #144]	@ 0x90
  for (i = 0U; i < hpcd->Init.dev_endpoints; i++)
 8002f0e:	f000 80c1 	beq.w	8003094 <HAL_PCD_Init+0x25c>
    hpcd->IN_ep[i].num = i;
 8002f12:	f44f 7382 	mov.w	r3, #260	@ 0x104
 8002f16:	f8a4 30a4 	strh.w	r3, [r4, #164]	@ 0xa4
  for (i = 0U; i < hpcd->Init.dev_endpoints; i++)
 8002f1a:	2a05      	cmp	r2, #5
    hpcd->IN_ep[i].tx_fifo_num = i;
 8002f1c:	f04f 0304 	mov.w	r3, #4
    hpcd->IN_ep[i].xfer_buff = 0U;
 8002f20:	e9c4 002b 	strd	r0, r0, [r4, #172]	@ 0xac
    hpcd->IN_ep[i].tx_fifo_num = i;
 8002f24:	f8a4 30be 	strh.w	r3, [r4, #190]	@ 0xbe
    hpcd->IN_ep[i].type = EP_TYPE_CTRL;
 8002f28:	f884 00a8 	strb.w	r0, [r4, #168]	@ 0xa8
    hpcd->IN_ep[i].xfer_len = 0U;
 8002f2c:	f8c4 00b4 	str.w	r0, [r4, #180]	@ 0xb4
  for (i = 0U; i < hpcd->Init.dev_endpoints; i++)
 8002f30:	f000 80b0 	beq.w	8003094 <HAL_PCD_Init+0x25c>
    hpcd->IN_ep[i].num = i;
 8002f34:	f240 1305 	movw	r3, #261	@ 0x105
 8002f38:	f8a4 30c8 	strh.w	r3, [r4, #200]	@ 0xc8
  for (i = 0U; i < hpcd->Init.dev_endpoints; i++)
 8002f3c:	2a06      	cmp	r2, #6
    hpcd->IN_ep[i].tx_fifo_num = i;
 8002f3e:	f04f 0305 	mov.w	r3, #5
    hpcd->IN_ep[i].xfer_buff = 0U;
 8002f42:	e9c4 0034 	strd	r0, r0, [r4, #208]	@ 0xd0
    hpcd->IN_ep[i].tx_fifo_num = i;
 8002f46:	f8a4 30e2 	strh.w	r3, [r4, #226]	@ 0xe2
    hpcd->IN_ep[i].type = EP_TYPE_CTRL;
 8002f4a:	f884 00cc 	strb.w	r0, [r4, #204]	@ 0xcc
    hpcd->IN_ep[i].xfer_len = 0U;
 8002f4e:	f8c4 00d8 	str.w	r0, [r4, #216]	@ 0xd8
  for (i = 0U; i < hpcd->Init.dev_endpoints; i++)
 8002f52:	f000 809f 	beq.w	8003094 <HAL_PCD_Init+0x25c>
    hpcd->IN_ep[i].num = i;
 8002f56:	f44f 7383 	mov.w	r3, #262	@ 0x106
 8002f5a:	f8a4 30ec 	strh.w	r3, [r4, #236]	@ 0xec
  for (i = 0U; i < hpcd->Init.dev_endpoints; i++)
 8002f5e:	2a07      	cmp	r2, #7
    hpcd->IN_ep[i].tx_fifo_num = i;
 8002f60:	f04f 0306 	mov.w	r3, #6
    hpcd->IN_ep[i].xfer_buff = 0U;
 8002f64:	e9c4 003d 	strd	r0, r0, [r4, #244]	@ 0xf4
    hpcd->IN_ep[i].tx_fifo_num = i;
 8002f68:	f8a4 3106 	strh.w	r3, [r4, #262]	@ 0x106
    hpcd->IN_ep[i].type = EP_TYPE_CTRL;
 8002f6c:	f884 00f0 	strb.w	r0, [r4, #240]	@ 0xf0
    hpcd->IN_ep[i].xfer_len = 0U;
 8002f70:	f8c4 00fc 	str.w	r0, [r4, #252]	@ 0xfc
  for (i = 0U; i < hpcd->Init.dev_endpoints; i++)
 8002f74:	f000 808e 	beq.w	8003094 <HAL_PCD_Init+0x25c>
    hpcd->IN_ep[i].num = i;
 8002f78:	f240 1107 	movw	r1, #263	@ 0x107
    hpcd->IN_ep[i].type = EP_TYPE_CTRL;
 8002f7c:	2300      	movs	r3, #0
    hpcd->IN_ep[i].num = i;
 8002f7e:	f8a4 1110 	strh.w	r1, [r4, #272]	@ 0x110
  for (i = 0U; i < hpcd->Init.dev_endpoints; i++)
 8002f82:	2a08      	cmp	r2, #8
    hpcd->IN_ep[i].tx_fifo_num = i;
 8002f84:	f04f 0107 	mov.w	r1, #7
    hpcd->IN_ep[i].xfer_buff = 0U;
 8002f88:	e9c4 3346 	strd	r3, r3, [r4, #280]	@ 0x118
    hpcd->IN_ep[i].tx_fifo_num = i;
 8002f8c:	f8a4 112a 	strh.w	r1, [r4, #298]	@ 0x12a
    hpcd->IN_ep[i].type = EP_TYPE_CTRL;
 8002f90:	f884 3114 	strb.w	r3, [r4, #276]	@ 0x114
    hpcd->IN_ep[i].xfer_len = 0U;
 8002f94:	f8c4 3120 	str.w	r3, [r4, #288]	@ 0x120
  for (i = 0U; i < hpcd->Init.dev_endpoints; i++)
 8002f98:	d07c      	beq.n	8003094 <HAL_PCD_Init+0x25c>
    hpcd->IN_ep[i].num = i;
 8002f9a:	f44f 7184 	mov.w	r1, #264	@ 0x108
 8002f9e:	f8a4 1134 	strh.w	r1, [r4, #308]	@ 0x134
  for (i = 0U; i < hpcd->Init.dev_endpoints; i++)
 8002fa2:	2a09      	cmp	r2, #9
    hpcd->IN_ep[i].tx_fifo_num = i;
 8002fa4:	f04f 0108 	mov.w	r1, #8
    hpcd->IN_ep[i].xfer_buff = 0U;
 8002fa8:	e9c4 334f 	strd	r3, r3, [r4, #316]	@ 0x13c
    hpcd->IN_ep[i].tx_fifo_num = i;
 8002fac:	f8a4 114e 	strh.w	r1, [r4, #334]	@ 0x14e
    hpcd->IN_ep[i].type = EP_TYPE_CTRL;
 8002fb0:	f884 3138 	strb.w	r3, [r4, #312]	@ 0x138
    hpcd->IN_ep[i].xfer_len = 0U;
 8002fb4:	f8c4 3144 	str.w	r3, [r4, #324]	@ 0x144
  for (i = 0U; i < hpcd->Init.dev_endpoints; i++)
 8002fb8:	d06c      	beq.n	8003094 <HAL_PCD_Init+0x25c>
    hpcd->IN_ep[i].num = i;
 8002fba:	f240 1109 	movw	r1, #265	@ 0x109
 8002fbe:	f8a4 1158 	strh.w	r1, [r4, #344]	@ 0x158
  for (i = 0U; i < hpcd->Init.dev_endpoints; i++)
 8002fc2:	2a0a      	cmp	r2, #10
    hpcd->IN_ep[i].tx_fifo_num = i;
 8002fc4:	f04f 0109 	mov.w	r1, #9
    hpcd->IN_ep[i].xfer_buff = 0U;
 8002fc8:	e9c4 3358 	strd	r3, r3, [r4, #352]	@ 0x160
    hpcd->IN_ep[i].tx_fifo_num = i;
 8002fcc:	f8a4 1172 	strh.w	r1, [r4, #370]	@ 0x172
    hpcd->IN_ep[i].type = EP_TYPE_CTRL;
 8002fd0:	f884 315c 	strb.w	r3, [r4, #348]	@ 0x15c
    hpcd->IN_ep[i].xfer_len = 0U;
 8002fd4:	f8c4 3168 	str.w	r3, [r4, #360]	@ 0x168
  for (i = 0U; i < hpcd->Init.dev_endpoints; i++)
 8002fd8:	d05c      	beq.n	8003094 <HAL_PCD_Init+0x25c>
    hpcd->IN_ep[i].num = i;
 8002fda:	f44f 7185 	mov.w	r1, #266	@ 0x10a
 8002fde:	f8a4 117c 	strh.w	r1, [r4, #380]	@ 0x17c
  for (i = 0U; i < hpcd->Init.dev_endpoints; i++)
 8002fe2:	2a0b      	cmp	r2, #11
    hpcd->IN_ep[i].tx_fifo_num = i;
 8002fe4:	f04f 010a 	mov.w	r1, #10
    hpcd->IN_ep[i].xfer_buff = 0U;
 8002fe8:	e9c4 3361 	strd	r3, r3, [r4, #388]	@ 0x184
    hpcd->IN_ep[i].tx_fifo_num = i;
 8002fec:	f8a4 1196 	strh.w	r1, [r4, #406]	@ 0x196
    hpcd->IN_ep[i].type = EP_TYPE_CTRL;
 8002ff0:	f884 3180 	strb.w	r3, [r4, #384]	@ 0x180
    hpcd->IN_ep[i].xfer_len = 0U;
 8002ff4:	f8c4 318c 	str.w	r3, [r4, #396]	@ 0x18c
  for (i = 0U; i < hpcd->Init.dev_endpoints; i++)
 8002ff8:	d04c      	beq.n	8003094 <HAL_PCD_Init+0x25c>
    hpcd->IN_ep[i].num = i;
 8002ffa:	f240 110b 	movw	r1, #267	@ 0x10b
 8002ffe:	f8a4 11a0 	strh.w	r1, [r4, #416]	@ 0x1a0
  for (i = 0U; i < hpcd->Init.dev_endpoints; i++)
 8003002:	2a0c      	cmp	r2, #12
    hpcd->IN_ep[i].tx_fifo_num = i;
 8003004:	f04f 010b 	mov.w	r1, #11
    hpcd->IN_ep[i].xfer_buff = 0U;
 8003008:	e9c4 336a 	strd	r3, r3, [r4, #424]	@ 0x1a8
    hpcd->IN_ep[i].tx_fifo_num = i;
 800300c:	f8a4 11ba 	strh.w	r1, [r4, #442]	@ 0x1ba
    hpcd->IN_ep[i].type = EP_TYPE_CTRL;
 8003010:	f884 31a4 	strb.w	r3, [r4, #420]	@ 0x1a4
    hpcd->IN_ep[i].xfer_len = 0U;
 8003014:	f8c4 31b0 	str.w	r3, [r4, #432]	@ 0x1b0
  for (i = 0U; i < hpcd->Init.dev_endpoints; i++)
 8003018:	d03c      	beq.n	8003094 <HAL_PCD_Init+0x25c>
    hpcd->IN_ep[i].num = i;
 800301a:	f44f 7186 	mov.w	r1, #268	@ 0x10c
 800301e:	f8a4 11c4 	strh.w	r1, [r4, #452]	@ 0x1c4
  for (i = 0U; i < hpcd->Init.dev_endpoints; i++)
 8003022:	2a0d      	cmp	r2, #13
    hpcd->IN_ep[i].tx_fifo_num = i;
 8003024:	f04f 010c 	mov.w	r1, #12
    hpcd->IN_ep[i].xfer_buff = 0U;
 8003028:	e9c4 3373 	strd	r3, r3, [r4, #460]	@ 0x1cc
    hpcd->IN_ep[i].tx_fifo_num = i;
 800302c:	f8a4 11de 	strh.w	r1, [r4, #478]	@ 0x1de
    hpcd->IN_ep[i].type = EP_TYPE_CTRL;
 8003030:	f884 31c8 	strb.w	r3, [r4, #456]	@ 0x1c8
    hpcd->IN_ep[i].xfer_len = 0U;
 8003034:	f8c4 31d4 	str.w	r3, [r4, #468]	@ 0x1d4
  for (i = 0U; i < hpcd->Init.dev_endpoints; i++)
 8003038:	d02c      	beq.n	8003094 <HAL_PCD_Init+0x25c>
    hpcd->IN_ep[i].num = i;
 800303a:	f240 110d 	movw	r1, #269	@ 0x10d
 800303e:	f8a4 11e8 	strh.w	r1, [r4, #488]	@ 0x1e8
  for (i = 0U; i < hpcd->Init.dev_endpoints; i++)
 8003042:	2a0e      	cmp	r2, #14
    hpcd->IN_ep[i].tx_fifo_num = i;
 8003044:	f04f 010d 	mov.w	r1, #13
    hpcd->IN_ep[i].xfer_buff = 0U;
 8003048:	e9c4 337c 	strd	r3, r3, [r4, #496]	@ 0x1f0
    hpcd->IN_ep[i].tx_fifo_num = i;
 800304c:	f8a4 1202 	strh.w	r1, [r4, #514]	@ 0x202
    hpcd->IN_ep[i].type = EP_TYPE_CTRL;
 8003050:	f884 31ec 	strb.w	r3, [r4, #492]	@ 0x1ec
    hpcd->IN_ep[i].xfer_len = 0U;
 8003054:	f8c4 31f8 	str.w	r3, [r4, #504]	@ 0x1f8
  for (i = 0U; i < hpcd->Init.dev_endpoints; i++)
 8003058:	d01c      	beq.n	8003094 <HAL_PCD_Init+0x25c>
    hpcd->IN_ep[i].num = i;
 800305a:	f44f 7187 	mov.w	r1, #270	@ 0x10e
 800305e:	f8a4 120c 	strh.w	r1, [r4, #524]	@ 0x20c
  for (i = 0U; i < hpcd->Init.dev_endpoints; i++)
 8003062:	2a0f      	cmp	r2, #15
    hpcd->IN_ep[i].tx_fifo_num = i;
 8003064:	f04f 010e 	mov.w	r1, #14
    hpcd->IN_ep[i].xfer_buff = 0U;
 8003068:	e9c4 3385 	strd	r3, r3, [r4, #532]	@ 0x214
    hpcd->IN_ep[i].tx_fifo_num = i;
 800306c:	f8a4 1226 	strh.w	r1, [r4, #550]	@ 0x226
    hpcd->IN_ep[i].type = EP_TYPE_CTRL;
 8003070:	f884 3210 	strb.w	r3, [r4, #528]	@ 0x210
    hpcd->IN_ep[i].xfer_len = 0U;
 8003074:	f8c4 321c 	str.w	r3, [r4, #540]	@ 0x21c
  for (i = 0U; i < hpcd->Init.dev_endpoints; i++)
 8003078:	d00c      	beq.n	8003094 <HAL_PCD_Init+0x25c>
    hpcd->IN_ep[i].num = i;
 800307a:	f240 110f 	movw	r1, #271	@ 0x10f
    hpcd->IN_ep[i].xfer_buff = 0U;
 800307e:	e9c4 338e 	strd	r3, r3, [r4, #568]	@ 0x238
    hpcd->IN_ep[i].num = i;
 8003082:	f8a4 1230 	strh.w	r1, [r4, #560]	@ 0x230
    hpcd->IN_ep[i].tx_fifo_num = i;
 8003086:	210f      	movs	r1, #15
 8003088:	f8a4 124a 	strh.w	r1, [r4, #586]	@ 0x24a
    hpcd->IN_ep[i].type = EP_TYPE_CTRL;
 800308c:	f884 3234 	strb.w	r3, [r4, #564]	@ 0x234
    hpcd->IN_ep[i].xfer_len = 0U;
 8003090:	f8c4 3240 	str.w	r3, [r4, #576]	@ 0x240
    hpcd->OUT_ep[i].num = i;
 8003094:	2300      	movs	r3, #0
 8003096:	2101      	movs	r1, #1
  for (i = 0U; i < hpcd->Init.dev_endpoints; i++)
 8003098:	2a02      	cmp	r2, #2
    hpcd->OUT_ep[i].xfer_buff = 0U;
 800309a:	e9c4 3397 	strd	r3, r3, [r4, #604]	@ 0x25c
 800309e:	e9c4 33a0 	strd	r3, r3, [r4, #640]	@ 0x280
    hpcd->OUT_ep[i].num = i;
 80030a2:	f8a4 3254 	strh.w	r3, [r4, #596]	@ 0x254
    hpcd->OUT_ep[i].type = EP_TYPE_CTRL;
 80030a6:	f884 3258 	strb.w	r3, [r4, #600]	@ 0x258
    hpcd->OUT_ep[i].xfer_len = 0U;
 80030aa:	f8c4 3264 	str.w	r3, [r4, #612]	@ 0x264
    hpcd->OUT_ep[i].num = i;
 80030ae:	f8a4 1278 	strh.w	r1, [r4, #632]	@ 0x278
    hpcd->OUT_ep[i].type = EP_TYPE_CTRL;
 80030b2:	f884 327c 	strb.w	r3, [r4, #636]	@ 0x27c
    hpcd->OUT_ep[i].xfer_len = 0U;
 80030b6:	f8c4 3288 	str.w	r3, [r4, #648]	@ 0x288
  for (i = 0U; i < hpcd->Init.dev_endpoints; i++)
 80030ba:	f000 80a2 	beq.w	8003202 <HAL_PCD_Init+0x3ca>
    hpcd->OUT_ep[i].num = i;
 80030be:	2102      	movs	r1, #2
  for (i = 0U; i < hpcd->Init.dev_endpoints; i++)
 80030c0:	2a03      	cmp	r2, #3
    hpcd->OUT_ep[i].xfer_buff = 0U;
 80030c2:	e9c4 33a9 	strd	r3, r3, [r4, #676]	@ 0x2a4
    hpcd->OUT_ep[i].num = i;
 80030c6:	f8a4 129c 	strh.w	r1, [r4, #668]	@ 0x29c
    hpcd->OUT_ep[i].type = EP_TYPE_CTRL;
 80030ca:	f884 32a0 	strb.w	r3, [r4, #672]	@ 0x2a0
    hpcd->OUT_ep[i].xfer_len = 0U;
 80030ce:	f8c4 32ac 	str.w	r3, [r4, #684]	@ 0x2ac
  for (i = 0U; i < hpcd->Init.dev_endpoints; i++)
 80030d2:	f000 8096 	beq.w	8003202 <HAL_PCD_Init+0x3ca>
    hpcd->OUT_ep[i].num = i;
 80030d6:	2103      	movs	r1, #3
  for (i = 0U; i < hpcd->Init.dev_endpoints; i++)
 80030d8:	2a04      	cmp	r2, #4
    hpcd->OUT_ep[i].xfer_buff = 0U;
 80030da:	e9c4 33b2 	strd	r3, r3, [r4, #712]	@ 0x2c8
    hpcd->OUT_ep[i].num = i;
 80030de:	f8a4 12c0 	strh.w	r1, [r4, #704]	@ 0x2c0
    hpcd->OUT_ep[i].type = EP_TYPE_CTRL;
 80030e2:	f884 32c4 	strb.w	r3, [r4, #708]	@ 0x2c4
    hpcd->OUT_ep[i].xfer_len = 0U;
 80030e6:	f8c4 32d0 	str.w	r3, [r4, #720]	@ 0x2d0
  for (i = 0U; i < hpcd->Init.dev_endpoints; i++)
 80030ea:	f000 808a 	beq.w	8003202 <HAL_PCD_Init+0x3ca>
    hpcd->OUT_ep[i].num = i;
 80030ee:	2104      	movs	r1, #4
  for (i = 0U; i < hpcd->Init.dev_endpoints; i++)
 80030f0:	2a05      	cmp	r2, #5
    hpcd->OUT_ep[i].xfer_buff = 0U;
 80030f2:	e9c4 33bb 	strd	r3, r3, [r4, #748]	@ 0x2ec
    hpcd->OUT_ep[i].num = i;
 80030f6:	f8a4 12e4 	strh.w	r1, [r4, #740]	@ 0x2e4
    hpcd->OUT_ep[i].type = EP_TYPE_CTRL;
 80030fa:	f884 32e8 	strb.w	r3, [r4, #744]	@ 0x2e8
    hpcd->OUT_ep[i].xfer_len = 0U;
 80030fe:	f8c4 32f4 	str.w	r3, [r4, #756]	@ 0x2f4
  for (i = 0U; i < hpcd->Init.dev_endpoints; i++)
 8003102:	d07e      	beq.n	8003202 <HAL_PCD_Init+0x3ca>
    hpcd->OUT_ep[i].num = i;
 8003104:	2105      	movs	r1, #5
  for (i = 0U; i < hpcd->Init.dev_endpoints; i++)
 8003106:	2a06      	cmp	r2, #6
    hpcd->OUT_ep[i].xfer_buff = 0U;
 8003108:	e9c4 33c4 	strd	r3, r3, [r4, #784]	@ 0x310
    hpcd->OUT_ep[i].num = i;
 800310c:	f8a4 1308 	strh.w	r1, [r4, #776]	@ 0x308
    hpcd->OUT_ep[i].type = EP_TYPE_CTRL;
 8003110:	f884 330c 	strb.w	r3, [r4, #780]	@ 0x30c
    hpcd->OUT_ep[i].xfer_len = 0U;
 8003114:	f8c4 3318 	str.w	r3, [r4, #792]	@ 0x318
  for (i = 0U; i < hpcd->Init.dev_endpoints; i++)
 8003118:	d073      	beq.n	8003202 <HAL_PCD_Init+0x3ca>
    hpcd->OUT_ep[i].num = i;
 800311a:	2106      	movs	r1, #6
  for (i = 0U; i < hpcd->Init.dev_endpoints; i++)
 800311c:	2a07      	cmp	r2, #7
    hpcd->OUT_ep[i].xfer_buff = 0U;
 800311e:	e9c4 33cd 	strd	r3, r3, [r4, #820]	@ 0x334
    hpcd->OUT_ep[i].num = i;
 8003122:	f8a4 132c 	strh.w	r1, [r4, #812]	@ 0x32c
    hpcd->OUT_ep[i].type = EP_TYPE_CTRL;
 8003126:	f884 3330 	strb.w	r3, [r4, #816]	@ 0x330
    hpcd->OUT_ep[i].xfer_len = 0U;
 800312a:	f8c4 333c 	str.w	r3, [r4, #828]	@ 0x33c
  for (i = 0U; i < hpcd->Init.dev_endpoints; i++)
 800312e:	d068      	beq.n	8003202 <HAL_PCD_Init+0x3ca>
    hpcd->OUT_ep[i].num = i;
 8003130:	2107      	movs	r1, #7
  for (i = 0U; i < hpcd->Init.dev_endpoints; i++)
 8003132:	2a08      	cmp	r2, #8
    hpcd->OUT_ep[i].xfer_buff = 0U;
 8003134:	e9c4 33d6 	strd	r3, r3, [r4, #856]	@ 0x358
    hpcd->OUT_ep[i].num = i;
 8003138:	f8a4 1350 	strh.w	r1, [r4, #848]	@ 0x350
    hpcd->OUT_ep[i].type = EP_TYPE_CTRL;
 800313c:	f884 3354 	strb.w	r3, [r4, #852]	@ 0x354
    hpcd->OUT_ep[i].xfer_len = 0U;
 8003140:	f8c4 3360 	str.w	r3, [r4, #864]	@ 0x360
  for (i = 0U; i < hpcd->Init.dev_endpoints; i++)
 8003144:	d05d      	beq.n	8003202 <HAL_PCD_Init+0x3ca>
    hpcd->OUT_ep[i].num = i;
 8003146:	2108      	movs	r1, #8
  for (i = 0U; i < hpcd->Init.dev_endpoints; i++)
 8003148:	2a09      	cmp	r2, #9
    hpcd->OUT_ep[i].xfer_buff = 0U;
 800314a:	e9c4 33df 	strd	r3, r3, [r4, #892]	@ 0x37c
    hpcd->OUT_ep[i].num = i;
 800314e:	f8a4 1374 	strh.w	r1, [r4, #884]	@ 0x374
    hpcd->OUT_ep[i].type = EP_TYPE_CTRL;
 8003152:	f884 3378 	strb.w	r3, [r4, #888]	@ 0x378
    hpcd->OUT_ep[i].xfer_len = 0U;
 8003156:	f8c4 3384 	str.w	r3, [r4, #900]	@ 0x384
  for (i = 0U; i < hpcd->Init.dev_endpoints; i++)
 800315a:	d052      	beq.n	8003202 <HAL_PCD_Init+0x3ca>
    hpcd->OUT_ep[i].num = i;
 800315c:	2109      	movs	r1, #9
  for (i = 0U; i < hpcd->Init.dev_endpoints; i++)
 800315e:	2a0a      	cmp	r2, #10
    hpcd->OUT_ep[i].xfer_buff = 0U;
 8003160:	e9c4 33e8 	strd	r3, r3, [r4, #928]	@ 0x3a0
    hpcd->OUT_ep[i].num = i;
 8003164:	f8a4 1398 	strh.w	r1, [r4, #920]	@ 0x398
    hpcd->OUT_ep[i].type = EP_TYPE_CTRL;
 8003168:	f884 339c 	strb.w	r3, [r4, #924]	@ 0x39c
    hpcd->OUT_ep[i].xfer_len = 0U;
 800316c:	f8c4 33a8 	str.w	r3, [r4, #936]	@ 0x3a8
  for (i = 0U; i < hpcd->Init.dev_endpoints; i++)
 8003170:	d047      	beq.n	8003202 <HAL_PCD_Init+0x3ca>
    hpcd->OUT_ep[i].num = i;
 8003172:	210a      	movs	r1, #10
  for (i = 0U; i < hpcd->Init.dev_endpoints; i++)
 8003174:	2a0b      	cmp	r2, #11
    hpcd->OUT_ep[i].xfer_buff = 0U;
 8003176:	e9c4 33f1 	strd	r3, r3, [r4, #964]	@ 0x3c4
    hpcd->OUT_ep[i].num = i;
 800317a:	f8a4 13bc 	strh.w	r1, [r4, #956]	@ 0x3bc
    hpcd->OUT_ep[i].type = EP_TYPE_CTRL;
 800317e:	f884 33c0 	strb.w	r3, [r4, #960]	@ 0x3c0
    hpcd->OUT_ep[i].xfer_len = 0U;
 8003182:	f8c4 33cc 	str.w	r3, [r4, #972]	@ 0x3cc
  for (i = 0U; i < hpcd->Init.dev_endpoints; i++)
 8003186:	d03c      	beq.n	8003202 <HAL_PCD_Init+0x3ca>
    hpcd->OUT_ep[i].num = i;
 8003188:	210b      	movs	r1, #11
  for (i = 0U; i < hpcd->Init.dev_endpoints; i++)
 800318a:	2a0c      	cmp	r2, #12
    hpcd->OUT_ep[i].xfer_buff = 0U;
 800318c:	e9c4 33fa 	strd	r3, r3, [r4, #1000]	@ 0x3e8
    hpcd->OUT_ep[i].num = i;
 8003190:	f8a4 13e0 	strh.w	r1, [r4, #992]	@ 0x3e0
    hpcd->OUT_ep[i].type = EP_TYPE_CTRL;
 8003194:	f884 33e4 	strb.w	r3, [r4, #996]	@ 0x3e4
    hpcd->OUT_ep[i].xfer_len = 0U;
 8003198:	f8c4 33f0 	str.w	r3, [r4, #1008]	@ 0x3f0
  for (i = 0U; i < hpcd->Init.dev_endpoints; i++)
 800319c:	d031      	beq.n	8003202 <HAL_PCD_Init+0x3ca>
    hpcd->OUT_ep[i].num = i;
 800319e:	210c      	movs	r1, #12
  for (i = 0U; i < hpcd->Init.dev_endpoints; i++)
 80031a0:	2a0d      	cmp	r2, #13
    hpcd->OUT_ep[i].num = i;
 80031a2:	f8a4 1404 	strh.w	r1, [r4, #1028]	@ 0x404
    hpcd->OUT_ep[i].type = EP_TYPE_CTRL;
 80031a6:	f884 3408 	strb.w	r3, [r4, #1032]	@ 0x408
    hpcd->OUT_ep[i].maxpacket = 0U;
 80031aa:	f8c4 340c 	str.w	r3, [r4, #1036]	@ 0x40c
    hpcd->OUT_ep[i].xfer_buff = 0U;
 80031ae:	f8c4 3410 	str.w	r3, [r4, #1040]	@ 0x410
    hpcd->OUT_ep[i].xfer_len = 0U;
 80031b2:	f8c4 3414 	str.w	r3, [r4, #1044]	@ 0x414
  for (i = 0U; i < hpcd->Init.dev_endpoints; i++)
 80031b6:	d024      	beq.n	8003202 <HAL_PCD_Init+0x3ca>
    hpcd->OUT_ep[i].num = i;
 80031b8:	210d      	movs	r1, #13
  for (i = 0U; i < hpcd->Init.dev_endpoints; i++)
 80031ba:	2a0e      	cmp	r2, #14
    hpcd->OUT_ep[i].num = i;
 80031bc:	f8a4 1428 	strh.w	r1, [r4, #1064]	@ 0x428
    hpcd->OUT_ep[i].type = EP_TYPE_CTRL;
 80031c0:	f884 342c 	strb.w	r3, [r4, #1068]	@ 0x42c
    hpcd->OUT_ep[i].maxpacket = 0U;
 80031c4:	f8c4 3430 	str.w	r3, [r4, #1072]	@ 0x430
    hpcd->OUT_ep[i].xfer_buff = 0U;
 80031c8:	f8c4 3434 	str.w	r3, [r4, #1076]	@ 0x434
    hpcd->OUT_ep[i].xfer_len = 0U;
 80031cc:	f8c4 3438 	str.w	r3, [r4, #1080]	@ 0x438
  for (i = 0U; i < hpcd->Init.dev_endpoints; i++)
 80031d0:	d017      	beq.n	8003202 <HAL_PCD_Init+0x3ca>
    hpcd->OUT_ep[i].num = i;
 80031d2:	210e      	movs	r1, #14
  for (i = 0U; i < hpcd->Init.dev_endpoints; i++)
 80031d4:	2a0f      	cmp	r2, #15
    hpcd->OUT_ep[i].num = i;
 80031d6:	f8a4 144c 	strh.w	r1, [r4, #1100]	@ 0x44c
    hpcd->OUT_ep[i].type = EP_TYPE_CTRL;
 80031da:	f884 3450 	strb.w	r3, [r4, #1104]	@ 0x450
    hpcd->OUT_ep[i].maxpacket = 0U;
 80031de:	f8c4 3454 	str.w	r3, [r4, #1108]	@ 0x454
    hpcd->OUT_ep[i].xfer_buff = 0U;
 80031e2:	f8c4 3458 	str.w	r3, [r4, #1112]	@ 0x458
    hpcd->OUT_ep[i].xfer_len = 0U;
 80031e6:	f8c4 345c 	str.w	r3, [r4, #1116]	@ 0x45c
  for (i = 0U; i < hpcd->Init.dev_endpoints; i++)
 80031ea:	d00a      	beq.n	8003202 <HAL_PCD_Init+0x3ca>
    hpcd->OUT_ep[i].num = i;
 80031ec:	220f      	movs	r2, #15
 80031ee:	f8a4 2470 	strh.w	r2, [r4, #1136]	@ 0x470
    hpcd->OUT_ep[i].type = EP_TYPE_CTRL;
 80031f2:	f884 3474 	strb.w	r3, [r4, #1140]	@ 0x474
    hpcd->OUT_ep[i].maxpacket = 0U;
 80031f6:	f8c4 3478 	str.w	r3, [r4, #1144]	@ 0x478
    hpcd->OUT_ep[i].xfer_buff = 0U;
 80031fa:	f8c4 347c 	str.w	r3, [r4, #1148]	@ 0x47c
    hpcd->OUT_ep[i].xfer_len = 0U;
 80031fe:	f8c4 3480 	str.w	r3, [r4, #1152]	@ 0x480
  if (USB_DevInit(hpcd->Instance, hpcd->Init) != HAL_OK)
 8003202:	7c20      	ldrb	r0, [r4, #16]
 8003204:	e895 000e 	ldmia.w	r5, {r1, r2, r3}
 8003208:	f88d 0000 	strb.w	r0, [sp]
 800320c:	6820      	ldr	r0, [r4, #0]
 800320e:	f001 fc6d 	bl	8004aec <USB_DevInit>
 8003212:	4605      	mov	r5, r0
 8003214:	2800      	cmp	r0, #0
 8003216:	f47f ae31 	bne.w	8002e7c <HAL_PCD_Init+0x44>
  hpcd->State = HAL_PCD_STATE_READY;
 800321a:	2301      	movs	r3, #1
  hpcd->USB_Address = 0U;
 800321c:	7460      	strb	r0, [r4, #17]
  (void)USB_DevDisconnect(hpcd->Instance);
 800321e:	6820      	ldr	r0, [r4, #0]
  hpcd->State = HAL_PCD_STATE_READY;
 8003220:	f884 3495 	strb.w	r3, [r4, #1173]	@ 0x495
  (void)USB_DevDisconnect(hpcd->Instance);
 8003224:	f002 f882 	bl	800532c <USB_DevDisconnect>
}
 8003228:	4628      	mov	r0, r5
 800322a:	b003      	add	sp, #12
 800322c:	bd30      	pop	{r4, r5, pc}
    hpcd->Lock = HAL_UNLOCKED;
 800322e:	f880 2494 	strb.w	r2, [r0, #1172]	@ 0x494
    HAL_PCD_MspInit(hpcd);
 8003232:	f003 f94f 	bl	80064d4 <HAL_PCD_MspInit>
  __HAL_PCD_DISABLE(hpcd);
 8003236:	6820      	ldr	r0, [r4, #0]
 8003238:	e60b      	b.n	8002e52 <HAL_PCD_Init+0x1a>
    hpcd->OUT_ep[i].xfer_buff = 0U;
 800323a:	e9c4 0097 	strd	r0, r0, [r4, #604]	@ 0x25c
    hpcd->OUT_ep[i].num = i;
 800323e:	f8a4 0254 	strh.w	r0, [r4, #596]	@ 0x254
    hpcd->OUT_ep[i].type = EP_TYPE_CTRL;
 8003242:	f884 0258 	strb.w	r0, [r4, #600]	@ 0x258
    hpcd->OUT_ep[i].xfer_len = 0U;
 8003246:	f8c4 0264 	str.w	r0, [r4, #612]	@ 0x264
  for (i = 0U; i < hpcd->Init.dev_endpoints; i++)
 800324a:	e7da      	b.n	8003202 <HAL_PCD_Init+0x3ca>

0800324c <HAL_PCD_Start>:
  * @brief  Start the USB device
  * @param  hpcd PCD handle
  * @retval HAL status
  */
HAL_StatusTypeDef HAL_PCD_Start(PCD_HandleTypeDef *hpcd)
{
 800324c:	b510      	push	{r4, lr}
  USB_OTG_GlobalTypeDef *USBx = hpcd->Instance;

  __HAL_LOCK(hpcd);
 800324e:	f890 3494 	ldrb.w	r3, [r0, #1172]	@ 0x494
 8003252:	2b01      	cmp	r3, #1
{
 8003254:	4604      	mov	r4, r0
  USB_OTG_GlobalTypeDef *USBx = hpcd->Instance;
 8003256:	6800      	ldr	r0, [r0, #0]
  __HAL_LOCK(hpcd);
 8003258:	d017      	beq.n	800328a <HAL_PCD_Start+0x3e>
 800325a:	2301      	movs	r3, #1
 800325c:	f884 3494 	strb.w	r3, [r4, #1172]	@ 0x494

  if (((USBx->GUSBCFG & USB_OTG_GUSBCFG_PHYSEL) != 0U) &&
 8003260:	68c3      	ldr	r3, [r0, #12]
 8003262:	065b      	lsls	r3, r3, #25
 8003264:	d502      	bpl.n	800326c <HAL_PCD_Start+0x20>
 8003266:	7b63      	ldrb	r3, [r4, #13]
 8003268:	2b01      	cmp	r3, #1
 800326a:	d009      	beq.n	8003280 <HAL_PCD_Start+0x34>
  {
    /* Enable USB Transceiver */
    USBx->GCCFG |= USB_OTG_GCCFG_PWRDWN;
  }

  __HAL_PCD_ENABLE(hpcd);
 800326c:	f001 fbf6 	bl	8004a5c <USB_EnableGlobalInt>
  (void)USB_DevConnect(hpcd->Instance);
 8003270:	6820      	ldr	r0, [r4, #0]
 8003272:	f002 f84b 	bl	800530c <USB_DevConnect>
  __HAL_UNLOCK(hpcd);
 8003276:	2300      	movs	r3, #0
 8003278:	f884 3494 	strb.w	r3, [r4, #1172]	@ 0x494

  return HAL_OK;
 800327c:	4618      	mov	r0, r3
}
 800327e:	bd10      	pop	{r4, pc}
    USBx->GCCFG |= USB_OTG_GCCFG_PWRDWN;
 8003280:	6b83      	ldr	r3, [r0, #56]	@ 0x38
 8003282:	f443 3380 	orr.w	r3, r3, #65536	@ 0x10000
 8003286:	6383      	str	r3, [r0, #56]	@ 0x38
 8003288:	e7f0      	b.n	800326c <HAL_PCD_Start+0x20>
  __HAL_LOCK(hpcd);
 800328a:	2002      	movs	r0, #2
}
 800328c:	bd10      	pop	{r4, pc}
 800328e:	bf00      	nop

08003290 <HAL_PCD_IRQHandler>:
  * @brief  Handles PCD interrupt request.
  * @param  hpcd PCD handle
  * @retval HAL status
  */
void HAL_PCD_IRQHandler(PCD_HandleTypeDef *hpcd)
{
 8003290:	e92d 4ff0 	stmdb	sp!, {r4, r5, r6, r7, r8, r9, sl, fp, lr}
  USB_OTG_GlobalTypeDef *USBx = hpcd->Instance;
 8003294:	6806      	ldr	r6, [r0, #0]
{
 8003296:	b089      	sub	sp, #36	@ 0x24
 8003298:	4604      	mov	r4, r0
  uint32_t epnum;
  uint32_t fifoemptymsk;
  uint32_t RegVal;

  /* ensure that we are in device mode */
  if (USB_GetMode(hpcd->Instance) == USB_OTG_MODE_DEVICE)
 800329a:	4630      	mov	r0, r6
 800329c:	f002 f884 	bl	80053a8 <USB_GetMode>
 80032a0:	b110      	cbz	r0, 80032a8 <HAL_PCD_IRQHandler+0x18>
#endif /* USE_HAL_PCD_REGISTER_CALLBACKS */
      }
      hpcd->Instance->GOTGINT |= RegVal;
    }
  }
}
 80032a2:	b009      	add	sp, #36	@ 0x24
 80032a4:	e8bd 8ff0 	ldmia.w	sp!, {r4, r5, r6, r7, r8, r9, sl, fp, pc}
    if (__HAL_PCD_IS_INVALID_INTERRUPT(hpcd))
 80032a8:	4605      	mov	r5, r0
 80032aa:	6820      	ldr	r0, [r4, #0]
 80032ac:	f002 f84e 	bl	800534c <USB_ReadInterrupts>
 80032b0:	2800      	cmp	r0, #0
 80032b2:	d0f6      	beq.n	80032a2 <HAL_PCD_IRQHandler+0x12>
    hpcd->FrameNumber = (USBx_DEVICE->DSTS & USB_OTG_DSTS_FNSOF_Msk) >> USB_OTG_DSTS_FNSOF_Pos;
 80032b4:	f8d6 3808 	ldr.w	r3, [r6, #2056]	@ 0x808
    if (__HAL_PCD_GET_FLAG(hpcd, USB_OTG_GINTSTS_MMIS))
 80032b8:	6820      	ldr	r0, [r4, #0]
    hpcd->FrameNumber = (USBx_DEVICE->DSTS & USB_OTG_DSTS_FNSOF_Msk) >> USB_OTG_DSTS_FNSOF_Pos;
 80032ba:	f3c3 230d 	ubfx	r3, r3, #8, #14
 80032be:	f8c4 34d4 	str.w	r3, [r4, #1236]	@ 0x4d4
 80032c2:	f506 6300 	add.w	r3, r6, #2048	@ 0x800
 80032c6:	9303      	str	r3, [sp, #12]
    if (__HAL_PCD_GET_FLAG(hpcd, USB_OTG_GINTSTS_MMIS))
 80032c8:	f002 f840 	bl	800534c <USB_ReadInterrupts>
 80032cc:	f010 0f02 	tst.w	r0, #2
      __HAL_PCD_CLEAR_FLAG(hpcd, USB_OTG_GINTSTS_MMIS);
 80032d0:	6820      	ldr	r0, [r4, #0]
 80032d2:	bf1e      	ittt	ne
 80032d4:	6943      	ldrne	r3, [r0, #20]
 80032d6:	f003 0302 	andne.w	r3, r3, #2
 80032da:	6143      	strne	r3, [r0, #20]
    if (__HAL_PCD_GET_FLAG(hpcd, USB_OTG_GINTSTS_RXFLVL))
 80032dc:	f002 f836 	bl	800534c <USB_ReadInterrupts>
 80032e0:	f010 0f10 	tst.w	r0, #16
      USB_MASK_INTERRUPT(hpcd->Instance, USB_OTG_GINTSTS_RXFLVL);
 80032e4:	6820      	ldr	r0, [r4, #0]
    if (__HAL_PCD_GET_FLAG(hpcd, USB_OTG_GINTSTS_RXFLVL))
 80032e6:	d014      	beq.n	8003312 <HAL_PCD_IRQHandler+0x82>
      USB_MASK_INTERRUPT(hpcd->Instance, USB_OTG_GINTSTS_RXFLVL);
 80032e8:	6983      	ldr	r3, [r0, #24]
 80032ea:	f023 0310 	bic.w	r3, r3, #16
 80032ee:	6183      	str	r3, [r0, #24]
      RegVal = USBx->GRXSTSP;
 80032f0:	6a37      	ldr	r7, [r6, #32]
      if (((RegVal & USB_OTG_GRXSTSP_PKTSTS) >> 17) ==  STS_DATA_UPDT)
 80032f2:	f407 13f0 	and.w	r3, r7, #1966080	@ 0x1e0000
 80032f6:	f5b3 2f80 	cmp.w	r3, #262144	@ 0x40000
      ep = &hpcd->OUT_ep[RegVal & USB_OTG_GRXSTSP_EPNUM];
 80032fa:	f007 080f 	and.w	r8, r7, #15
      if (((RegVal & USB_OTG_GRXSTSP_PKTSTS) >> 17) ==  STS_DATA_UPDT)
 80032fe:	f000 83b5 	beq.w	8003a6c <HAL_PCD_IRQHandler+0x7dc>
      else if (((RegVal & USB_OTG_GRXSTSP_PKTSTS) >> 17) == STS_SETUP_UPDT)
 8003302:	f5b3 2f40 	cmp.w	r3, #786432	@ 0xc0000
 8003306:	f000 8354 	beq.w	80039b2 <HAL_PCD_IRQHandler+0x722>
      USB_UNMASK_INTERRUPT(hpcd->Instance, USB_OTG_GINTSTS_RXFLVL);
 800330a:	6983      	ldr	r3, [r0, #24]
 800330c:	f043 0310 	orr.w	r3, r3, #16
 8003310:	6183      	str	r3, [r0, #24]
    if (__HAL_PCD_GET_FLAG(hpcd, USB_OTG_GINTSTS_OEPINT))
 8003312:	f002 f81b 	bl	800534c <USB_ReadInterrupts>
 8003316:	f410 2f00 	tst.w	r0, #524288	@ 0x80000
      ep_intr = USB_ReadDevAllOutEpInterrupt(hpcd->Instance);
 800331a:	6820      	ldr	r0, [r4, #0]
    if (__HAL_PCD_GET_FLAG(hpcd, USB_OTG_GINTSTS_OEPINT))
 800331c:	f040 82af 	bne.w	800387e <HAL_PCD_IRQHandler+0x5ee>
    if (__HAL_PCD_GET_FLAG(hpcd, USB_OTG_GINTSTS_IEPINT))
 8003320:	f002 f814 	bl	800534c <USB_ReadInterrupts>
 8003324:	0347      	lsls	r7, r0, #13
 8003326:	f100 820e 	bmi.w	8003746 <HAL_PCD_IRQHandler+0x4b6>
      ep_intr = USB_ReadDevAllInEpInterrupt(hpcd->Instance);
 800332a:	6820      	ldr	r0, [r4, #0]
    if (__HAL_PCD_GET_FLAG(hpcd, USB_OTG_GINTSTS_WKUINT))
 800332c:	f002 f80e 	bl	800534c <USB_ReadInterrupts>
 8003330:	2800      	cmp	r0, #0
 8003332:	f2c0 8180 	blt.w	8003636 <HAL_PCD_IRQHandler+0x3a6>
    if (__HAL_PCD_GET_FLAG(hpcd, USB_OTG_GINTSTS_USBSUSP))
 8003336:	6820      	ldr	r0, [r4, #0]
 8003338:	f002 f808 	bl	800534c <USB_ReadInterrupts>
 800333c:	0502      	lsls	r2, r0, #20
 800333e:	f100 813d 	bmi.w	80035bc <HAL_PCD_IRQHandler+0x32c>
      __HAL_PCD_CLEAR_FLAG(hpcd, USB_OTG_GINTSTS_USBSUSP);
 8003342:	6820      	ldr	r0, [r4, #0]
    if (__HAL_PCD_GET_FLAG(hpcd, USB_OTG_GINTSTS_USBRST))
 8003344:	f002 f802 	bl	800534c <USB_ReadInterrupts>
 8003348:	04c7      	lsls	r7, r0, #19
 800334a:	f100 819e 	bmi.w	800368a <HAL_PCD_IRQHandler+0x3fa>
    if (__HAL_PCD_GET_FLAG(hpcd, USB_OTG_GINTSTS_ENUMDNE))
 800334e:	6820      	ldr	r0, [r4, #0]
 8003350:	f001 fffc 	bl	800534c <USB_ReadInterrupts>
 8003354:	f410 5f00 	tst.w	r0, #8192	@ 0x2000
      (void)USB_ActivateSetup(hpcd->Instance);
 8003358:	6820      	ldr	r0, [r4, #0]
    if (__HAL_PCD_GET_FLAG(hpcd, USB_OTG_GINTSTS_ENUMDNE))
 800335a:	f040 817f 	bne.w	800365c <HAL_PCD_IRQHandler+0x3cc>
    if (__HAL_PCD_GET_FLAG(hpcd, USB_OTG_GINTSTS_SOF))
 800335e:	f001 fff5 	bl	800534c <USB_ReadInterrupts>
 8003362:	0700      	lsls	r0, r0, #28
 8003364:	f100 81e6 	bmi.w	8003734 <HAL_PCD_IRQHandler+0x4a4>
    if (__HAL_PCD_GET_FLAG(hpcd, USB_OTG_GINTSTS_BOUTNAKEFF))
 8003368:	6820      	ldr	r0, [r4, #0]
 800336a:	f001 ffef 	bl	800534c <USB_ReadInterrupts>
 800336e:	0601      	lsls	r1, r0, #24
 8003370:	d571      	bpl.n	8003456 <HAL_PCD_IRQHandler+0x1c6>
      USBx->GINTMSK &= ~USB_OTG_GINTMSK_GONAKEFFM;
 8003372:	69b3      	ldr	r3, [r6, #24]
 8003374:	f023 0380 	bic.w	r3, r3, #128	@ 0x80
 8003378:	61b3      	str	r3, [r6, #24]
      for (epnum = 1U; epnum < hpcd->Init.dev_endpoints; epnum++)
 800337a:	7923      	ldrb	r3, [r4, #4]
 800337c:	2b01      	cmp	r3, #1
 800337e:	d96a      	bls.n	8003456 <HAL_PCD_IRQHandler+0x1c6>
        if (hpcd->OUT_ep[epnum].is_iso_incomplete == 1U)
 8003380:	f894 227b 	ldrb.w	r2, [r4, #635]	@ 0x27b
 8003384:	2a01      	cmp	r2, #1
 8003386:	f000 83de 	beq.w	8003b46 <HAL_PCD_IRQHandler+0x8b6>
      for (epnum = 1U; epnum < hpcd->Init.dev_endpoints; epnum++)
 800338a:	2b02      	cmp	r3, #2
 800338c:	d963      	bls.n	8003456 <HAL_PCD_IRQHandler+0x1c6>
        if (hpcd->OUT_ep[epnum].is_iso_incomplete == 1U)
 800338e:	f894 229f 	ldrb.w	r2, [r4, #671]	@ 0x29f
 8003392:	2a01      	cmp	r2, #1
 8003394:	f000 83f2 	beq.w	8003b7c <HAL_PCD_IRQHandler+0x8ec>
      for (epnum = 1U; epnum < hpcd->Init.dev_endpoints; epnum++)
 8003398:	2b03      	cmp	r3, #3
 800339a:	d95c      	bls.n	8003456 <HAL_PCD_IRQHandler+0x1c6>
        if (hpcd->OUT_ep[epnum].is_iso_incomplete == 1U)
 800339c:	f894 22c3 	ldrb.w	r2, [r4, #707]	@ 0x2c3
 80033a0:	2a01      	cmp	r2, #1
 80033a2:	f000 82ff 	beq.w	80039a4 <HAL_PCD_IRQHandler+0x714>
      for (epnum = 1U; epnum < hpcd->Init.dev_endpoints; epnum++)
 80033a6:	2b04      	cmp	r3, #4
 80033a8:	d955      	bls.n	8003456 <HAL_PCD_IRQHandler+0x1c6>
        if (hpcd->OUT_ep[epnum].is_iso_incomplete == 1U)
 80033aa:	f894 22e7 	ldrb.w	r2, [r4, #743]	@ 0x2e7
 80033ae:	2a01      	cmp	r2, #1
 80033b0:	f000 8312 	beq.w	80039d8 <HAL_PCD_IRQHandler+0x748>
      for (epnum = 1U; epnum < hpcd->Init.dev_endpoints; epnum++)
 80033b4:	2b05      	cmp	r3, #5
 80033b6:	d94e      	bls.n	8003456 <HAL_PCD_IRQHandler+0x1c6>
        if (hpcd->OUT_ep[epnum].is_iso_incomplete == 1U)
 80033b8:	f894 230b 	ldrb.w	r2, [r4, #779]	@ 0x30b
 80033bc:	2a01      	cmp	r2, #1
 80033be:	f000 8418 	beq.w	8003bf2 <HAL_PCD_IRQHandler+0x962>
      for (epnum = 1U; epnum < hpcd->Init.dev_endpoints; epnum++)
 80033c2:	2b06      	cmp	r3, #6
 80033c4:	d947      	bls.n	8003456 <HAL_PCD_IRQHandler+0x1c6>
        if (hpcd->OUT_ep[epnum].is_iso_incomplete == 1U)
 80033c6:	f894 232f 	ldrb.w	r2, [r4, #815]	@ 0x32f
 80033ca:	2a01      	cmp	r2, #1
 80033cc:	f000 8425 	beq.w	8003c1a <HAL_PCD_IRQHandler+0x98a>
      for (epnum = 1U; epnum < hpcd->Init.dev_endpoints; epnum++)
 80033d0:	2b07      	cmp	r3, #7
 80033d2:	d940      	bls.n	8003456 <HAL_PCD_IRQHandler+0x1c6>
        if (hpcd->OUT_ep[epnum].is_iso_incomplete == 1U)
 80033d4:	f894 2353 	ldrb.w	r2, [r4, #851]	@ 0x353
 80033d8:	2a01      	cmp	r2, #1
 80033da:	f000 8437 	beq.w	8003c4c <HAL_PCD_IRQHandler+0x9bc>
      for (epnum = 1U; epnum < hpcd->Init.dev_endpoints; epnum++)
 80033de:	2b08      	cmp	r3, #8
 80033e0:	d939      	bls.n	8003456 <HAL_PCD_IRQHandler+0x1c6>
        if (hpcd->OUT_ep[epnum].is_iso_incomplete == 1U)
 80033e2:	f894 2377 	ldrb.w	r2, [r4, #887]	@ 0x377
 80033e6:	2a01      	cmp	r2, #1
 80033e8:	f000 8444 	beq.w	8003c74 <HAL_PCD_IRQHandler+0x9e4>
      for (epnum = 1U; epnum < hpcd->Init.dev_endpoints; epnum++)
 80033ec:	2b09      	cmp	r3, #9
 80033ee:	d932      	bls.n	8003456 <HAL_PCD_IRQHandler+0x1c6>
        if (hpcd->OUT_ep[epnum].is_iso_incomplete == 1U)
 80033f0:	f894 239b 	ldrb.w	r2, [r4, #923]	@ 0x39b
 80033f4:	2a01      	cmp	r2, #1
 80033f6:	f000 8451 	beq.w	8003c9c <HAL_PCD_IRQHandler+0xa0c>
      for (epnum = 1U; epnum < hpcd->Init.dev_endpoints; epnum++)
 80033fa:	2b0a      	cmp	r3, #10
 80033fc:	d92b      	bls.n	8003456 <HAL_PCD_IRQHandler+0x1c6>
        if (hpcd->OUT_ep[epnum].is_iso_incomplete == 1U)
 80033fe:	f894 23bf 	ldrb.w	r2, [r4, #959]	@ 0x3bf
 8003402:	2a01      	cmp	r2, #1
 8003404:	f000 845e 	beq.w	8003cc4 <HAL_PCD_IRQHandler+0xa34>
      for (epnum = 1U; epnum < hpcd->Init.dev_endpoints; epnum++)
 8003408:	2b0b      	cmp	r3, #11
 800340a:	d924      	bls.n	8003456 <HAL_PCD_IRQHandler+0x1c6>
        if (hpcd->OUT_ep[epnum].is_iso_incomplete == 1U)
 800340c:	f894 23e3 	ldrb.w	r2, [r4, #995]	@ 0x3e3
 8003410:	2a01      	cmp	r2, #1
 8003412:	f000 846b 	beq.w	8003cec <HAL_PCD_IRQHandler+0xa5c>
      for (epnum = 1U; epnum < hpcd->Init.dev_endpoints; epnum++)
 8003416:	2b0c      	cmp	r3, #12
 8003418:	d91d      	bls.n	8003456 <HAL_PCD_IRQHandler+0x1c6>
        if (hpcd->OUT_ep[epnum].is_iso_incomplete == 1U)
 800341a:	f894 2407 	ldrb.w	r2, [r4, #1031]	@ 0x407
 800341e:	2a01      	cmp	r2, #1
 8003420:	f000 8470 	beq.w	8003d04 <HAL_PCD_IRQHandler+0xa74>
      for (epnum = 1U; epnum < hpcd->Init.dev_endpoints; epnum++)
 8003424:	2b0d      	cmp	r3, #13
 8003426:	d916      	bls.n	8003456 <HAL_PCD_IRQHandler+0x1c6>
        if (hpcd->OUT_ep[epnum].is_iso_incomplete == 1U)
 8003428:	f894 242b 	ldrb.w	r2, [r4, #1067]	@ 0x42b
 800342c:	2a01      	cmp	r2, #1
 800342e:	f000 848c 	beq.w	8003d4a <HAL_PCD_IRQHandler+0xaba>
      for (epnum = 1U; epnum < hpcd->Init.dev_endpoints; epnum++)
 8003432:	2b0e      	cmp	r3, #14
 8003434:	d90f      	bls.n	8003456 <HAL_PCD_IRQHandler+0x1c6>
        if (hpcd->OUT_ep[epnum].is_iso_incomplete == 1U)
 8003436:	f894 244f 	ldrb.w	r2, [r4, #1103]	@ 0x44f
 800343a:	2a01      	cmp	r2, #1
 800343c:	f000 8493 	beq.w	8003d66 <HAL_PCD_IRQHandler+0xad6>
      for (epnum = 1U; epnum < hpcd->Init.dev_endpoints; epnum++)
 8003440:	2b0f      	cmp	r3, #15
 8003442:	d908      	bls.n	8003456 <HAL_PCD_IRQHandler+0x1c6>
        if (hpcd->OUT_ep[epnum].is_iso_incomplete == 1U)
 8003444:	f894 3473 	ldrb.w	r3, [r4, #1139]	@ 0x473
 8003448:	2b01      	cmp	r3, #1
 800344a:	d104      	bne.n	8003456 <HAL_PCD_IRQHandler+0x1c6>
  {
    ep = &hpcd->OUT_ep[ep_addr & EP_ADDR_MSK];
  }

  /* Stop Xfer */
  ret = USB_EPStopXfer(hpcd->Instance, ep);
 800344c:	6820      	ldr	r0, [r4, #0]
 800344e:	f504 618e 	add.w	r1, r4, #1136	@ 0x470
 8003452:	f001 fe6b 	bl	800512c <USB_EPStopXfer>
    if (__HAL_PCD_GET_FLAG(hpcd, USB_OTG_GINTSTS_IISOIXFR))
 8003456:	6820      	ldr	r0, [r4, #0]
 8003458:	f001 ff78 	bl	800534c <USB_ReadInterrupts>
 800345c:	02c2      	lsls	r2, r0, #11
 800345e:	f140 80ab 	bpl.w	80035b8 <HAL_PCD_IRQHandler+0x328>
      for (epnum = 1U; epnum < hpcd->Init.dev_endpoints; epnum++)
 8003462:	7923      	ldrb	r3, [r4, #4]
 8003464:	2b01      	cmp	r3, #1
 8003466:	f240 8089 	bls.w	800357c <HAL_PCD_IRQHandler+0x2ec>
        if ((hpcd->IN_ep[epnum].type == EP_TYPE_ISOC) &&
 800346a:	f894 203c 	ldrb.w	r2, [r4, #60]	@ 0x3c
        RegVal = USBx_INEP(epnum)->DIEPCTL;
 800346e:	f8d6 1920 	ldr.w	r1, [r6, #2336]	@ 0x920
        if ((hpcd->IN_ep[epnum].type == EP_TYPE_ISOC) &&
 8003472:	2a01      	cmp	r2, #1
 8003474:	f000 825f 	beq.w	8003936 <HAL_PCD_IRQHandler+0x6a6>
      for (epnum = 1U; epnum < hpcd->Init.dev_endpoints; epnum++)
 8003478:	2b02      	cmp	r3, #2
 800347a:	d97f      	bls.n	800357c <HAL_PCD_IRQHandler+0x2ec>
        if ((hpcd->IN_ep[epnum].type == EP_TYPE_ISOC) &&
 800347c:	f894 2060 	ldrb.w	r2, [r4, #96]	@ 0x60
        RegVal = USBx_INEP(epnum)->DIEPCTL;
 8003480:	f8d6 1940 	ldr.w	r1, [r6, #2368]	@ 0x940
        if ((hpcd->IN_ep[epnum].type == EP_TYPE_ISOC) &&
 8003484:	2a01      	cmp	r2, #1
 8003486:	f000 8269 	beq.w	800395c <HAL_PCD_IRQHandler+0x6cc>
      for (epnum = 1U; epnum < hpcd->Init.dev_endpoints; epnum++)
 800348a:	2b03      	cmp	r3, #3
 800348c:	d976      	bls.n	800357c <HAL_PCD_IRQHandler+0x2ec>
        if ((hpcd->IN_ep[epnum].type == EP_TYPE_ISOC) &&
 800348e:	f894 2084 	ldrb.w	r2, [r4, #132]	@ 0x84
        RegVal = USBx_INEP(epnum)->DIEPCTL;
 8003492:	f8d6 1960 	ldr.w	r1, [r6, #2400]	@ 0x960
        if ((hpcd->IN_ep[epnum].type == EP_TYPE_ISOC) &&
 8003496:	2a01      	cmp	r2, #1
 8003498:	f000 826c 	beq.w	8003974 <HAL_PCD_IRQHandler+0x6e4>
      for (epnum = 1U; epnum < hpcd->Init.dev_endpoints; epnum++)
 800349c:	2b04      	cmp	r3, #4
 800349e:	d96d      	bls.n	800357c <HAL_PCD_IRQHandler+0x2ec>
        if ((hpcd->IN_ep[epnum].type == EP_TYPE_ISOC) &&
 80034a0:	f894 20a8 	ldrb.w	r2, [r4, #168]	@ 0xa8
        RegVal = USBx_INEP(epnum)->DIEPCTL;
 80034a4:	f8d6 1980 	ldr.w	r1, [r6, #2432]	@ 0x980
        if ((hpcd->IN_ep[epnum].type == EP_TYPE_ISOC) &&
 80034a8:	2a01      	cmp	r2, #1
 80034aa:	f000 826f 	beq.w	800398c <HAL_PCD_IRQHandler+0x6fc>
      for (epnum = 1U; epnum < hpcd->Init.dev_endpoints; epnum++)
 80034ae:	2b05      	cmp	r3, #5
 80034b0:	d964      	bls.n	800357c <HAL_PCD_IRQHandler+0x2ec>
        if ((hpcd->IN_ep[epnum].type == EP_TYPE_ISOC) &&
 80034b2:	f894 20cc 	ldrb.w	r2, [r4, #204]	@ 0xcc
        RegVal = USBx_INEP(epnum)->DIEPCTL;
 80034b6:	f8d6 19a0 	ldr.w	r1, [r6, #2464]	@ 0x9a0
        if ((hpcd->IN_ep[epnum].type == EP_TYPE_ISOC) &&
 80034ba:	2a01      	cmp	r2, #1
 80034bc:	f000 8337 	beq.w	8003b2e <HAL_PCD_IRQHandler+0x89e>
      for (epnum = 1U; epnum < hpcd->Init.dev_endpoints; epnum++)
 80034c0:	2b06      	cmp	r3, #6
 80034c2:	d95b      	bls.n	800357c <HAL_PCD_IRQHandler+0x2ec>
        if ((hpcd->IN_ep[epnum].type == EP_TYPE_ISOC) &&
 80034c4:	f894 20f0 	ldrb.w	r2, [r4, #240]	@ 0xf0
        RegVal = USBx_INEP(epnum)->DIEPCTL;
 80034c8:	f8d6 19c0 	ldr.w	r1, [r6, #2496]	@ 0x9c0
        if ((hpcd->IN_ep[epnum].type == EP_TYPE_ISOC) &&
 80034cc:	2a01      	cmp	r2, #1
 80034ce:	f000 8349 	beq.w	8003b64 <HAL_PCD_IRQHandler+0x8d4>
      for (epnum = 1U; epnum < hpcd->Init.dev_endpoints; epnum++)
 80034d2:	2b07      	cmp	r3, #7
 80034d4:	d952      	bls.n	800357c <HAL_PCD_IRQHandler+0x2ec>
        if ((hpcd->IN_ep[epnum].type == EP_TYPE_ISOC) &&
 80034d6:	f894 2114 	ldrb.w	r2, [r4, #276]	@ 0x114
        RegVal = USBx_INEP(epnum)->DIEPCTL;
 80034da:	f8d6 19e0 	ldr.w	r1, [r6, #2528]	@ 0x9e0
        if ((hpcd->IN_ep[epnum].type == EP_TYPE_ISOC) &&
 80034de:	2a01      	cmp	r2, #1
 80034e0:	f000 8353 	beq.w	8003b8a <HAL_PCD_IRQHandler+0x8fa>
      for (epnum = 1U; epnum < hpcd->Init.dev_endpoints; epnum++)
 80034e4:	2b08      	cmp	r3, #8
 80034e6:	d949      	bls.n	800357c <HAL_PCD_IRQHandler+0x2ec>
        if ((hpcd->IN_ep[epnum].type == EP_TYPE_ISOC) &&
 80034e8:	f894 2138 	ldrb.w	r2, [r4, #312]	@ 0x138
        RegVal = USBx_INEP(epnum)->DIEPCTL;
 80034ec:	f8d6 1a00 	ldr.w	r1, [r6, #2560]	@ 0xa00
        if ((hpcd->IN_ep[epnum].type == EP_TYPE_ISOC) &&
 80034f0:	2a01      	cmp	r2, #1
 80034f2:	f000 8356 	beq.w	8003ba2 <HAL_PCD_IRQHandler+0x912>
      for (epnum = 1U; epnum < hpcd->Init.dev_endpoints; epnum++)
 80034f6:	2b09      	cmp	r3, #9
 80034f8:	d940      	bls.n	800357c <HAL_PCD_IRQHandler+0x2ec>
        if ((hpcd->IN_ep[epnum].type == EP_TYPE_ISOC) &&
 80034fa:	f894 215c 	ldrb.w	r2, [r4, #348]	@ 0x15c
        RegVal = USBx_INEP(epnum)->DIEPCTL;
 80034fe:	f8d6 1a20 	ldr.w	r1, [r6, #2592]	@ 0xa20
        if ((hpcd->IN_ep[epnum].type == EP_TYPE_ISOC) &&
 8003502:	2a01      	cmp	r2, #1
 8003504:	f000 8361 	beq.w	8003bca <HAL_PCD_IRQHandler+0x93a>
      for (epnum = 1U; epnum < hpcd->Init.dev_endpoints; epnum++)
 8003508:	2b0a      	cmp	r3, #10
 800350a:	d937      	bls.n	800357c <HAL_PCD_IRQHandler+0x2ec>
        if ((hpcd->IN_ep[epnum].type == EP_TYPE_ISOC) &&
 800350c:	f894 2180 	ldrb.w	r2, [r4, #384]	@ 0x180
        RegVal = USBx_INEP(epnum)->DIEPCTL;
 8003510:	f8d6 1a40 	ldr.w	r1, [r6, #2624]	@ 0xa40
        if ((hpcd->IN_ep[epnum].type == EP_TYPE_ISOC) &&
 8003514:	2a01      	cmp	r2, #1
 8003516:	f000 8374 	beq.w	8003c02 <HAL_PCD_IRQHandler+0x972>
      for (epnum = 1U; epnum < hpcd->Init.dev_endpoints; epnum++)
 800351a:	2b0b      	cmp	r3, #11
 800351c:	d92e      	bls.n	800357c <HAL_PCD_IRQHandler+0x2ec>
        if ((hpcd->IN_ep[epnum].type == EP_TYPE_ISOC) &&
 800351e:	f894 21a4 	ldrb.w	r2, [r4, #420]	@ 0x1a4
        RegVal = USBx_INEP(epnum)->DIEPCTL;
 8003522:	f8d6 1a60 	ldr.w	r1, [r6, #2656]	@ 0xa60
        if ((hpcd->IN_ep[epnum].type == EP_TYPE_ISOC) &&
 8003526:	2a01      	cmp	r2, #1
 8003528:	f000 8384 	beq.w	8003c34 <HAL_PCD_IRQHandler+0x9a4>
      for (epnum = 1U; epnum < hpcd->Init.dev_endpoints; epnum++)
 800352c:	2b0c      	cmp	r3, #12
 800352e:	d925      	bls.n	800357c <HAL_PCD_IRQHandler+0x2ec>
        if ((hpcd->IN_ep[epnum].type == EP_TYPE_ISOC) &&
 8003530:	f894 21c8 	ldrb.w	r2, [r4, #456]	@ 0x1c8
        RegVal = USBx_INEP(epnum)->DIEPCTL;
 8003534:	f8d6 1a80 	ldr.w	r1, [r6, #2688]	@ 0xa80
        if ((hpcd->IN_ep[epnum].type == EP_TYPE_ISOC) &&
 8003538:	2a01      	cmp	r2, #1
 800353a:	f000 838f 	beq.w	8003c5c <HAL_PCD_IRQHandler+0x9cc>
      for (epnum = 1U; epnum < hpcd->Init.dev_endpoints; epnum++)
 800353e:	2b0d      	cmp	r3, #13
 8003540:	d91c      	bls.n	800357c <HAL_PCD_IRQHandler+0x2ec>
        if ((hpcd->IN_ep[epnum].type == EP_TYPE_ISOC) &&
 8003542:	f894 21ec 	ldrb.w	r2, [r4, #492]	@ 0x1ec
        RegVal = USBx_INEP(epnum)->DIEPCTL;
 8003546:	f8d6 1aa0 	ldr.w	r1, [r6, #2720]	@ 0xaa0
        if ((hpcd->IN_ep[epnum].type == EP_TYPE_ISOC) &&
 800354a:	2a01      	cmp	r2, #1
 800354c:	f000 839a 	beq.w	8003c84 <HAL_PCD_IRQHandler+0x9f4>
      for (epnum = 1U; epnum < hpcd->Init.dev_endpoints; epnum++)
 8003550:	2b0e      	cmp	r3, #14
 8003552:	d913      	bls.n	800357c <HAL_PCD_IRQHandler+0x2ec>
        if ((hpcd->IN_ep[epnum].type == EP_TYPE_ISOC) &&
 8003554:	f894 2210 	ldrb.w	r2, [r4, #528]	@ 0x210
        RegVal = USBx_INEP(epnum)->DIEPCTL;
 8003558:	f8d6 1ac0 	ldr.w	r1, [r6, #2752]	@ 0xac0
        if ((hpcd->IN_ep[epnum].type == EP_TYPE_ISOC) &&
 800355c:	2a01      	cmp	r2, #1
 800355e:	f000 83a5 	beq.w	8003cac <HAL_PCD_IRQHandler+0xa1c>
      for (epnum = 1U; epnum < hpcd->Init.dev_endpoints; epnum++)
 8003562:	2b0f      	cmp	r3, #15
 8003564:	d90a      	bls.n	800357c <HAL_PCD_IRQHandler+0x2ec>
        if ((hpcd->IN_ep[epnum].type == EP_TYPE_ISOC) &&
 8003566:	f894 2234 	ldrb.w	r2, [r4, #564]	@ 0x234
        RegVal = USBx_INEP(epnum)->DIEPCTL;
 800356a:	f8d6 1ae0 	ldr.w	r1, [r6, #2784]	@ 0xae0
        if ((hpcd->IN_ep[epnum].type == EP_TYPE_ISOC) &&
 800356e:	2a01      	cmp	r2, #1
 8003570:	f000 83b0 	beq.w	8003cd4 <HAL_PCD_IRQHandler+0xa44>
      for (epnum = 1U; epnum < hpcd->Init.dev_endpoints; epnum++)
 8003574:	2b10      	cmp	r3, #16
 8003576:	d901      	bls.n	800357c <HAL_PCD_IRQHandler+0x2ec>
        RegVal = USBx_INEP(epnum)->DIEPCTL;
 8003578:	f8d6 3b00 	ldr.w	r3, [r6, #2816]	@ 0xb00
      __HAL_PCD_CLEAR_FLAG(hpcd, USB_OTG_GINTSTS_IISOIXFR);
 800357c:	6820      	ldr	r0, [r4, #0]
 800357e:	6943      	ldr	r3, [r0, #20]
 8003580:	f403 1380 	and.w	r3, r3, #1048576	@ 0x100000
 8003584:	6143      	str	r3, [r0, #20]
    if (__HAL_PCD_GET_FLAG(hpcd, USB_OTG_GINTSTS_PXFR_INCOMPISOOUT))
 8003586:	f001 fee1 	bl	800534c <USB_ReadInterrupts>
 800358a:	0283      	lsls	r3, r0, #10
 800358c:	d421      	bmi.n	80035d2 <HAL_PCD_IRQHandler+0x342>
    if (__HAL_PCD_GET_FLAG(hpcd, USB_OTG_GINTSTS_SRQINT))
 800358e:	6820      	ldr	r0, [r4, #0]
 8003590:	f001 fedc 	bl	800534c <USB_ReadInterrupts>
 8003594:	0040      	lsls	r0, r0, #1
 8003596:	f100 80c4 	bmi.w	8003722 <HAL_PCD_IRQHandler+0x492>
    if (__HAL_PCD_GET_FLAG(hpcd, USB_OTG_GINTSTS_OTGINT))
 800359a:	6820      	ldr	r0, [r4, #0]
 800359c:	f001 fed6 	bl	800534c <USB_ReadInterrupts>
 80035a0:	0741      	lsls	r1, r0, #29
 80035a2:	f57f ae7e 	bpl.w	80032a2 <HAL_PCD_IRQHandler+0x12>
      RegVal = hpcd->Instance->GOTGINT;
 80035a6:	6823      	ldr	r3, [r4, #0]
 80035a8:	685d      	ldr	r5, [r3, #4]
      if ((RegVal & USB_OTG_GOTGINT_SEDET) == USB_OTG_GOTGINT_SEDET)
 80035aa:	076a      	lsls	r2, r5, #29
 80035ac:	f100 827f 	bmi.w	8003aae <HAL_PCD_IRQHandler+0x81e>
      hpcd->Instance->GOTGINT |= RegVal;
 80035b0:	685a      	ldr	r2, [r3, #4]
 80035b2:	432a      	orrs	r2, r5
 80035b4:	605a      	str	r2, [r3, #4]
 80035b6:	e674      	b.n	80032a2 <HAL_PCD_IRQHandler+0x12>
      __HAL_PCD_CLEAR_FLAG(hpcd, USB_OTG_GINTSTS_IISOIXFR);
 80035b8:	6820      	ldr	r0, [r4, #0]
 80035ba:	e7e4      	b.n	8003586 <HAL_PCD_IRQHandler+0x2f6>
      if ((USBx_DEVICE->DSTS & USB_OTG_DSTS_SUSPSTS) == USB_OTG_DSTS_SUSPSTS)
 80035bc:	9b03      	ldr	r3, [sp, #12]
 80035be:	689b      	ldr	r3, [r3, #8]
 80035c0:	07db      	lsls	r3, r3, #31
 80035c2:	f100 8270 	bmi.w	8003aa6 <HAL_PCD_IRQHandler+0x816>
      __HAL_PCD_CLEAR_FLAG(hpcd, USB_OTG_GINTSTS_USBSUSP);
 80035c6:	6820      	ldr	r0, [r4, #0]
 80035c8:	6943      	ldr	r3, [r0, #20]
 80035ca:	f403 6300 	and.w	r3, r3, #2048	@ 0x800
 80035ce:	6143      	str	r3, [r0, #20]
 80035d0:	e6b8      	b.n	8003344 <HAL_PCD_IRQHandler+0xb4>
      for (epnum = 1U; epnum < hpcd->Init.dev_endpoints; epnum++)
 80035d2:	f894 c004 	ldrb.w	ip, [r4, #4]
 80035d6:	f1bc 0f01 	cmp.w	ip, #1
 80035da:	d926      	bls.n	800362a <HAL_PCD_IRQHandler+0x39a>
 80035dc:	f506 6232 	add.w	r2, r6, #2848	@ 0xb20
 80035e0:	4623      	mov	r3, r4
 80035e2:	2101      	movs	r1, #1
 80035e4:	e006      	b.n	80035f4 <HAL_PCD_IRQHandler+0x364>
 80035e6:	3101      	adds	r1, #1
 80035e8:	4561      	cmp	r1, ip
 80035ea:	f102 0220 	add.w	r2, r2, #32
 80035ee:	f103 0324 	add.w	r3, r3, #36	@ 0x24
 80035f2:	d01a      	beq.n	800362a <HAL_PCD_IRQHandler+0x39a>
        if ((hpcd->OUT_ep[epnum].type == EP_TYPE_ISOC) &&
 80035f4:	f893 027c 	ldrb.w	r0, [r3, #636]	@ 0x27c
        RegVal = USBx_OUTEP(epnum)->DOEPCTL;
 80035f8:	6815      	ldr	r5, [r2, #0]
        if ((hpcd->OUT_ep[epnum].type == EP_TYPE_ISOC) &&
 80035fa:	2801      	cmp	r0, #1
 80035fc:	d1f3      	bne.n	80035e6 <HAL_PCD_IRQHandler+0x356>
 80035fe:	2d00      	cmp	r5, #0
 8003600:	daf1      	bge.n	80035e6 <HAL_PCD_IRQHandler+0x356>
            (((RegVal & (0x1U << 16)) >> 16U) == (hpcd->FrameNumber & 0x1U)))
 8003602:	f8d4 74d4 	ldr.w	r7, [r4, #1236]	@ 0x4d4
 8003606:	ea87 4715 	eor.w	r7, r7, r5, lsr #16
            ((RegVal & USB_OTG_DOEPCTL_EPENA) == USB_OTG_DOEPCTL_EPENA) &&
 800360a:	07ff      	lsls	r7, r7, #31
 800360c:	d4eb      	bmi.n	80035e6 <HAL_PCD_IRQHandler+0x356>
          hpcd->OUT_ep[epnum].is_iso_incomplete = 1U;
 800360e:	f883 027b 	strb.w	r0, [r3, #635]	@ 0x27b
          USBx->GINTMSK |= USB_OTG_GINTMSK_GONAKEFFM;
 8003612:	69b0      	ldr	r0, [r6, #24]
 8003614:	f040 0080 	orr.w	r0, r0, #128	@ 0x80
 8003618:	61b0      	str	r0, [r6, #24]
          if ((USBx->GINTSTS & USB_OTG_GINTSTS_BOUTNAKEFF) == 0U)
 800361a:	6970      	ldr	r0, [r6, #20]
 800361c:	0605      	lsls	r5, r0, #24
 800361e:	d4e2      	bmi.n	80035e6 <HAL_PCD_IRQHandler+0x356>
            USBx_DEVICE->DCTL |= USB_OTG_DCTL_SGONAK;
 8003620:	9a03      	ldr	r2, [sp, #12]
 8003622:	6853      	ldr	r3, [r2, #4]
 8003624:	f443 7300 	orr.w	r3, r3, #512	@ 0x200
 8003628:	6053      	str	r3, [r2, #4]
      __HAL_PCD_CLEAR_FLAG(hpcd, USB_OTG_GINTSTS_PXFR_INCOMPISOOUT);
 800362a:	6820      	ldr	r0, [r4, #0]
 800362c:	6943      	ldr	r3, [r0, #20]
 800362e:	f403 1300 	and.w	r3, r3, #2097152	@ 0x200000
 8003632:	6143      	str	r3, [r0, #20]
 8003634:	e7ac      	b.n	8003590 <HAL_PCD_IRQHandler+0x300>
      USBx_DEVICE->DCTL &= ~USB_OTG_DCTL_RWUSIG;
 8003636:	9a03      	ldr	r2, [sp, #12]
 8003638:	6853      	ldr	r3, [r2, #4]
 800363a:	f023 0301 	bic.w	r3, r3, #1
 800363e:	6053      	str	r3, [r2, #4]
      if (hpcd->LPM_State == LPM_L1)
 8003640:	f894 34cc 	ldrb.w	r3, [r4, #1228]	@ 0x4cc
 8003644:	2b01      	cmp	r3, #1
 8003646:	f000 8182 	beq.w	800394e <HAL_PCD_IRQHandler+0x6be>
        HAL_PCD_ResumeCallback(hpcd);
 800364a:	4620      	mov	r0, r4
 800364c:	f002 ffd0 	bl	80065f0 <HAL_PCD_ResumeCallback>
      __HAL_PCD_CLEAR_FLAG(hpcd, USB_OTG_GINTSTS_WKUINT);
 8003650:	6820      	ldr	r0, [r4, #0]
 8003652:	6943      	ldr	r3, [r0, #20]
 8003654:	f003 4300 	and.w	r3, r3, #2147483648	@ 0x80000000
 8003658:	6143      	str	r3, [r0, #20]
 800365a:	e66d      	b.n	8003338 <HAL_PCD_IRQHandler+0xa8>
      (void)USB_ActivateSetup(hpcd->Instance);
 800365c:	f001 fea8 	bl	80053b0 <USB_ActivateSetup>
      hpcd->Init.speed = USB_GetDevSpeed(hpcd->Instance);
 8003660:	6820      	ldr	r0, [r4, #0]
 8003662:	f001 fb97 	bl	8004d94 <USB_GetDevSpeed>
 8003666:	71e0      	strb	r0, [r4, #7]
      (void)USB_SetTurnaroundTime(hpcd->Instance,
 8003668:	6825      	ldr	r5, [r4, #0]
 800366a:	f001 f81b 	bl	80046a4 <HAL_RCC_GetHCLKFreq>
 800366e:	79e2      	ldrb	r2, [r4, #7]
 8003670:	4601      	mov	r1, r0
 8003672:	4628      	mov	r0, r5
 8003674:	f001 f978 	bl	8004968 <USB_SetTurnaroundTime>
      HAL_PCD_ResetCallback(hpcd);
 8003678:	4620      	mov	r0, r4
 800367a:	f002 ff8b 	bl	8006594 <HAL_PCD_ResetCallback>
      __HAL_PCD_CLEAR_FLAG(hpcd, USB_OTG_GINTSTS_ENUMDNE);
 800367e:	6820      	ldr	r0, [r4, #0]
 8003680:	6943      	ldr	r3, [r0, #20]
 8003682:	f403 5300 	and.w	r3, r3, #8192	@ 0x2000
 8003686:	6143      	str	r3, [r0, #20]
 8003688:	e669      	b.n	800335e <HAL_PCD_IRQHandler+0xce>
      USBx_DEVICE->DCTL &= ~USB_OTG_DCTL_RWUSIG;
 800368a:	9a03      	ldr	r2, [sp, #12]
      (void)USB_FlushTxFifo(hpcd->Instance, 0x10U);
 800368c:	6820      	ldr	r0, [r4, #0]
      USBx_DEVICE->DCTL &= ~USB_OTG_DCTL_RWUSIG;
 800368e:	6853      	ldr	r3, [r2, #4]
 8003690:	f023 0301 	bic.w	r3, r3, #1
 8003694:	6053      	str	r3, [r2, #4]
      (void)USB_FlushTxFifo(hpcd->Instance, 0x10U);
 8003696:	2110      	movs	r1, #16
 8003698:	f001 fb54 	bl	8004d44 <USB_FlushTxFifo>
      for (i = 0U; i < hpcd->Init.dev_endpoints; i++)
 800369c:	7920      	ldrb	r0, [r4, #4]
 800369e:	b1d8      	cbz	r0, 80036d8 <HAL_PCD_IRQHandler+0x448>
 80036a0:	f506 6310 	add.w	r3, r6, #2304	@ 0x900
        USBx_INEP(i)->DIEPINT = 0xFB7FU;
 80036a4:	f64f 317f 	movw	r1, #64383	@ 0xfb7f
 80036a8:	6099      	str	r1, [r3, #8]
        USBx_INEP(i)->DIEPCTL &= ~USB_OTG_DIEPCTL_STALL;
 80036aa:	681a      	ldr	r2, [r3, #0]
 80036ac:	f422 1200 	bic.w	r2, r2, #2097152	@ 0x200000
 80036b0:	601a      	str	r2, [r3, #0]
        USBx_OUTEP(i)->DOEPINT = 0xFB7FU;
 80036b2:	f8c3 1208 	str.w	r1, [r3, #520]	@ 0x208
        USBx_OUTEP(i)->DOEPCTL &= ~USB_OTG_DOEPCTL_STALL;
 80036b6:	f8d3 2200 	ldr.w	r2, [r3, #512]	@ 0x200
 80036ba:	f422 1200 	bic.w	r2, r2, #2097152	@ 0x200000
 80036be:	f8c3 2200 	str.w	r2, [r3, #512]	@ 0x200
        USBx_OUTEP(i)->DOEPCTL |= USB_OTG_DOEPCTL_SNAK;
 80036c2:	f8d3 2200 	ldr.w	r2, [r3, #512]	@ 0x200
      for (i = 0U; i < hpcd->Init.dev_endpoints; i++)
 80036c6:	3501      	adds	r5, #1
        USBx_OUTEP(i)->DOEPCTL |= USB_OTG_DOEPCTL_SNAK;
 80036c8:	f042 6200 	orr.w	r2, r2, #134217728	@ 0x8000000
      for (i = 0U; i < hpcd->Init.dev_endpoints; i++)
 80036cc:	4285      	cmp	r5, r0
        USBx_OUTEP(i)->DOEPCTL |= USB_OTG_DOEPCTL_SNAK;
 80036ce:	f8c3 2200 	str.w	r2, [r3, #512]	@ 0x200
      for (i = 0U; i < hpcd->Init.dev_endpoints; i++)
 80036d2:	f103 0320 	add.w	r3, r3, #32
 80036d6:	d1e7      	bne.n	80036a8 <HAL_PCD_IRQHandler+0x418>
      USBx_DEVICE->DAINTMSK |= 0x10001U;
 80036d8:	9a03      	ldr	r2, [sp, #12]
 80036da:	69d3      	ldr	r3, [r2, #28]
 80036dc:	f043 1301 	orr.w	r3, r3, #65537	@ 0x10001
 80036e0:	61d3      	str	r3, [r2, #28]
      if (hpcd->Init.use_dedicated_ep1 != 0U)
 80036e2:	7be3      	ldrb	r3, [r4, #15]
 80036e4:	2b00      	cmp	r3, #0
 80036e6:	f040 811b 	bne.w	8003920 <HAL_PCD_IRQHandler+0x690>
        USBx_DEVICE->DOEPMSK |= USB_OTG_DOEPMSK_STUPM |
 80036ea:	6953      	ldr	r3, [r2, #20]
 80036ec:	f443 5300 	orr.w	r3, r3, #8192	@ 0x2000
 80036f0:	f043 032b 	orr.w	r3, r3, #43	@ 0x2b
 80036f4:	6153      	str	r3, [r2, #20]
        USBx_DEVICE->DIEPMSK |= USB_OTG_DIEPMSK_TOM |
 80036f6:	6913      	ldr	r3, [r2, #16]
 80036f8:	f043 030b 	orr.w	r3, r3, #11
 80036fc:	6113      	str	r3, [r2, #16]
      USBx_DEVICE->DCFG &= ~USB_OTG_DCFG_DAD;
 80036fe:	f8d6 3800 	ldr.w	r3, [r6, #2048]	@ 0x800
      (void)USB_EP0_OutStart(hpcd->Instance, (uint8_t)hpcd->Init.dma_enable,
 8003702:	6820      	ldr	r0, [r4, #0]
      USBx_DEVICE->DCFG &= ~USB_OTG_DCFG_DAD;
 8003704:	f423 63fe 	bic.w	r3, r3, #2032	@ 0x7f0
 8003708:	f8c6 3800 	str.w	r3, [r6, #2048]	@ 0x800
      (void)USB_EP0_OutStart(hpcd->Instance, (uint8_t)hpcd->Init.dma_enable,
 800370c:	79a1      	ldrb	r1, [r4, #6]
 800370e:	f204 429c 	addw	r2, r4, #1180	@ 0x49c
 8003712:	f001 fe5d 	bl	80053d0 <USB_EP0_OutStart>
      __HAL_PCD_CLEAR_FLAG(hpcd, USB_OTG_GINTSTS_USBRST);
 8003716:	6820      	ldr	r0, [r4, #0]
 8003718:	6943      	ldr	r3, [r0, #20]
 800371a:	f403 5380 	and.w	r3, r3, #4096	@ 0x1000
 800371e:	6143      	str	r3, [r0, #20]
 8003720:	e616      	b.n	8003350 <HAL_PCD_IRQHandler+0xc0>
      HAL_PCD_ConnectCallback(hpcd);
 8003722:	4620      	mov	r0, r4
 8003724:	f002 ff70 	bl	8006608 <HAL_PCD_ConnectCallback>
      __HAL_PCD_CLEAR_FLAG(hpcd, USB_OTG_GINTSTS_SRQINT);
 8003728:	6820      	ldr	r0, [r4, #0]
 800372a:	6943      	ldr	r3, [r0, #20]
 800372c:	f003 4380 	and.w	r3, r3, #1073741824	@ 0x40000000
 8003730:	6143      	str	r3, [r0, #20]
 8003732:	e733      	b.n	800359c <HAL_PCD_IRQHandler+0x30c>
      HAL_PCD_SOFCallback(hpcd);
 8003734:	4620      	mov	r0, r4
 8003736:	f002 ff29 	bl	800658c <HAL_PCD_SOFCallback>
      __HAL_PCD_CLEAR_FLAG(hpcd, USB_OTG_GINTSTS_SOF);
 800373a:	6820      	ldr	r0, [r4, #0]
 800373c:	6943      	ldr	r3, [r0, #20]
 800373e:	f003 0308 	and.w	r3, r3, #8
 8003742:	6143      	str	r3, [r0, #20]
 8003744:	e611      	b.n	800336a <HAL_PCD_IRQHandler+0xda>
      ep_intr = USB_ReadDevAllInEpInterrupt(hpcd->Instance);
 8003746:	6820      	ldr	r0, [r4, #0]
 8003748:	f001 fe0c 	bl	8005364 <USB_ReadDevAllInEpInterrupt>
      while (ep_intr != 0U)
 800374c:	4681      	mov	r9, r0
    if (__HAL_PCD_GET_FLAG(hpcd, USB_OTG_GINTSTS_WKUINT))
 800374e:	6820      	ldr	r0, [r4, #0]
      while (ep_intr != 0U)
 8003750:	f1b9 0f00 	cmp.w	r9, #0
 8003754:	f43f adea 	beq.w	800332c <HAL_PCD_IRQHandler+0x9c>
            CLEAR_IN_EP_INTR(epnum, USB_OTG_DIEPINT_TOC);
 8003758:	e9cd 6504 	strd	r6, r5, [sp, #16]
 800375c:	f506 6710 	add.w	r7, r6, #2304	@ 0x900
 8003760:	46a0      	mov	r8, r4
      epnum = 0U;
 8003762:	f04f 0a00 	mov.w	sl, #0
            CLEAR_IN_EP_INTR(epnum, USB_OTG_DIEPINT_TOC);
 8003766:	4606      	mov	r6, r0
 8003768:	e009      	b.n	800377e <HAL_PCD_IRQHandler+0x4ee>
      while (ep_intr != 0U)
 800376a:	ea5f 0959 	movs.w	r9, r9, lsr #1
        epnum++;
 800376e:	f10a 0a01 	add.w	sl, sl, #1
      while (ep_intr != 0U)
 8003772:	f108 0824 	add.w	r8, r8, #36	@ 0x24
 8003776:	f107 0720 	add.w	r7, r7, #32
 800377a:	f000 8137 	beq.w	80039ec <HAL_PCD_IRQHandler+0x75c>
        if ((ep_intr & 0x1U) != 0U) /* In ITR */
 800377e:	f019 0f01 	tst.w	r9, #1
 8003782:	d0f2      	beq.n	800376a <HAL_PCD_IRQHandler+0x4da>
          epint = USB_ReadDevInEPInterrupt(hpcd->Instance, (uint8_t)epnum);
 8003784:	fa5f fb8a 	uxtb.w	fp, sl
 8003788:	4659      	mov	r1, fp
 800378a:	4630      	mov	r0, r6
 800378c:	f001 fdfc 	bl	8005388 <USB_ReadDevInEPInterrupt>
          if ((epint & USB_OTG_DIEPINT_XFRC) == USB_OTG_DIEPINT_XFRC)
 8003790:	07c1      	lsls	r1, r0, #31
          epint = USB_ReadDevInEPInterrupt(hpcd->Instance, (uint8_t)epnum);
 8003792:	4605      	mov	r5, r0
          if ((epint & USB_OTG_DIEPINT_XFRC) == USB_OTG_DIEPINT_XFRC)
 8003794:	d512      	bpl.n	80037bc <HAL_PCD_IRQHandler+0x52c>
            USBx_DEVICE->DIEPEMPMSK &= ~fifoemptymsk;
 8003796:	9803      	ldr	r0, [sp, #12]
            fifoemptymsk = (uint32_t)(0x1UL << (epnum & EP_ADDR_MSK));
 8003798:	2101      	movs	r1, #1
            USBx_DEVICE->DIEPEMPMSK &= ~fifoemptymsk;
 800379a:	6b43      	ldr	r3, [r0, #52]	@ 0x34
            fifoemptymsk = (uint32_t)(0x1UL << (epnum & EP_ADDR_MSK));
 800379c:	f00a 020f 	and.w	r2, sl, #15
 80037a0:	fa01 f202 	lsl.w	r2, r1, r2
            USBx_DEVICE->DIEPEMPMSK &= ~fifoemptymsk;
 80037a4:	ea23 0302 	bic.w	r3, r3, r2
 80037a8:	6343      	str	r3, [r0, #52]	@ 0x34
            CLEAR_IN_EP_INTR(epnum, USB_OTG_DIEPINT_XFRC);
 80037aa:	60b9      	str	r1, [r7, #8]
            if (hpcd->Init.dma_enable == 1U)
 80037ac:	79a1      	ldrb	r1, [r4, #6]
 80037ae:	2901      	cmp	r1, #1
 80037b0:	f000 8182 	beq.w	8003ab8 <HAL_PCD_IRQHandler+0x828>
            HAL_PCD_DataInStageCallback(hpcd, (uint8_t)epnum);
 80037b4:	4659      	mov	r1, fp
 80037b6:	4620      	mov	r0, r4
 80037b8:	f002 fede 	bl	8006578 <HAL_PCD_DataInStageCallback>
          if ((epint & USB_OTG_DIEPINT_TOC) == USB_OTG_DIEPINT_TOC)
 80037bc:	072a      	lsls	r2, r5, #28
            CLEAR_IN_EP_INTR(epnum, USB_OTG_DIEPINT_TOC);
 80037be:	bf44      	itt	mi
 80037c0:	2308      	movmi	r3, #8
 80037c2:	60bb      	strmi	r3, [r7, #8]
          if ((epint & USB_OTG_DIEPINT_ITTXFE) == USB_OTG_DIEPINT_ITTXFE)
 80037c4:	06eb      	lsls	r3, r5, #27
            CLEAR_IN_EP_INTR(epnum, USB_OTG_DIEPINT_ITTXFE);
 80037c6:	bf44      	itt	mi
 80037c8:	2310      	movmi	r3, #16
 80037ca:	60bb      	strmi	r3, [r7, #8]
          if ((epint & USB_OTG_DIEPINT_INEPNE) == USB_OTG_DIEPINT_INEPNE)
 80037cc:	066e      	lsls	r6, r5, #25
            CLEAR_IN_EP_INTR(epnum, USB_OTG_DIEPINT_INEPNE);
 80037ce:	bf44      	itt	mi
 80037d0:	2340      	movmi	r3, #64	@ 0x40
 80037d2:	60bb      	strmi	r3, [r7, #8]
          if ((epint & USB_OTG_DIEPINT_EPDISD) == USB_OTG_DIEPINT_EPDISD)
 80037d4:	07a8      	lsls	r0, r5, #30
 80037d6:	f100 813d 	bmi.w	8003a54 <HAL_PCD_IRQHandler+0x7c4>
          if ((epint & USB_OTG_DIEPINT_TXFE) == USB_OTG_DIEPINT_TXFE)
 80037da:	0629      	lsls	r1, r5, #24
  * @param  epnum endpoint number
  * @retval HAL status
  */
static HAL_StatusTypeDef PCD_WriteEmptyTxFifo(PCD_HandleTypeDef *hpcd, uint32_t epnum)
{
  USB_OTG_GlobalTypeDef *USBx = hpcd->Instance;
 80037dc:	6826      	ldr	r6, [r4, #0]
          if ((epint & USB_OTG_DIEPINT_TXFE) == USB_OTG_DIEPINT_TXFE)
 80037de:	d5c4      	bpl.n	800376a <HAL_PCD_IRQHandler+0x4da>
  uint32_t len32b;
  uint32_t fifoemptymsk;

  ep = &hpcd->IN_ep[epnum];

  if (ep->xfer_count > ep->xfer_len)
 80037e0:	e9d8 5309 	ldrd	r5, r3, [r8, #36]	@ 0x24
 80037e4:	42ab      	cmp	r3, r5
 80037e6:	d8c0      	bhi.n	800376a <HAL_PCD_IRQHandler+0x4da>
    len = ep->maxpacket;
  }

  len32b = (len + 3U) / 4U;

  while (((USBx_INEP(epnum)->DTXFSTS & USB_OTG_DTXFSTS_INEPTFSAV) >= len32b) &&
 80037e8:	f506 6110 	add.w	r1, r6, #2304	@ 0x900
  if (len > ep->maxpacket)
 80037ec:	f8d8 001c 	ldr.w	r0, [r8, #28]
  uint32_t USBx_BASE = (uint32_t)USBx;
 80037f0:	9607      	str	r6, [sp, #28]
  while (((USBx_INEP(epnum)->DTXFSTS & USB_OTG_DTXFSTS_INEPTFSAV) >= len32b) &&
 80037f2:	eb01 114a 	add.w	r1, r1, sl, lsl #5
  len = ep->xfer_len - ep->xfer_count;
 80037f6:	eba5 0c03 	sub.w	ip, r5, r3
  if (len > ep->maxpacket)
 80037fa:	4584      	cmp	ip, r0
  while (((USBx_INEP(epnum)->DTXFSTS & USB_OTG_DTXFSTS_INEPTFSAV) >= len32b) &&
 80037fc:	698a      	ldr	r2, [r1, #24]
  if (len > ep->maxpacket)
 80037fe:	bf28      	it	cs
 8003800:	4684      	movcs	ip, r0
  while (((USBx_INEP(epnum)->DTXFSTS & USB_OTG_DTXFSTS_INEPTFSAV) >= len32b) &&
 8003802:	fa1f fe82 	uxth.w	lr, r2
  len32b = (len + 3U) / 4U;
 8003806:	f10c 0c03 	add.w	ip, ip, #3
         (ep->xfer_count < ep->xfer_len) && (ep->xfer_len != 0U))
 800380a:	ebbe 0f9c 	cmp.w	lr, ip, lsr #2
 800380e:	f0c0 817c 	bcc.w	8003b0a <HAL_PCD_IRQHandler+0x87a>
 8003812:	9706      	str	r7, [sp, #24]
 8003814:	460f      	mov	r7, r1
 8003816:	e021      	b.n	800385c <HAL_PCD_IRQHandler+0x5cc>
  {
    /* Write the FIFO */
    len = ep->xfer_len - ep->xfer_count;
 8003818:	1aed      	subs	r5, r5, r3

    if (len > ep->maxpacket)
 800381a:	f8d8 301c 	ldr.w	r3, [r8, #28]
    {
      len = ep->maxpacket;
    }
    len32b = (len + 3U) / 4U;

    (void)USB_WritePacket(USBx, ep->xfer_buff, (uint8_t)epnum, (uint16_t)len,
 800381e:	f8d8 1020 	ldr.w	r1, [r8, #32]
    if (len > ep->maxpacket)
 8003822:	429d      	cmp	r5, r3
 8003824:	bf28      	it	cs
 8003826:	461d      	movcs	r5, r3
    (void)USB_WritePacket(USBx, ep->xfer_buff, (uint8_t)epnum, (uint16_t)len,
 8003828:	79a3      	ldrb	r3, [r4, #6]
 800382a:	9300      	str	r3, [sp, #0]
 800382c:	465a      	mov	r2, fp
 800382e:	b2ab      	uxth	r3, r5
 8003830:	4630      	mov	r0, r6
 8003832:	f001 fcc5 	bl	80051c0 <USB_WritePacket>
                          (uint8_t)hpcd->Init.dma_enable);

    ep->xfer_buff  += len;
 8003836:	f8d8 3020 	ldr.w	r3, [r8, #32]
  while (((USBx_INEP(epnum)->DTXFSTS & USB_OTG_DTXFSTS_INEPTFSAV) >= len32b) &&
 800383a:	69ba      	ldr	r2, [r7, #24]
    ep->xfer_buff  += len;
 800383c:	442b      	add	r3, r5
 800383e:	f8c8 3020 	str.w	r3, [r8, #32]
    ep->xfer_count += len;
 8003842:	f8d8 3028 	ldr.w	r3, [r8, #40]	@ 0x28
  while (((USBx_INEP(epnum)->DTXFSTS & USB_OTG_DTXFSTS_INEPTFSAV) >= len32b) &&
 8003846:	b292      	uxth	r2, r2
    ep->xfer_count += len;
 8003848:	442b      	add	r3, r5
    len32b = (len + 3U) / 4U;
 800384a:	3503      	adds	r5, #3
         (ep->xfer_count < ep->xfer_len) && (ep->xfer_len != 0U))
 800384c:	ebb2 0f95 	cmp.w	r2, r5, lsr #2
    ep->xfer_count += len;
 8003850:	f8c8 3028 	str.w	r3, [r8, #40]	@ 0x28
         (ep->xfer_count < ep->xfer_len) && (ep->xfer_len != 0U))
 8003854:	f0c0 8155 	bcc.w	8003b02 <HAL_PCD_IRQHandler+0x872>
  }

  if (ep->xfer_len <= ep->xfer_count)
 8003858:	f8d8 5024 	ldr.w	r5, [r8, #36]	@ 0x24
  while (((USBx_INEP(epnum)->DTXFSTS & USB_OTG_DTXFSTS_INEPTFSAV) >= len32b) &&
 800385c:	429d      	cmp	r5, r3
 800385e:	d8db      	bhi.n	8003818 <HAL_PCD_IRQHandler+0x588>
    if (__HAL_PCD_GET_FLAG(hpcd, USB_OTG_GINTSTS_WKUINT))
 8003860:	9f06      	ldr	r7, [sp, #24]
 8003862:	6826      	ldr	r6, [r4, #0]
  {
    fifoemptymsk = (uint32_t)(0x1UL << (epnum & EP_ADDR_MSK));
    USBx_DEVICE->DIEPEMPMSK &= ~fifoemptymsk;
 8003864:	9b07      	ldr	r3, [sp, #28]
    fifoemptymsk = (uint32_t)(0x1UL << (epnum & EP_ADDR_MSK));
 8003866:	f00a 050f 	and.w	r5, sl, #15
    USBx_DEVICE->DIEPEMPMSK &= ~fifoemptymsk;
 800386a:	f503 6100 	add.w	r1, r3, #2048	@ 0x800
    fifoemptymsk = (uint32_t)(0x1UL << (epnum & EP_ADDR_MSK));
 800386e:	2201      	movs	r2, #1
    USBx_DEVICE->DIEPEMPMSK &= ~fifoemptymsk;
 8003870:	f8d3 3834 	ldr.w	r3, [r3, #2100]	@ 0x834
    fifoemptymsk = (uint32_t)(0x1UL << (epnum & EP_ADDR_MSK));
 8003874:	40aa      	lsls	r2, r5
    USBx_DEVICE->DIEPEMPMSK &= ~fifoemptymsk;
 8003876:	ea23 0302 	bic.w	r3, r3, r2
 800387a:	634b      	str	r3, [r1, #52]	@ 0x34
 800387c:	e775      	b.n	800376a <HAL_PCD_IRQHandler+0x4da>
      ep_intr = USB_ReadDevAllOutEpInterrupt(hpcd->Instance);
 800387e:	f001 fd69 	bl	8005354 <USB_ReadDevAllOutEpInterrupt>
      while (ep_intr != 0U)
 8003882:	4607      	mov	r7, r0
 8003884:	6820      	ldr	r0, [r4, #0]
 8003886:	2f00      	cmp	r7, #0
 8003888:	f43f ad4a 	beq.w	8003320 <HAL_PCD_IRQHandler+0x90>
            CLEAR_OUT_EP_INTR(epnum, USB_OTG_DOEPINT_EPDISD);
 800388c:	9504      	str	r5, [sp, #16]
 800388e:	f506 6830 	add.w	r8, r6, #2816	@ 0xb00
 8003892:	46a3      	mov	fp, r4
      epnum = 0U;
 8003894:	f04f 0a00 	mov.w	sl, #0
            CLEAR_OUT_EP_INTR(epnum, USB_OTG_DOEPINT_EPDISD);
 8003898:	4625      	mov	r5, r4
 800389a:	e008      	b.n	80038ae <HAL_PCD_IRQHandler+0x61e>
      while (ep_intr != 0U)
 800389c:	087f      	lsrs	r7, r7, #1
        epnum++;
 800389e:	f10a 0a01 	add.w	sl, sl, #1
      while (ep_intr != 0U)
 80038a2:	f108 0820 	add.w	r8, r8, #32
 80038a6:	f10b 0b24 	add.w	fp, fp, #36	@ 0x24
 80038aa:	f000 809c 	beq.w	80039e6 <HAL_PCD_IRQHandler+0x756>
        if ((ep_intr & 0x1U) != 0U)
 80038ae:	07fc      	lsls	r4, r7, #31
 80038b0:	d5f4      	bpl.n	800389c <HAL_PCD_IRQHandler+0x60c>
          epint = USB_ReadDevOutEPInterrupt(hpcd->Instance, (uint8_t)epnum);
 80038b2:	fa5f f48a 	uxtb.w	r4, sl
 80038b6:	4621      	mov	r1, r4
 80038b8:	f001 fd5c 	bl	8005374 <USB_ReadDevOutEPInterrupt>
          if ((epint & USB_OTG_DOEPINT_XFRC) == USB_OTG_DOEPINT_XFRC)
 80038bc:	f010 0f01 	tst.w	r0, #1
          epint = USB_ReadDevOutEPInterrupt(hpcd->Instance, (uint8_t)epnum);
 80038c0:	4681      	mov	r9, r0
          if ((epint & USB_OTG_DOEPINT_XFRC) == USB_OTG_DOEPINT_XFRC)
 80038c2:	f040 80a8 	bne.w	8003a16 <HAL_PCD_IRQHandler+0x786>
          if ((epint & USB_OTG_DOEPINT_STUP) == USB_OTG_DOEPINT_STUP)
 80038c6:	f019 0f08 	tst.w	r9, #8
 80038ca:	f040 8093 	bne.w	80039f4 <HAL_PCD_IRQHandler+0x764>
          if ((epint & USB_OTG_DOEPINT_OTEPDIS) == USB_OTG_DOEPINT_OTEPDIS)
 80038ce:	f019 0f10 	tst.w	r9, #16
            CLEAR_OUT_EP_INTR(epnum, USB_OTG_DOEPINT_OTEPDIS);
 80038d2:	bf1c      	itt	ne
 80038d4:	2210      	movne	r2, #16
 80038d6:	f8c8 2008 	strne.w	r2, [r8, #8]
          if ((epint & USB_OTG_DOEPINT_EPDISD) == USB_OTG_DOEPINT_EPDISD)
 80038da:	f019 0f02 	tst.w	r9, #2
 80038de:	d00f      	beq.n	8003900 <HAL_PCD_IRQHandler+0x670>
            if ((USBx->GINTSTS & USB_OTG_GINTSTS_BOUTNAKEFF) == USB_OTG_GINTSTS_BOUTNAKEFF)
 80038e0:	6972      	ldr	r2, [r6, #20]
 80038e2:	0610      	lsls	r0, r2, #24
 80038e4:	d504      	bpl.n	80038f0 <HAL_PCD_IRQHandler+0x660>
              USBx_DEVICE->DCTL |= USB_OTG_DCTL_CGONAK;
 80038e6:	9b03      	ldr	r3, [sp, #12]
 80038e8:	685a      	ldr	r2, [r3, #4]
 80038ea:	f442 6280 	orr.w	r2, r2, #1024	@ 0x400
 80038ee:	605a      	str	r2, [r3, #4]
            if (ep->is_iso_incomplete == 1U)
 80038f0:	f89b 2257 	ldrb.w	r2, [fp, #599]	@ 0x257
 80038f4:	2a01      	cmp	r2, #1
 80038f6:	f000 812d 	beq.w	8003b54 <HAL_PCD_IRQHandler+0x8c4>
            CLEAR_OUT_EP_INTR(epnum, USB_OTG_DOEPINT_EPDISD);
 80038fa:	2302      	movs	r3, #2
 80038fc:	f8c8 3008 	str.w	r3, [r8, #8]
          if ((epint & USB_OTG_DOEPINT_OTEPSPR) == USB_OTG_DOEPINT_OTEPSPR)
 8003900:	f019 0f20 	tst.w	r9, #32
            CLEAR_OUT_EP_INTR(epnum, USB_OTG_DOEPINT_OTEPSPR);
 8003904:	bf1c      	itt	ne
 8003906:	2320      	movne	r3, #32
 8003908:	f8c8 3008 	strne.w	r3, [r8, #8]
          if ((epint & USB_OTG_DOEPINT_NAK) == USB_OTG_DOEPINT_NAK)
 800390c:	f419 5f00 	tst.w	r9, #8192	@ 0x2000
            CLEAR_OUT_EP_INTR(epnum, USB_OTG_DOEPINT_NAK);
 8003910:	bf18      	it	ne
 8003912:	f44f 5300 	movne.w	r3, #8192	@ 0x2000
 8003916:	6828      	ldr	r0, [r5, #0]
 8003918:	bf18      	it	ne
 800391a:	f8c8 3008 	strne.w	r3, [r8, #8]
 800391e:	e7bd      	b.n	800389c <HAL_PCD_IRQHandler+0x60c>
        USBx_DEVICE->DOUTEP1MSK |= USB_OTG_DOEPMSK_STUPM |
 8003920:	f8d2 3084 	ldr.w	r3, [r2, #132]	@ 0x84
 8003924:	f043 030b 	orr.w	r3, r3, #11
 8003928:	f8c2 3084 	str.w	r3, [r2, #132]	@ 0x84
        USBx_DEVICE->DINEP1MSK |= USB_OTG_DIEPMSK_TOM |
 800392c:	6c53      	ldr	r3, [r2, #68]	@ 0x44
 800392e:	f043 030b 	orr.w	r3, r3, #11
 8003932:	6453      	str	r3, [r2, #68]	@ 0x44
 8003934:	e6e3      	b.n	80036fe <HAL_PCD_IRQHandler+0x46e>
        if ((hpcd->IN_ep[epnum].type == EP_TYPE_ISOC) &&
 8003936:	2900      	cmp	r1, #0
 8003938:	f6bf ad9e 	bge.w	8003478 <HAL_PCD_IRQHandler+0x1e8>
  ret = USB_EPStopXfer(hpcd->Instance, ep);
 800393c:	6820      	ldr	r0, [r4, #0]
          hpcd->IN_ep[epnum].is_iso_incomplete = 1U;
 800393e:	f884 203b 	strb.w	r2, [r4, #59]	@ 0x3b
  ret = USB_EPStopXfer(hpcd->Instance, ep);
 8003942:	f104 0138 	add.w	r1, r4, #56	@ 0x38
 8003946:	f001 fbf1 	bl	800512c <USB_EPStopXfer>
      for (epnum = 1U; epnum < hpcd->Init.dev_endpoints; epnum++)
 800394a:	7923      	ldrb	r3, [r4, #4]
 800394c:	e594      	b.n	8003478 <HAL_PCD_IRQHandler+0x1e8>
        hpcd->LPM_State = LPM_L0;
 800394e:	2100      	movs	r1, #0
 8003950:	f884 14cc 	strb.w	r1, [r4, #1228]	@ 0x4cc
        HAL_PCDEx_LPM_Callback(hpcd, PCD_LPM_L0_ACTIVE);
 8003954:	4620      	mov	r0, r4
 8003956:	f000 fbef 	bl	8004138 <HAL_PCDEx_LPM_Callback>
 800395a:	e679      	b.n	8003650 <HAL_PCD_IRQHandler+0x3c0>
        if ((hpcd->IN_ep[epnum].type == EP_TYPE_ISOC) &&
 800395c:	2900      	cmp	r1, #0
 800395e:	f6bf ad94 	bge.w	800348a <HAL_PCD_IRQHandler+0x1fa>
  ret = USB_EPStopXfer(hpcd->Instance, ep);
 8003962:	6820      	ldr	r0, [r4, #0]
          hpcd->IN_ep[epnum].is_iso_incomplete = 1U;
 8003964:	f884 205f 	strb.w	r2, [r4, #95]	@ 0x5f
  ret = USB_EPStopXfer(hpcd->Instance, ep);
 8003968:	f104 015c 	add.w	r1, r4, #92	@ 0x5c
 800396c:	f001 fbde 	bl	800512c <USB_EPStopXfer>
      for (epnum = 1U; epnum < hpcd->Init.dev_endpoints; epnum++)
 8003970:	7923      	ldrb	r3, [r4, #4]
 8003972:	e58a      	b.n	800348a <HAL_PCD_IRQHandler+0x1fa>
        if ((hpcd->IN_ep[epnum].type == EP_TYPE_ISOC) &&
 8003974:	2900      	cmp	r1, #0
 8003976:	f6bf ad91 	bge.w	800349c <HAL_PCD_IRQHandler+0x20c>
  ret = USB_EPStopXfer(hpcd->Instance, ep);
 800397a:	6820      	ldr	r0, [r4, #0]
          hpcd->IN_ep[epnum].is_iso_incomplete = 1U;
 800397c:	f884 2083 	strb.w	r2, [r4, #131]	@ 0x83
  ret = USB_EPStopXfer(hpcd->Instance, ep);
 8003980:	f104 0180 	add.w	r1, r4, #128	@ 0x80
 8003984:	f001 fbd2 	bl	800512c <USB_EPStopXfer>
      for (epnum = 1U; epnum < hpcd->Init.dev_endpoints; epnum++)
 8003988:	7923      	ldrb	r3, [r4, #4]
 800398a:	e587      	b.n	800349c <HAL_PCD_IRQHandler+0x20c>
        if ((hpcd->IN_ep[epnum].type == EP_TYPE_ISOC) &&
 800398c:	2900      	cmp	r1, #0
 800398e:	f6bf ad8e 	bge.w	80034ae <HAL_PCD_IRQHandler+0x21e>
  ret = USB_EPStopXfer(hpcd->Instance, ep);
 8003992:	6820      	ldr	r0, [r4, #0]
          hpcd->IN_ep[epnum].is_iso_incomplete = 1U;
 8003994:	f884 20a7 	strb.w	r2, [r4, #167]	@ 0xa7
  ret = USB_EPStopXfer(hpcd->Instance, ep);
 8003998:	f104 01a4 	add.w	r1, r4, #164	@ 0xa4
 800399c:	f001 fbc6 	bl	800512c <USB_EPStopXfer>
      for (epnum = 1U; epnum < hpcd->Init.dev_endpoints; epnum++)
 80039a0:	7923      	ldrb	r3, [r4, #4]
 80039a2:	e584      	b.n	80034ae <HAL_PCD_IRQHandler+0x21e>
  ret = USB_EPStopXfer(hpcd->Instance, ep);
 80039a4:	6820      	ldr	r0, [r4, #0]
 80039a6:	f504 7130 	add.w	r1, r4, #704	@ 0x2c0
 80039aa:	f001 fbbf 	bl	800512c <USB_EPStopXfer>
      for (epnum = 1U; epnum < hpcd->Init.dev_endpoints; epnum++)
 80039ae:	7923      	ldrb	r3, [r4, #4]
 80039b0:	e4f9      	b.n	80033a6 <HAL_PCD_IRQHandler+0x116>
        (void)USB_ReadPacket(USBx, (uint8_t *)hpcd->Setup, 8U);
 80039b2:	2208      	movs	r2, #8
 80039b4:	f204 419c 	addw	r1, r4, #1180	@ 0x49c
 80039b8:	4630      	mov	r0, r6
        ep->xfer_count += (RegVal & USB_OTG_GRXSTSP_BCNT) >> 4;
 80039ba:	eb08 08c8 	add.w	r8, r8, r8, lsl #3
        (void)USB_ReadPacket(USBx, (uint8_t *)hpcd->Setup, 8U);
 80039be:	f001 fc15 	bl	80051ec <USB_ReadPacket>
        ep->xfer_count += (RegVal & USB_OTG_GRXSTSP_BCNT) >> 4;
 80039c2:	eb04 0288 	add.w	r2, r4, r8, lsl #2
 80039c6:	f3c7 130a 	ubfx	r3, r7, #4, #11
 80039ca:	f8d2 1268 	ldr.w	r1, [r2, #616]	@ 0x268
      USB_UNMASK_INTERRUPT(hpcd->Instance, USB_OTG_GINTSTS_RXFLVL);
 80039ce:	6820      	ldr	r0, [r4, #0]
        ep->xfer_count += (RegVal & USB_OTG_GRXSTSP_BCNT) >> 4;
 80039d0:	440b      	add	r3, r1
 80039d2:	f8c2 3268 	str.w	r3, [r2, #616]	@ 0x268
 80039d6:	e498      	b.n	800330a <HAL_PCD_IRQHandler+0x7a>
  ret = USB_EPStopXfer(hpcd->Instance, ep);
 80039d8:	6820      	ldr	r0, [r4, #0]
 80039da:	f504 7139 	add.w	r1, r4, #740	@ 0x2e4
 80039de:	f001 fba5 	bl	800512c <USB_EPStopXfer>
      for (epnum = 1U; epnum < hpcd->Init.dev_endpoints; epnum++)
 80039e2:	7923      	ldrb	r3, [r4, #4]
 80039e4:	e4e6      	b.n	80033b4 <HAL_PCD_IRQHandler+0x124>
 80039e6:	462c      	mov	r4, r5
 80039e8:	9d04      	ldr	r5, [sp, #16]
 80039ea:	e499      	b.n	8003320 <HAL_PCD_IRQHandler+0x90>
 80039ec:	4630      	mov	r0, r6
 80039ee:	9d05      	ldr	r5, [sp, #20]
 80039f0:	9e04      	ldr	r6, [sp, #16]
 80039f2:	e49b      	b.n	800332c <HAL_PCD_IRQHandler+0x9c>
  * @param  epnum endpoint number
  * @retval HAL status
  */
static HAL_StatusTypeDef PCD_EP_OutSetupPacket_int(PCD_HandleTypeDef *hpcd, uint32_t epnum)
{
  const USB_OTG_GlobalTypeDef *USBx = hpcd->Instance;
 80039f4:	6829      	ldr	r1, [r5, #0]
            CLEAR_OUT_EP_INTR(epnum, USB_OTG_DOEPINT_STUP);
 80039f6:	2208      	movs	r2, #8
 80039f8:	f8c8 2008 	str.w	r2, [r8, #8]
  uint32_t USBx_BASE = (uint32_t)USBx;
  uint32_t gSNPSiD = *(__IO const uint32_t *)(&USBx->CID + 0x1U);
 80039fc:	6c08      	ldr	r0, [r1, #64]	@ 0x40
  uint32_t DoepintReg = USBx_OUTEP(epnum)->DOEPINT;
 80039fe:	f501 6230 	add.w	r2, r1, #2816	@ 0xb00

  if ((gSNPSiD > USB_OTG_CORE_ID_300A) &&
 8003a02:	49be      	ldr	r1, [pc, #760]	@ (8003cfc <HAL_PCD_IRQHandler+0xa6c>)
  uint32_t DoepintReg = USBx_OUTEP(epnum)->DOEPINT;
 8003a04:	eb02 124a 	add.w	r2, r2, sl, lsl #5
  if ((gSNPSiD > USB_OTG_CORE_ID_300A) &&
 8003a08:	4288      	cmp	r0, r1
  uint32_t DoepintReg = USBx_OUTEP(epnum)->DOEPINT;
 8003a0a:	6893      	ldr	r3, [r2, #8]
  if ((gSNPSiD > USB_OTG_CORE_ID_300A) &&
 8003a0c:	d867      	bhi.n	8003ade <HAL_PCD_IRQHandler+0x84e>

  /* Inform the upper layer that a setup packet is available */
#if (USE_HAL_PCD_REGISTER_CALLBACKS == 1U)
  hpcd->SetupStageCallback(hpcd);
#else
  HAL_PCD_SetupStageCallback(hpcd);
 8003a0e:	4628      	mov	r0, r5
 8003a10:	f002 fda2 	bl	8006558 <HAL_PCD_SetupStageCallback>
#endif /* USE_HAL_PCD_REGISTER_CALLBACKS */

  if ((gSNPSiD > USB_OTG_CORE_ID_300A) && (hpcd->Init.dma_enable == 1U))
 8003a14:	e75b      	b.n	80038ce <HAL_PCD_IRQHandler+0x63e>
  const USB_OTG_GlobalTypeDef *USBx = hpcd->Instance;
 8003a16:	6828      	ldr	r0, [r5, #0]
            CLEAR_OUT_EP_INTR(epnum, USB_OTG_DOEPINT_XFRC);
 8003a18:	2201      	movs	r2, #1
 8003a1a:	f8c8 2008 	str.w	r2, [r8, #8]
  if (hpcd->Init.dma_enable == 1U)
 8003a1e:	79a9      	ldrb	r1, [r5, #6]
  uint32_t gSNPSiD = *(__IO const uint32_t *)(&USBx->CID + 0x1U);
 8003a20:	f8d0 e040 	ldr.w	lr, [r0, #64]	@ 0x40
  uint32_t DoepintReg = USBx_OUTEP(epnum)->DOEPINT;
 8003a24:	f500 6230 	add.w	r2, r0, #2816	@ 0xb00
 8003a28:	eb02 124a 	add.w	r2, r2, sl, lsl #5
  if (hpcd->Init.dma_enable == 1U)
 8003a2c:	2901      	cmp	r1, #1
  uint32_t DoepintReg = USBx_OUTEP(epnum)->DOEPINT;
 8003a2e:	6893      	ldr	r3, [r2, #8]
  if (hpcd->Init.dma_enable == 1U)
 8003a30:	d06f      	beq.n	8003b12 <HAL_PCD_IRQHandler+0x882>
    if (gSNPSiD == USB_OTG_CORE_ID_310A)
 8003a32:	49b3      	ldr	r1, [pc, #716]	@ (8003d00 <HAL_PCD_IRQHandler+0xa70>)
 8003a34:	458e      	cmp	lr, r1
 8003a36:	f000 80c0 	beq.w	8003bba <HAL_PCD_IRQHandler+0x92a>
      if ((epnum == 0U) && (hpcd->OUT_ep[epnum].xfer_len == 0U))
 8003a3a:	f1ba 0f00 	cmp.w	sl, #0
 8003a3e:	d104      	bne.n	8003a4a <HAL_PCD_IRQHandler+0x7ba>
 8003a40:	f8d5 2264 	ldr.w	r2, [r5, #612]	@ 0x264
 8003a44:	2a00      	cmp	r2, #0
 8003a46:	f000 8188 	beq.w	8003d5a <HAL_PCD_IRQHandler+0xaca>
      HAL_PCD_DataOutStageCallback(hpcd, (uint8_t)epnum);
 8003a4a:	4621      	mov	r1, r4
 8003a4c:	4628      	mov	r0, r5
 8003a4e:	f002 fd89 	bl	8006564 <HAL_PCD_DataOutStageCallback>
 8003a52:	e738      	b.n	80038c6 <HAL_PCD_IRQHandler+0x636>
            (void)USB_FlushTxFifo(USBx, epnum);
 8003a54:	9804      	ldr	r0, [sp, #16]
 8003a56:	4651      	mov	r1, sl
 8003a58:	f001 f974 	bl	8004d44 <USB_FlushTxFifo>
            if (ep->is_iso_incomplete == 1U)
 8003a5c:	f898 3017 	ldrb.w	r3, [r8, #23]
 8003a60:	2b01      	cmp	r3, #1
 8003a62:	f000 80be 	beq.w	8003be2 <HAL_PCD_IRQHandler+0x952>
            CLEAR_IN_EP_INTR(epnum, USB_OTG_DIEPINT_EPDISD);
 8003a66:	2302      	movs	r3, #2
 8003a68:	60bb      	str	r3, [r7, #8]
 8003a6a:	e6b6      	b.n	80037da <HAL_PCD_IRQHandler+0x54a>
        if ((RegVal & USB_OTG_GRXSTSP_BCNT) != 0U)
 8003a6c:	f647 73f0 	movw	r3, #32752	@ 0x7ff0
 8003a70:	421f      	tst	r7, r3
 8003a72:	f43f ac4a 	beq.w	800330a <HAL_PCD_IRQHandler+0x7a>
          (void)USB_ReadPacket(USBx, ep->xfer_buff,
 8003a76:	eb08 08c8 	add.w	r8, r8, r8, lsl #3
 8003a7a:	eb04 0888 	add.w	r8, r4, r8, lsl #2
 8003a7e:	f3c7 120a 	ubfx	r2, r7, #4, #11
 8003a82:	f8d8 1260 	ldr.w	r1, [r8, #608]	@ 0x260
 8003a86:	4630      	mov	r0, r6
 8003a88:	4617      	mov	r7, r2
 8003a8a:	f001 fbaf 	bl	80051ec <USB_ReadPacket>
          ep->xfer_buff += (RegVal & USB_OTG_GRXSTSP_BCNT) >> 4;
 8003a8e:	f8d8 3260 	ldr.w	r3, [r8, #608]	@ 0x260
      USB_UNMASK_INTERRUPT(hpcd->Instance, USB_OTG_GINTSTS_RXFLVL);
 8003a92:	6820      	ldr	r0, [r4, #0]
          ep->xfer_buff += (RegVal & USB_OTG_GRXSTSP_BCNT) >> 4;
 8003a94:	443b      	add	r3, r7
 8003a96:	f8c8 3260 	str.w	r3, [r8, #608]	@ 0x260
          ep->xfer_count += (RegVal & USB_OTG_GRXSTSP_BCNT) >> 4;
 8003a9a:	f8d8 3268 	ldr.w	r3, [r8, #616]	@ 0x268
 8003a9e:	443b      	add	r3, r7
 8003aa0:	f8c8 3268 	str.w	r3, [r8, #616]	@ 0x268
 8003aa4:	e431      	b.n	800330a <HAL_PCD_IRQHandler+0x7a>
        HAL_PCD_SuspendCallback(hpcd);
 8003aa6:	4620      	mov	r0, r4
 8003aa8:	f002 fd8a 	bl	80065c0 <HAL_PCD_SuspendCallback>
 8003aac:	e58b      	b.n	80035c6 <HAL_PCD_IRQHandler+0x336>
        HAL_PCD_DisconnectCallback(hpcd);
 8003aae:	4620      	mov	r0, r4
 8003ab0:	f002 fdae 	bl	8006610 <HAL_PCD_DisconnectCallback>
      hpcd->Instance->GOTGINT |= RegVal;
 8003ab4:	6823      	ldr	r3, [r4, #0]
 8003ab6:	e57b      	b.n	80035b0 <HAL_PCD_IRQHandler+0x320>
              hpcd->IN_ep[epnum].xfer_buff += hpcd->IN_ep[epnum].maxpacket;
 8003ab8:	e9d8 2307 	ldrd	r2, r3, [r8, #28]
 8003abc:	4413      	add	r3, r2
 8003abe:	f8c8 3020 	str.w	r3, [r8, #32]
              if ((epnum == 0U) && (hpcd->IN_ep[epnum].xfer_len == 0U))
 8003ac2:	f1ba 0f00 	cmp.w	sl, #0
 8003ac6:	f47f ae75 	bne.w	80037b4 <HAL_PCD_IRQHandler+0x524>
 8003aca:	6a63      	ldr	r3, [r4, #36]	@ 0x24
 8003acc:	2b00      	cmp	r3, #0
 8003ace:	f47f ae71 	bne.w	80037b4 <HAL_PCD_IRQHandler+0x524>
                (void)USB_EP0_OutStart(hpcd->Instance, 1U, (uint8_t *)hpcd->Setup);
 8003ad2:	6820      	ldr	r0, [r4, #0]
 8003ad4:	f204 429c 	addw	r2, r4, #1180	@ 0x49c
 8003ad8:	f001 fc7a 	bl	80053d0 <USB_EP0_OutStart>
 8003adc:	e66a      	b.n	80037b4 <HAL_PCD_IRQHandler+0x524>
  if ((gSNPSiD > USB_OTG_CORE_ID_300A) &&
 8003ade:	041b      	lsls	r3, r3, #16
    CLEAR_OUT_EP_INTR(epnum, USB_OTG_DOEPINT_STPKTRX);
 8003ae0:	bf44      	itt	mi
 8003ae2:	f44f 4100 	movmi.w	r1, #32768	@ 0x8000
 8003ae6:	6091      	strmi	r1, [r2, #8]
  HAL_PCD_SetupStageCallback(hpcd);
 8003ae8:	4628      	mov	r0, r5
 8003aea:	f002 fd35 	bl	8006558 <HAL_PCD_SetupStageCallback>
  if ((gSNPSiD > USB_OTG_CORE_ID_300A) && (hpcd->Init.dma_enable == 1U))
 8003aee:	79a9      	ldrb	r1, [r5, #6]
 8003af0:	2901      	cmp	r1, #1
 8003af2:	f47f aeec 	bne.w	80038ce <HAL_PCD_IRQHandler+0x63e>
  {
    (void)USB_EP0_OutStart(hpcd->Instance, 1U, (uint8_t *)hpcd->Setup);
 8003af6:	6828      	ldr	r0, [r5, #0]
 8003af8:	f205 429c 	addw	r2, r5, #1180	@ 0x49c
 8003afc:	f001 fc68 	bl	80053d0 <USB_EP0_OutStart>
 8003b00:	e6e5      	b.n	80038ce <HAL_PCD_IRQHandler+0x63e>
  if (ep->xfer_len <= ep->xfer_count)
 8003b02:	9f06      	ldr	r7, [sp, #24]
 8003b04:	f8d8 5024 	ldr.w	r5, [r8, #36]	@ 0x24
    if (__HAL_PCD_GET_FLAG(hpcd, USB_OTG_GINTSTS_WKUINT))
 8003b08:	6826      	ldr	r6, [r4, #0]
  if (ep->xfer_len <= ep->xfer_count)
 8003b0a:	429d      	cmp	r5, r3
 8003b0c:	f63f ae2d 	bhi.w	800376a <HAL_PCD_IRQHandler+0x4da>
 8003b10:	e6a8      	b.n	8003864 <HAL_PCD_IRQHandler+0x5d4>
    if ((DoepintReg & USB_OTG_DOEPINT_STUP) == USB_OTG_DOEPINT_STUP) /* Class C */
 8003b12:	0719      	lsls	r1, r3, #28
 8003b14:	f140 8089 	bpl.w	8003c2a <HAL_PCD_IRQHandler+0x99a>
      if ((gSNPSiD > USB_OTG_CORE_ID_300A) &&
 8003b18:	4978      	ldr	r1, [pc, #480]	@ (8003cfc <HAL_PCD_IRQHandler+0xa6c>)
 8003b1a:	458e      	cmp	lr, r1
 8003b1c:	f67f aed3 	bls.w	80038c6 <HAL_PCD_IRQHandler+0x636>
 8003b20:	0418      	lsls	r0, r3, #16
 8003b22:	f57f aed0 	bpl.w	80038c6 <HAL_PCD_IRQHandler+0x636>
        CLEAR_OUT_EP_INTR(epnum, USB_OTG_DOEPINT_STPKTRX);
 8003b26:	f44f 4100 	mov.w	r1, #32768	@ 0x8000
 8003b2a:	6091      	str	r1, [r2, #8]
 8003b2c:	e6cb      	b.n	80038c6 <HAL_PCD_IRQHandler+0x636>
        if ((hpcd->IN_ep[epnum].type == EP_TYPE_ISOC) &&
 8003b2e:	2900      	cmp	r1, #0
 8003b30:	f6bf acc6 	bge.w	80034c0 <HAL_PCD_IRQHandler+0x230>
  ret = USB_EPStopXfer(hpcd->Instance, ep);
 8003b34:	6820      	ldr	r0, [r4, #0]
          hpcd->IN_ep[epnum].is_iso_incomplete = 1U;
 8003b36:	f884 20cb 	strb.w	r2, [r4, #203]	@ 0xcb
  ret = USB_EPStopXfer(hpcd->Instance, ep);
 8003b3a:	f104 01c8 	add.w	r1, r4, #200	@ 0xc8
 8003b3e:	f001 faf5 	bl	800512c <USB_EPStopXfer>
      for (epnum = 1U; epnum < hpcd->Init.dev_endpoints; epnum++)
 8003b42:	7923      	ldrb	r3, [r4, #4]
 8003b44:	e4bc      	b.n	80034c0 <HAL_PCD_IRQHandler+0x230>
  ret = USB_EPStopXfer(hpcd->Instance, ep);
 8003b46:	6820      	ldr	r0, [r4, #0]
 8003b48:	f504 711e 	add.w	r1, r4, #632	@ 0x278
 8003b4c:	f001 faee 	bl	800512c <USB_EPStopXfer>
      for (epnum = 1U; epnum < hpcd->Init.dev_endpoints; epnum++)
 8003b50:	7923      	ldrb	r3, [r4, #4]
 8003b52:	e41a      	b.n	800338a <HAL_PCD_IRQHandler+0xfa>
              ep->is_iso_incomplete = 0U;
 8003b54:	2200      	movs	r2, #0
              HAL_PCD_ISOOUTIncompleteCallback(hpcd, (uint8_t)epnum);
 8003b56:	4621      	mov	r1, r4
              ep->is_iso_incomplete = 0U;
 8003b58:	f88b 2257 	strb.w	r2, [fp, #599]	@ 0x257
              HAL_PCD_ISOOUTIncompleteCallback(hpcd, (uint8_t)epnum);
 8003b5c:	4628      	mov	r0, r5
 8003b5e:	f002 fd4b 	bl	80065f8 <HAL_PCD_ISOOUTIncompleteCallback>
 8003b62:	e6ca      	b.n	80038fa <HAL_PCD_IRQHandler+0x66a>
        if ((hpcd->IN_ep[epnum].type == EP_TYPE_ISOC) &&
 8003b64:	2900      	cmp	r1, #0
 8003b66:	f6bf acb4 	bge.w	80034d2 <HAL_PCD_IRQHandler+0x242>
  ret = USB_EPStopXfer(hpcd->Instance, ep);
 8003b6a:	6820      	ldr	r0, [r4, #0]
          hpcd->IN_ep[epnum].is_iso_incomplete = 1U;
 8003b6c:	f884 20ef 	strb.w	r2, [r4, #239]	@ 0xef
  ret = USB_EPStopXfer(hpcd->Instance, ep);
 8003b70:	f104 01ec 	add.w	r1, r4, #236	@ 0xec
 8003b74:	f001 fada 	bl	800512c <USB_EPStopXfer>
      for (epnum = 1U; epnum < hpcd->Init.dev_endpoints; epnum++)
 8003b78:	7923      	ldrb	r3, [r4, #4]
 8003b7a:	e4aa      	b.n	80034d2 <HAL_PCD_IRQHandler+0x242>
  ret = USB_EPStopXfer(hpcd->Instance, ep);
 8003b7c:	6820      	ldr	r0, [r4, #0]
 8003b7e:	f504 7127 	add.w	r1, r4, #668	@ 0x29c
 8003b82:	f001 fad3 	bl	800512c <USB_EPStopXfer>
      for (epnum = 1U; epnum < hpcd->Init.dev_endpoints; epnum++)
 8003b86:	7923      	ldrb	r3, [r4, #4]
 8003b88:	e406      	b.n	8003398 <HAL_PCD_IRQHandler+0x108>
        if ((hpcd->IN_ep[epnum].type == EP_TYPE_ISOC) &&
 8003b8a:	2900      	cmp	r1, #0
 8003b8c:	f6bf acaa 	bge.w	80034e4 <HAL_PCD_IRQHandler+0x254>
  ret = USB_EPStopXfer(hpcd->Instance, ep);
 8003b90:	6820      	ldr	r0, [r4, #0]
          hpcd->IN_ep[epnum].is_iso_incomplete = 1U;
 8003b92:	f884 2113 	strb.w	r2, [r4, #275]	@ 0x113
  ret = USB_EPStopXfer(hpcd->Instance, ep);
 8003b96:	f504 7188 	add.w	r1, r4, #272	@ 0x110
 8003b9a:	f001 fac7 	bl	800512c <USB_EPStopXfer>
      for (epnum = 1U; epnum < hpcd->Init.dev_endpoints; epnum++)
 8003b9e:	7923      	ldrb	r3, [r4, #4]
 8003ba0:	e4a0      	b.n	80034e4 <HAL_PCD_IRQHandler+0x254>
        if ((hpcd->IN_ep[epnum].type == EP_TYPE_ISOC) &&
 8003ba2:	2900      	cmp	r1, #0
 8003ba4:	f6bf aca7 	bge.w	80034f6 <HAL_PCD_IRQHandler+0x266>
  ret = USB_EPStopXfer(hpcd->Instance, ep);
 8003ba8:	6820      	ldr	r0, [r4, #0]
          hpcd->IN_ep[epnum].is_iso_incomplete = 1U;
 8003baa:	f884 2137 	strb.w	r2, [r4, #311]	@ 0x137
  ret = USB_EPStopXfer(hpcd->Instance, ep);
 8003bae:	f504 719a 	add.w	r1, r4, #308	@ 0x134
 8003bb2:	f001 fabb 	bl	800512c <USB_EPStopXfer>
      for (epnum = 1U; epnum < hpcd->Init.dev_endpoints; epnum++)
 8003bb6:	7923      	ldrb	r3, [r4, #4]
 8003bb8:	e49d      	b.n	80034f6 <HAL_PCD_IRQHandler+0x266>
      if ((DoepintReg & USB_OTG_DOEPINT_STPKTRX) == USB_OTG_DOEPINT_STPKTRX)
 8003bba:	0418      	lsls	r0, r3, #16
 8003bbc:	d4b3      	bmi.n	8003b26 <HAL_PCD_IRQHandler+0x896>
        if ((DoepintReg & USB_OTG_DOEPINT_OTEPSPR) == USB_OTG_DOEPINT_OTEPSPR)
 8003bbe:	0699      	lsls	r1, r3, #26
 8003bc0:	f57f af43 	bpl.w	8003a4a <HAL_PCD_IRQHandler+0x7ba>
          CLEAR_OUT_EP_INTR(epnum, USB_OTG_DOEPINT_OTEPSPR);
 8003bc4:	2120      	movs	r1, #32
 8003bc6:	6091      	str	r1, [r2, #8]
        HAL_PCD_DataOutStageCallback(hpcd, (uint8_t)epnum);
 8003bc8:	e73f      	b.n	8003a4a <HAL_PCD_IRQHandler+0x7ba>
        if ((hpcd->IN_ep[epnum].type == EP_TYPE_ISOC) &&
 8003bca:	2900      	cmp	r1, #0
 8003bcc:	f6bf ac9c 	bge.w	8003508 <HAL_PCD_IRQHandler+0x278>
  ret = USB_EPStopXfer(hpcd->Instance, ep);
 8003bd0:	6820      	ldr	r0, [r4, #0]
          hpcd->IN_ep[epnum].is_iso_incomplete = 1U;
 8003bd2:	f884 215b 	strb.w	r2, [r4, #347]	@ 0x15b
  ret = USB_EPStopXfer(hpcd->Instance, ep);
 8003bd6:	f504 71ac 	add.w	r1, r4, #344	@ 0x158
 8003bda:	f001 faa7 	bl	800512c <USB_EPStopXfer>
      for (epnum = 1U; epnum < hpcd->Init.dev_endpoints; epnum++)
 8003bde:	7923      	ldrb	r3, [r4, #4]
 8003be0:	e492      	b.n	8003508 <HAL_PCD_IRQHandler+0x278>
              ep->is_iso_incomplete = 0U;
 8003be2:	2300      	movs	r3, #0
 8003be4:	f888 3017 	strb.w	r3, [r8, #23]
              HAL_PCD_ISOINIncompleteCallback(hpcd, (uint8_t)epnum);
 8003be8:	4659      	mov	r1, fp
 8003bea:	4620      	mov	r0, r4
 8003bec:	f002 fd08 	bl	8006600 <HAL_PCD_ISOINIncompleteCallback>
 8003bf0:	e739      	b.n	8003a66 <HAL_PCD_IRQHandler+0x7d6>
  ret = USB_EPStopXfer(hpcd->Instance, ep);
 8003bf2:	6820      	ldr	r0, [r4, #0]
 8003bf4:	f504 7142 	add.w	r1, r4, #776	@ 0x308
 8003bf8:	f001 fa98 	bl	800512c <USB_EPStopXfer>
      for (epnum = 1U; epnum < hpcd->Init.dev_endpoints; epnum++)
 8003bfc:	7923      	ldrb	r3, [r4, #4]
 8003bfe:	f7ff bbe0 	b.w	80033c2 <HAL_PCD_IRQHandler+0x132>
        if ((hpcd->IN_ep[epnum].type == EP_TYPE_ISOC) &&
 8003c02:	2900      	cmp	r1, #0
 8003c04:	f6bf ac89 	bge.w	800351a <HAL_PCD_IRQHandler+0x28a>
  ret = USB_EPStopXfer(hpcd->Instance, ep);
 8003c08:	6820      	ldr	r0, [r4, #0]
          hpcd->IN_ep[epnum].is_iso_incomplete = 1U;
 8003c0a:	f884 217f 	strb.w	r2, [r4, #383]	@ 0x17f
  ret = USB_EPStopXfer(hpcd->Instance, ep);
 8003c0e:	f504 71be 	add.w	r1, r4, #380	@ 0x17c
 8003c12:	f001 fa8b 	bl	800512c <USB_EPStopXfer>
      for (epnum = 1U; epnum < hpcd->Init.dev_endpoints; epnum++)
 8003c16:	7923      	ldrb	r3, [r4, #4]
 8003c18:	e47f      	b.n	800351a <HAL_PCD_IRQHandler+0x28a>
  ret = USB_EPStopXfer(hpcd->Instance, ep);
 8003c1a:	6820      	ldr	r0, [r4, #0]
 8003c1c:	f504 714b 	add.w	r1, r4, #812	@ 0x32c
 8003c20:	f001 fa84 	bl	800512c <USB_EPStopXfer>
      for (epnum = 1U; epnum < hpcd->Init.dev_endpoints; epnum++)
 8003c24:	7923      	ldrb	r3, [r4, #4]
 8003c26:	f7ff bbd3 	b.w	80033d0 <HAL_PCD_IRQHandler+0x140>
    else if ((DoepintReg & USB_OTG_DOEPINT_OTEPSPR) == USB_OTG_DOEPINT_OTEPSPR) /* Class E */
 8003c2a:	0699      	lsls	r1, r3, #26
 8003c2c:	d572      	bpl.n	8003d14 <HAL_PCD_IRQHandler+0xa84>
      CLEAR_OUT_EP_INTR(epnum, USB_OTG_DOEPINT_OTEPSPR);
 8003c2e:	2120      	movs	r1, #32
 8003c30:	6091      	str	r1, [r2, #8]
 8003c32:	e648      	b.n	80038c6 <HAL_PCD_IRQHandler+0x636>
        if ((hpcd->IN_ep[epnum].type == EP_TYPE_ISOC) &&
 8003c34:	2900      	cmp	r1, #0
 8003c36:	f6bf ac79 	bge.w	800352c <HAL_PCD_IRQHandler+0x29c>
  ret = USB_EPStopXfer(hpcd->Instance, ep);
 8003c3a:	6820      	ldr	r0, [r4, #0]
          hpcd->IN_ep[epnum].is_iso_incomplete = 1U;
 8003c3c:	f884 21a3 	strb.w	r2, [r4, #419]	@ 0x1a3
  ret = USB_EPStopXfer(hpcd->Instance, ep);
 8003c40:	f504 71d0 	add.w	r1, r4, #416	@ 0x1a0
 8003c44:	f001 fa72 	bl	800512c <USB_EPStopXfer>
      for (epnum = 1U; epnum < hpcd->Init.dev_endpoints; epnum++)
 8003c48:	7923      	ldrb	r3, [r4, #4]
 8003c4a:	e46f      	b.n	800352c <HAL_PCD_IRQHandler+0x29c>
  ret = USB_EPStopXfer(hpcd->Instance, ep);
 8003c4c:	6820      	ldr	r0, [r4, #0]
 8003c4e:	f504 7154 	add.w	r1, r4, #848	@ 0x350
 8003c52:	f001 fa6b 	bl	800512c <USB_EPStopXfer>
      for (epnum = 1U; epnum < hpcd->Init.dev_endpoints; epnum++)
 8003c56:	7923      	ldrb	r3, [r4, #4]
 8003c58:	f7ff bbc1 	b.w	80033de <HAL_PCD_IRQHandler+0x14e>
        if ((hpcd->IN_ep[epnum].type == EP_TYPE_ISOC) &&
 8003c5c:	2900      	cmp	r1, #0
 8003c5e:	f6bf ac6e 	bge.w	800353e <HAL_PCD_IRQHandler+0x2ae>
  ret = USB_EPStopXfer(hpcd->Instance, ep);
 8003c62:	6820      	ldr	r0, [r4, #0]
          hpcd->IN_ep[epnum].is_iso_incomplete = 1U;
 8003c64:	f884 21c7 	strb.w	r2, [r4, #455]	@ 0x1c7
  ret = USB_EPStopXfer(hpcd->Instance, ep);
 8003c68:	f504 71e2 	add.w	r1, r4, #452	@ 0x1c4
 8003c6c:	f001 fa5e 	bl	800512c <USB_EPStopXfer>
      for (epnum = 1U; epnum < hpcd->Init.dev_endpoints; epnum++)
 8003c70:	7923      	ldrb	r3, [r4, #4]
 8003c72:	e464      	b.n	800353e <HAL_PCD_IRQHandler+0x2ae>
  ret = USB_EPStopXfer(hpcd->Instance, ep);
 8003c74:	6820      	ldr	r0, [r4, #0]
 8003c76:	f504 715d 	add.w	r1, r4, #884	@ 0x374
 8003c7a:	f001 fa57 	bl	800512c <USB_EPStopXfer>
      for (epnum = 1U; epnum < hpcd->Init.dev_endpoints; epnum++)
 8003c7e:	7923      	ldrb	r3, [r4, #4]
 8003c80:	f7ff bbb4 	b.w	80033ec <HAL_PCD_IRQHandler+0x15c>
        if ((hpcd->IN_ep[epnum].type == EP_TYPE_ISOC) &&
 8003c84:	2900      	cmp	r1, #0
 8003c86:	f6bf ac63 	bge.w	8003550 <HAL_PCD_IRQHandler+0x2c0>
  ret = USB_EPStopXfer(hpcd->Instance, ep);
 8003c8a:	6820      	ldr	r0, [r4, #0]
          hpcd->IN_ep[epnum].is_iso_incomplete = 1U;
 8003c8c:	f884 21eb 	strb.w	r2, [r4, #491]	@ 0x1eb
  ret = USB_EPStopXfer(hpcd->Instance, ep);
 8003c90:	f504 71f4 	add.w	r1, r4, #488	@ 0x1e8
 8003c94:	f001 fa4a 	bl	800512c <USB_EPStopXfer>
      for (epnum = 1U; epnum < hpcd->Init.dev_endpoints; epnum++)
 8003c98:	7923      	ldrb	r3, [r4, #4]
 8003c9a:	e459      	b.n	8003550 <HAL_PCD_IRQHandler+0x2c0>
  ret = USB_EPStopXfer(hpcd->Instance, ep);
 8003c9c:	6820      	ldr	r0, [r4, #0]
 8003c9e:	f504 7166 	add.w	r1, r4, #920	@ 0x398
 8003ca2:	f001 fa43 	bl	800512c <USB_EPStopXfer>
      for (epnum = 1U; epnum < hpcd->Init.dev_endpoints; epnum++)
 8003ca6:	7923      	ldrb	r3, [r4, #4]
 8003ca8:	f7ff bba7 	b.w	80033fa <HAL_PCD_IRQHandler+0x16a>
        if ((hpcd->IN_ep[epnum].type == EP_TYPE_ISOC) &&
 8003cac:	2900      	cmp	r1, #0
 8003cae:	f6bf ac58 	bge.w	8003562 <HAL_PCD_IRQHandler+0x2d2>
  ret = USB_EPStopXfer(hpcd->Instance, ep);
 8003cb2:	6820      	ldr	r0, [r4, #0]
          hpcd->IN_ep[epnum].is_iso_incomplete = 1U;
 8003cb4:	f884 220f 	strb.w	r2, [r4, #527]	@ 0x20f
  ret = USB_EPStopXfer(hpcd->Instance, ep);
 8003cb8:	f504 7103 	add.w	r1, r4, #524	@ 0x20c
 8003cbc:	f001 fa36 	bl	800512c <USB_EPStopXfer>
      for (epnum = 1U; epnum < hpcd->Init.dev_endpoints; epnum++)
 8003cc0:	7923      	ldrb	r3, [r4, #4]
 8003cc2:	e44e      	b.n	8003562 <HAL_PCD_IRQHandler+0x2d2>
  ret = USB_EPStopXfer(hpcd->Instance, ep);
 8003cc4:	6820      	ldr	r0, [r4, #0]
 8003cc6:	f504 716f 	add.w	r1, r4, #956	@ 0x3bc
 8003cca:	f001 fa2f 	bl	800512c <USB_EPStopXfer>
      for (epnum = 1U; epnum < hpcd->Init.dev_endpoints; epnum++)
 8003cce:	7923      	ldrb	r3, [r4, #4]
 8003cd0:	f7ff bb9a 	b.w	8003408 <HAL_PCD_IRQHandler+0x178>
        if ((hpcd->IN_ep[epnum].type == EP_TYPE_ISOC) &&
 8003cd4:	2900      	cmp	r1, #0
 8003cd6:	f6bf ac4d 	bge.w	8003574 <HAL_PCD_IRQHandler+0x2e4>
  ret = USB_EPStopXfer(hpcd->Instance, ep);
 8003cda:	6820      	ldr	r0, [r4, #0]
          hpcd->IN_ep[epnum].is_iso_incomplete = 1U;
 8003cdc:	f884 2233 	strb.w	r2, [r4, #563]	@ 0x233
  ret = USB_EPStopXfer(hpcd->Instance, ep);
 8003ce0:	f504 710c 	add.w	r1, r4, #560	@ 0x230
 8003ce4:	f001 fa22 	bl	800512c <USB_EPStopXfer>
      for (epnum = 1U; epnum < hpcd->Init.dev_endpoints; epnum++)
 8003ce8:	7923      	ldrb	r3, [r4, #4]
 8003cea:	e443      	b.n	8003574 <HAL_PCD_IRQHandler+0x2e4>
  ret = USB_EPStopXfer(hpcd->Instance, ep);
 8003cec:	6820      	ldr	r0, [r4, #0]
 8003cee:	f504 7178 	add.w	r1, r4, #992	@ 0x3e0
 8003cf2:	f001 fa1b 	bl	800512c <USB_EPStopXfer>
      for (epnum = 1U; epnum < hpcd->Init.dev_endpoints; epnum++)
 8003cf6:	7923      	ldrb	r3, [r4, #4]
 8003cf8:	f7ff bb8d 	b.w	8003416 <HAL_PCD_IRQHandler+0x186>
 8003cfc:	4f54300a 	.word	0x4f54300a
 8003d00:	4f54310a 	.word	0x4f54310a
  ret = USB_EPStopXfer(hpcd->Instance, ep);
 8003d04:	6820      	ldr	r0, [r4, #0]
 8003d06:	f204 4104 	addw	r1, r4, #1028	@ 0x404
 8003d0a:	f001 fa0f 	bl	800512c <USB_EPStopXfer>
      for (epnum = 1U; epnum < hpcd->Init.dev_endpoints; epnum++)
 8003d0e:	7923      	ldrb	r3, [r4, #4]
 8003d10:	f7ff bb88 	b.w	8003424 <HAL_PCD_IRQHandler+0x194>
      if ((gSNPSiD > USB_OTG_CORE_ID_300A) &&
 8003d14:	491b      	ldr	r1, [pc, #108]	@ (8003d84 <HAL_PCD_IRQHandler+0xaf4>)
 8003d16:	458e      	cmp	lr, r1
 8003d18:	d902      	bls.n	8003d20 <HAL_PCD_IRQHandler+0xa90>
 8003d1a:	041b      	lsls	r3, r3, #16
 8003d1c:	f53f af03 	bmi.w	8003b26 <HAL_PCD_IRQHandler+0x896>
        ep->xfer_count = ep->xfer_size - (USBx_OUTEP(epnum)->DOEPTSIZ & USB_OTG_DOEPTSIZ_XFRSIZ);
 8003d20:	6911      	ldr	r1, [r2, #16]
 8003d22:	f8db 2274 	ldr.w	r2, [fp, #628]	@ 0x274
 8003d26:	f3c1 0112 	ubfx	r1, r1, #0, #19
 8003d2a:	1a52      	subs	r2, r2, r1
 8003d2c:	f8cb 2268 	str.w	r2, [fp, #616]	@ 0x268
        if (epnum == 0U)
 8003d30:	f1ba 0f00 	cmp.w	sl, #0
 8003d34:	f47f ae89 	bne.w	8003a4a <HAL_PCD_IRQHandler+0x7ba>
          if (ep->xfer_len == 0U)
 8003d38:	f8d5 1264 	ldr.w	r1, [r5, #612]	@ 0x264
 8003d3c:	b1d9      	cbz	r1, 8003d76 <HAL_PCD_IRQHandler+0xae6>
            ep->xfer_buff += ep->xfer_count;
 8003d3e:	f8d5 1260 	ldr.w	r1, [r5, #608]	@ 0x260
 8003d42:	4411      	add	r1, r2
 8003d44:	f8c5 1260 	str.w	r1, [r5, #608]	@ 0x260
        HAL_PCD_DataOutStageCallback(hpcd, (uint8_t)epnum);
 8003d48:	e67f      	b.n	8003a4a <HAL_PCD_IRQHandler+0x7ba>
  ret = USB_EPStopXfer(hpcd->Instance, ep);
 8003d4a:	6820      	ldr	r0, [r4, #0]
 8003d4c:	f504 6185 	add.w	r1, r4, #1064	@ 0x428
 8003d50:	f001 f9ec 	bl	800512c <USB_EPStopXfer>
      for (epnum = 1U; epnum < hpcd->Init.dev_endpoints; epnum++)
 8003d54:	7923      	ldrb	r3, [r4, #4]
 8003d56:	f7ff bb6c 	b.w	8003432 <HAL_PCD_IRQHandler+0x1a2>
        (void)USB_EP0_OutStart(hpcd->Instance, 0U, (uint8_t *)hpcd->Setup);
 8003d5a:	f205 429c 	addw	r2, r5, #1180	@ 0x49c
 8003d5e:	4651      	mov	r1, sl
 8003d60:	f001 fb36 	bl	80053d0 <USB_EP0_OutStart>
 8003d64:	e671      	b.n	8003a4a <HAL_PCD_IRQHandler+0x7ba>
  ret = USB_EPStopXfer(hpcd->Instance, ep);
 8003d66:	6820      	ldr	r0, [r4, #0]
 8003d68:	f204 414c 	addw	r1, r4, #1100	@ 0x44c
 8003d6c:	f001 f9de 	bl	800512c <USB_EPStopXfer>
      for (epnum = 1U; epnum < hpcd->Init.dev_endpoints; epnum++)
 8003d70:	7923      	ldrb	r3, [r4, #4]
 8003d72:	f7ff bb65 	b.w	8003440 <HAL_PCD_IRQHandler+0x1b0>
            (void)USB_EP0_OutStart(hpcd->Instance, 1U, (uint8_t *)hpcd->Setup);
 8003d76:	f205 429c 	addw	r2, r5, #1180	@ 0x49c
 8003d7a:	2101      	movs	r1, #1
 8003d7c:	f001 fb28 	bl	80053d0 <USB_EP0_OutStart>
 8003d80:	e663      	b.n	8003a4a <HAL_PCD_IRQHandler+0x7ba>
 8003d82:	bf00      	nop
 8003d84:	4f54300a 	.word	0x4f54300a

08003d88 <HAL_PCD_SetAddress>:
  __HAL_LOCK(hpcd);
 8003d88:	f890 2494 	ldrb.w	r2, [r0, #1172]	@ 0x494
 8003d8c:	2a01      	cmp	r2, #1
 8003d8e:	d00d      	beq.n	8003dac <HAL_PCD_SetAddress+0x24>
{
 8003d90:	b510      	push	{r4, lr}
 8003d92:	4604      	mov	r4, r0
  __HAL_LOCK(hpcd);
 8003d94:	2201      	movs	r2, #1
  (void)USB_SetDevAddress(hpcd->Instance, address);
 8003d96:	6800      	ldr	r0, [r0, #0]
  __HAL_LOCK(hpcd);
 8003d98:	f884 2494 	strb.w	r2, [r4, #1172]	@ 0x494
  hpcd->USB_Address = address;
 8003d9c:	7461      	strb	r1, [r4, #17]
  (void)USB_SetDevAddress(hpcd->Instance, address);
 8003d9e:	f001 faa5 	bl	80052ec <USB_SetDevAddress>
  __HAL_UNLOCK(hpcd);
 8003da2:	2300      	movs	r3, #0
 8003da4:	f884 3494 	strb.w	r3, [r4, #1172]	@ 0x494
  return HAL_OK;
 8003da8:	4618      	mov	r0, r3
}
 8003daa:	bd10      	pop	{r4, pc}
  __HAL_LOCK(hpcd);
 8003dac:	2002      	movs	r0, #2
}
 8003dae:	4770      	bx	lr

08003db0 <HAL_PCD_EP_Open>:
{
 8003db0:	b510      	push	{r4, lr}
 8003db2:	f001 0e0f 	and.w	lr, r1, #15
 8003db6:	eb0e 0cce 	add.w	ip, lr, lr, lsl #3
  if ((ep_addr & 0x80U) == 0x80U)
 8003dba:	0609      	lsls	r1, r1, #24
{
 8003dbc:	4604      	mov	r4, r0
 8003dbe:	ea4f 0c8c 	mov.w	ip, ip, lsl #2
  if ((ep_addr & 0x80U) == 0x80U)
 8003dc2:	d427      	bmi.n	8003e14 <HAL_PCD_EP_Open+0x64>
    ep = &hpcd->OUT_ep[ep_addr & EP_ADDR_MSK];
 8003dc4:	f50c 7115 	add.w	r1, ip, #596	@ 0x254
 8003dc8:	4401      	add	r1, r0
    ep->is_in = 0U;
 8003dca:	eb0e 00ce 	add.w	r0, lr, lr, lsl #3
 8003dce:	eb04 0080 	add.w	r0, r4, r0, lsl #2
 8003dd2:	f04f 0c00 	mov.w	ip, #0
 8003dd6:	f880 c255 	strb.w	ip, [r0, #597]	@ 0x255
  ep->maxpacket = (uint32_t)ep_mps & 0x7FFU;
 8003dda:	f3c2 020a 	ubfx	r2, r2, #0, #11
 8003dde:	608a      	str	r2, [r1, #8]
  if (ep->is_in != 0U)
 8003de0:	784a      	ldrb	r2, [r1, #1]
  ep->num = ep_addr & EP_ADDR_MSK;
 8003de2:	f881 e000 	strb.w	lr, [r1]
  ep->type = ep_type;
 8003de6:	710b      	strb	r3, [r1, #4]
  if (ep->is_in != 0U)
 8003de8:	b10a      	cbz	r2, 8003dee <HAL_PCD_EP_Open+0x3e>
    ep->tx_fifo_num = ep->num;
 8003dea:	f8a1 e01a 	strh.w	lr, [r1, #26]
  if (ep_type == EP_TYPE_BULK)
 8003dee:	2b02      	cmp	r3, #2
    ep->data_pid_start = 0U;
 8003df0:	bf04      	itt	eq
 8003df2:	2300      	moveq	r3, #0
 8003df4:	714b      	strbeq	r3, [r1, #5]
  __HAL_LOCK(hpcd);
 8003df6:	f894 3494 	ldrb.w	r3, [r4, #1172]	@ 0x494
 8003dfa:	2b01      	cmp	r3, #1
 8003dfc:	d016      	beq.n	8003e2c <HAL_PCD_EP_Open+0x7c>
 8003dfe:	2301      	movs	r3, #1
 8003e00:	f884 3494 	strb.w	r3, [r4, #1172]	@ 0x494
  (void)USB_ActivateEndpoint(hpcd->Instance, ep);
 8003e04:	6820      	ldr	r0, [r4, #0]
 8003e06:	f000 ffd1 	bl	8004dac <USB_ActivateEndpoint>
  __HAL_UNLOCK(hpcd);
 8003e0a:	2300      	movs	r3, #0
 8003e0c:	f884 3494 	strb.w	r3, [r4, #1172]	@ 0x494
  return ret;
 8003e10:	4618      	mov	r0, r3
}
 8003e12:	bd10      	pop	{r4, pc}
    ep = &hpcd->IN_ep[ep_addr & EP_ADDR_MSK];
 8003e14:	f10c 0114 	add.w	r1, ip, #20
 8003e18:	4401      	add	r1, r0
    ep->is_in = 1U;
 8003e1a:	eb0e 00ce 	add.w	r0, lr, lr, lsl #3
 8003e1e:	eb04 0080 	add.w	r0, r4, r0, lsl #2
 8003e22:	f04f 0c01 	mov.w	ip, #1
 8003e26:	f880 c015 	strb.w	ip, [r0, #21]
 8003e2a:	e7d6      	b.n	8003dda <HAL_PCD_EP_Open+0x2a>
  __HAL_LOCK(hpcd);
 8003e2c:	2002      	movs	r0, #2
}
 8003e2e:	bd10      	pop	{r4, pc}

08003e30 <HAL_PCD_EP_Close>:
  if ((ep_addr & 0x80U) == 0x80U)
 8003e30:	f001 030f 	and.w	r3, r1, #15
 8003e34:	f001 020f 	and.w	r2, r1, #15
{
 8003e38:	b510      	push	{r4, lr}
 8003e3a:	eb03 03c3 	add.w	r3, r3, r3, lsl #3
 8003e3e:	4604      	mov	r4, r0
  if ((ep_addr & 0x80U) == 0x80U)
 8003e40:	0609      	lsls	r1, r1, #24
    ep->is_in = 1U;
 8003e42:	eb02 00c2 	add.w	r0, r2, r2, lsl #3
 8003e46:	ea4f 0383 	mov.w	r3, r3, lsl #2
 8003e4a:	eb04 0080 	add.w	r0, r4, r0, lsl #2
  if ((ep_addr & 0x80U) == 0x80U)
 8003e4e:	d416      	bmi.n	8003e7e <HAL_PCD_EP_Close+0x4e>
    ep = &hpcd->OUT_ep[ep_addr & EP_ADDR_MSK];
 8003e50:	f503 7315 	add.w	r3, r3, #596	@ 0x254
 8003e54:	18e1      	adds	r1, r4, r3
    ep->is_in = 0U;
 8003e56:	f04f 0c00 	mov.w	ip, #0
 8003e5a:	f880 c255 	strb.w	ip, [r0, #597]	@ 0x255
  ep->num = ep_addr & EP_ADDR_MSK;
 8003e5e:	700a      	strb	r2, [r1, #0]
  __HAL_LOCK(hpcd);
 8003e60:	f894 3494 	ldrb.w	r3, [r4, #1172]	@ 0x494
 8003e64:	2b01      	cmp	r3, #1
 8003e66:	d015      	beq.n	8003e94 <HAL_PCD_EP_Close+0x64>
 8003e68:	2301      	movs	r3, #1
 8003e6a:	f884 3494 	strb.w	r3, [r4, #1172]	@ 0x494
  (void)USB_DeactivateEndpoint(hpcd->Instance, ep);
 8003e6e:	6820      	ldr	r0, [r4, #0]
 8003e70:	f000 ffe4 	bl	8004e3c <USB_DeactivateEndpoint>
  __HAL_UNLOCK(hpcd);
 8003e74:	2300      	movs	r3, #0
 8003e76:	f884 3494 	strb.w	r3, [r4, #1172]	@ 0x494
  return HAL_OK;
 8003e7a:	4618      	mov	r0, r3
}
 8003e7c:	bd10      	pop	{r4, pc}
    ep = &hpcd->IN_ep[ep_addr & EP_ADDR_MSK];
 8003e7e:	3314      	adds	r3, #20
 8003e80:	18e1      	adds	r1, r4, r3
    ep->is_in = 1U;
 8003e82:	f04f 0c01 	mov.w	ip, #1
 8003e86:	f880 c015 	strb.w	ip, [r0, #21]
  ep->num = ep_addr & EP_ADDR_MSK;
 8003e8a:	700a      	strb	r2, [r1, #0]
  __HAL_LOCK(hpcd);
 8003e8c:	f894 3494 	ldrb.w	r3, [r4, #1172]	@ 0x494
 8003e90:	2b01      	cmp	r3, #1
 8003e92:	d1e9      	bne.n	8003e68 <HAL_PCD_EP_Close+0x38>
 8003e94:	2002      	movs	r0, #2
}
 8003e96:	bd10      	pop	{r4, pc}

08003e98 <HAL_PCD_EP_Receive>:
{
 8003e98:	b510      	push	{r4, lr}
 8003e9a:	f001 0e0f 	and.w	lr, r1, #15
  ep->xfer_buff = pBuf;
 8003e9e:	eb0e 0cce 	add.w	ip, lr, lr, lsl #3
 8003ea2:	eb00 0c8c 	add.w	ip, r0, ip, lsl #2
{
 8003ea6:	4614      	mov	r4, r2
  ep->xfer_len = len;
 8003ea8:	f8cc 3264 	str.w	r3, [ip, #612]	@ 0x264
  ep->xfer_count = 0U;
 8003eac:	2300      	movs	r3, #0
  ep->num = ep_addr & EP_ADDR_MSK;
 8003eae:	f88c e254 	strb.w	lr, [ip, #596]	@ 0x254
  ep->xfer_buff = pBuf;
 8003eb2:	f8cc 2260 	str.w	r2, [ip, #608]	@ 0x260
  ep->xfer_count = 0U;
 8003eb6:	f8cc 3268 	str.w	r3, [ip, #616]	@ 0x268
  ep->is_in = 0U;
 8003eba:	f88c 3255 	strb.w	r3, [ip, #597]	@ 0x255
  if (hpcd->Init.dma_enable == 1U)
 8003ebe:	7982      	ldrb	r2, [r0, #6]
  ep = &hpcd->OUT_ep[ep_addr & EP_ADDR_MSK];
 8003ec0:	2124      	movs	r1, #36	@ 0x24
 8003ec2:	fb01 010e 	mla	r1, r1, lr, r0
  if (hpcd->Init.dma_enable == 1U)
 8003ec6:	2a01      	cmp	r2, #1
  ep = &hpcd->OUT_ep[ep_addr & EP_ADDR_MSK];
 8003ec8:	f501 7115 	add.w	r1, r1, #596	@ 0x254
    ep->dma_addr = (uint32_t)pBuf;
 8003ecc:	bf08      	it	eq
 8003ece:	f8cc 4270 	streq.w	r4, [ip, #624]	@ 0x270
  (void)USB_EPStartXfer(hpcd->Instance, ep, (uint8_t)hpcd->Init.dma_enable);
 8003ed2:	6800      	ldr	r0, [r0, #0]
 8003ed4:	f001 f814 	bl	8004f00 <USB_EPStartXfer>
}
 8003ed8:	2000      	movs	r0, #0
 8003eda:	bd10      	pop	{r4, pc}

08003edc <HAL_PCD_EP_GetRxCount>:
  return hpcd->OUT_ep[ep_addr & EP_ADDR_MSK].xfer_count;
 8003edc:	f001 010f 	and.w	r1, r1, #15
 8003ee0:	eb01 01c1 	add.w	r1, r1, r1, lsl #3
 8003ee4:	eb00 0081 	add.w	r0, r0, r1, lsl #2
}
 8003ee8:	f8d0 0268 	ldr.w	r0, [r0, #616]	@ 0x268
 8003eec:	4770      	bx	lr
 8003eee:	bf00      	nop

08003ef0 <HAL_PCD_EP_Transmit>:
{
 8003ef0:	b510      	push	{r4, lr}
 8003ef2:	f001 0e0f 	and.w	lr, r1, #15
  ep->xfer_buff = pBuf;
 8003ef6:	eb0e 0cce 	add.w	ip, lr, lr, lsl #3
 8003efa:	eb00 0c8c 	add.w	ip, r0, ip, lsl #2
{
 8003efe:	4614      	mov	r4, r2
  ep->xfer_len = len;
 8003f00:	f8cc 3024 	str.w	r3, [ip, #36]	@ 0x24
  ep->xfer_count = 0U;
 8003f04:	2300      	movs	r3, #0
 8003f06:	f8cc 3028 	str.w	r3, [ip, #40]	@ 0x28
  ep->is_in = 1U;
 8003f0a:	2301      	movs	r3, #1
  ep->num = ep_addr & EP_ADDR_MSK;
 8003f0c:	f88c e014 	strb.w	lr, [ip, #20]
  ep->xfer_buff = pBuf;
 8003f10:	f8cc 2020 	str.w	r2, [ip, #32]
  ep->is_in = 1U;
 8003f14:	f88c 3015 	strb.w	r3, [ip, #21]
  if (hpcd->Init.dma_enable == 1U)
 8003f18:	7982      	ldrb	r2, [r0, #6]
  ep = &hpcd->IN_ep[ep_addr & EP_ADDR_MSK];
 8003f1a:	2124      	movs	r1, #36	@ 0x24
 8003f1c:	fb01 010e 	mla	r1, r1, lr, r0
  if (hpcd->Init.dma_enable == 1U)
 8003f20:	429a      	cmp	r2, r3
  ep = &hpcd->IN_ep[ep_addr & EP_ADDR_MSK];
 8003f22:	f101 0114 	add.w	r1, r1, #20
    ep->dma_addr = (uint32_t)pBuf;
 8003f26:	bf08      	it	eq
 8003f28:	f8cc 4030 	streq.w	r4, [ip, #48]	@ 0x30
  (void)USB_EPStartXfer(hpcd->Instance, ep, (uint8_t)hpcd->Init.dma_enable);
 8003f2c:	6800      	ldr	r0, [r0, #0]
 8003f2e:	f000 ffe7 	bl	8004f00 <USB_EPStartXfer>
}
 8003f32:	2000      	movs	r0, #0
 8003f34:	bd10      	pop	{r4, pc}
 8003f36:	bf00      	nop

08003f38 <HAL_PCD_EP_SetStall>:
{
 8003f38:	b538      	push	{r3, r4, r5, lr}
  if (((uint32_t)ep_addr & EP_ADDR_MSK) > hpcd->Init.dev_endpoints)
 8003f3a:	7903      	ldrb	r3, [r0, #4]
 8003f3c:	f001 050f 	and.w	r5, r1, #15
 8003f40:	42ab      	cmp	r3, r5
 8003f42:	d332      	bcc.n	8003faa <HAL_PCD_EP_SetStall+0x72>
  if ((0x80U & ep_addr) == 0x80U)
 8003f44:	060b      	lsls	r3, r1, #24
 8003f46:	4604      	mov	r4, r0
 8003f48:	d41c      	bmi.n	8003f84 <HAL_PCD_EP_SetStall+0x4c>
    ep->is_in = 0U;
 8003f4a:	eb01 03c1 	add.w	r3, r1, r1, lsl #3
    ep = &hpcd->OUT_ep[ep_addr];
 8003f4e:	2224      	movs	r2, #36	@ 0x24
 8003f50:	fb02 0101 	mla	r1, r2, r1, r0
    ep->is_in = 0U;
 8003f54:	eb00 0383 	add.w	r3, r0, r3, lsl #2
    ep = &hpcd->OUT_ep[ep_addr];
 8003f58:	f501 7115 	add.w	r1, r1, #596	@ 0x254
    ep->is_in = 0U;
 8003f5c:	2200      	movs	r2, #0
 8003f5e:	f883 2255 	strb.w	r2, [r3, #597]	@ 0x255
  ep->is_stall = 1U;
 8003f62:	2301      	movs	r3, #1
 8003f64:	708b      	strb	r3, [r1, #2]
  ep->num = ep_addr & EP_ADDR_MSK;
 8003f66:	700d      	strb	r5, [r1, #0]
  __HAL_LOCK(hpcd);
 8003f68:	f894 2494 	ldrb.w	r2, [r4, #1172]	@ 0x494
 8003f6c:	429a      	cmp	r2, r3
 8003f6e:	d01a      	beq.n	8003fa6 <HAL_PCD_EP_SetStall+0x6e>
  (void)USB_EPSetStall(hpcd->Instance, ep);
 8003f70:	6820      	ldr	r0, [r4, #0]
  __HAL_LOCK(hpcd);
 8003f72:	f884 3494 	strb.w	r3, [r4, #1172]	@ 0x494
  (void)USB_EPSetStall(hpcd->Instance, ep);
 8003f76:	f001 f95f 	bl	8005238 <USB_EPSetStall>
  if ((ep_addr & EP_ADDR_MSK) == 0U)
 8003f7a:	b1c5      	cbz	r5, 8003fae <HAL_PCD_EP_SetStall+0x76>
  __HAL_UNLOCK(hpcd);
 8003f7c:	2000      	movs	r0, #0
 8003f7e:	f884 0494 	strb.w	r0, [r4, #1172]	@ 0x494
}
 8003f82:	bd38      	pop	{r3, r4, r5, pc}
    ep->is_in = 1U;
 8003f84:	eb05 03c5 	add.w	r3, r5, r5, lsl #3
    ep = &hpcd->IN_ep[ep_addr & EP_ADDR_MSK];
 8003f88:	2124      	movs	r1, #36	@ 0x24
 8003f8a:	fb01 0105 	mla	r1, r1, r5, r0
    ep->is_in = 1U;
 8003f8e:	eb00 0383 	add.w	r3, r0, r3, lsl #2
 8003f92:	2201      	movs	r2, #1
    ep = &hpcd->IN_ep[ep_addr & EP_ADDR_MSK];
 8003f94:	3114      	adds	r1, #20
    ep->is_in = 1U;
 8003f96:	755a      	strb	r2, [r3, #21]
  ep->is_stall = 1U;
 8003f98:	2301      	movs	r3, #1
 8003f9a:	708b      	strb	r3, [r1, #2]
  ep->num = ep_addr & EP_ADDR_MSK;
 8003f9c:	700d      	strb	r5, [r1, #0]
  __HAL_LOCK(hpcd);
 8003f9e:	f894 2494 	ldrb.w	r2, [r4, #1172]	@ 0x494
 8003fa2:	429a      	cmp	r2, r3
 8003fa4:	d1e4      	bne.n	8003f70 <HAL_PCD_EP_SetStall+0x38>
 8003fa6:	2002      	movs	r0, #2
}
 8003fa8:	bd38      	pop	{r3, r4, r5, pc}
    return HAL_ERROR;
 8003faa:	2001      	movs	r0, #1
}
 8003fac:	bd38      	pop	{r3, r4, r5, pc}
    (void)USB_EP0_OutStart(hpcd->Instance, (uint8_t)hpcd->Init.dma_enable, (uint8_t *)hpcd->Setup);
 8003fae:	79a1      	ldrb	r1, [r4, #6]
 8003fb0:	6820      	ldr	r0, [r4, #0]
 8003fb2:	f204 429c 	addw	r2, r4, #1180	@ 0x49c
 8003fb6:	f001 fa0b 	bl	80053d0 <USB_EP0_OutStart>
 8003fba:	e7df      	b.n	8003f7c <HAL_PCD_EP_SetStall+0x44>

08003fbc <HAL_PCD_EP_ClrStall>:
{
 8003fbc:	b538      	push	{r3, r4, r5, lr}
  if (((uint32_t)ep_addr & 0x0FU) > hpcd->Init.dev_endpoints)
 8003fbe:	7903      	ldrb	r3, [r0, #4]
 8003fc0:	f001 020f 	and.w	r2, r1, #15
 8003fc4:	4293      	cmp	r3, r2
 8003fc6:	d32e      	bcc.n	8004026 <HAL_PCD_EP_ClrStall+0x6a>
  if ((0x80U & ep_addr) == 0x80U)
 8003fc8:	4604      	mov	r4, r0
 8003fca:	eb02 03c2 	add.w	r3, r2, r2, lsl #3
    ep->is_in = 1U;
 8003fce:	eb02 00c2 	add.w	r0, r2, r2, lsl #3
  if ((0x80U & ep_addr) == 0x80U)
 8003fd2:	0609      	lsls	r1, r1, #24
 8003fd4:	ea4f 0383 	mov.w	r3, r3, lsl #2
    ep->is_in = 1U;
 8003fd8:	eb04 0080 	add.w	r0, r4, r0, lsl #2
  if ((0x80U & ep_addr) == 0x80U)
 8003fdc:	d416      	bmi.n	800400c <HAL_PCD_EP_ClrStall+0x50>
    ep = &hpcd->OUT_ep[ep_addr & EP_ADDR_MSK];
 8003fde:	f503 7315 	add.w	r3, r3, #596	@ 0x254
 8003fe2:	18e1      	adds	r1, r4, r3
    ep->is_in = 0U;
 8003fe4:	2500      	movs	r5, #0
 8003fe6:	f880 5255 	strb.w	r5, [r0, #597]	@ 0x255
  ep->is_stall = 0U;
 8003fea:	2500      	movs	r5, #0
 8003fec:	708d      	strb	r5, [r1, #2]
  ep->num = ep_addr & EP_ADDR_MSK;
 8003fee:	700a      	strb	r2, [r1, #0]
  __HAL_LOCK(hpcd);
 8003ff0:	f894 3494 	ldrb.w	r3, [r4, #1172]	@ 0x494
 8003ff4:	2b01      	cmp	r3, #1
 8003ff6:	d014      	beq.n	8004022 <HAL_PCD_EP_ClrStall+0x66>
 8003ff8:	2301      	movs	r3, #1
  (void)USB_EPClearStall(hpcd->Instance, ep);
 8003ffa:	6820      	ldr	r0, [r4, #0]
  __HAL_LOCK(hpcd);
 8003ffc:	f884 3494 	strb.w	r3, [r4, #1172]	@ 0x494
  (void)USB_EPClearStall(hpcd->Instance, ep);
 8004000:	f001 f948 	bl	8005294 <USB_EPClearStall>
  __HAL_UNLOCK(hpcd);
 8004004:	f884 5494 	strb.w	r5, [r4, #1172]	@ 0x494
  return HAL_OK;
 8004008:	4628      	mov	r0, r5
}
 800400a:	bd38      	pop	{r3, r4, r5, pc}
    ep = &hpcd->IN_ep[ep_addr & EP_ADDR_MSK];
 800400c:	3314      	adds	r3, #20
 800400e:	18e1      	adds	r1, r4, r3
    ep->is_in = 1U;
 8004010:	2501      	movs	r5, #1
 8004012:	7545      	strb	r5, [r0, #21]
  ep->is_stall = 0U;
 8004014:	2500      	movs	r5, #0
 8004016:	708d      	strb	r5, [r1, #2]
  ep->num = ep_addr & EP_ADDR_MSK;
 8004018:	700a      	strb	r2, [r1, #0]
  __HAL_LOCK(hpcd);
 800401a:	f894 3494 	ldrb.w	r3, [r4, #1172]	@ 0x494
 800401e:	2b01      	cmp	r3, #1
 8004020:	d1ea      	bne.n	8003ff8 <HAL_PCD_EP_ClrStall+0x3c>
 8004022:	2002      	movs	r0, #2
}
 8004024:	bd38      	pop	{r3, r4, r5, pc}
    return HAL_ERROR;
 8004026:	2001      	movs	r0, #1
}
 8004028:	bd38      	pop	{r3, r4, r5, pc}
 800402a:	bf00      	nop

0800402c <HAL_PCDEx_SetTxFiFo>:
         --> Txn should be configured with the minimum space of 16 words
     The FIFO is used optimally when used TxFIFOs are allocated in the top
         of the FIFO.Ex: use EP1 and EP2 as IN instead of EP1 and EP3 as IN ones.
     When DMA is used 3n * FIFO locations should be reserved for internal DMA registers */

  Tx_Offset = hpcd->Instance->GRXFSIZ;
 800402c:	6800      	ldr	r0, [r0, #0]

  if (fifo == 0U)
  {
    hpcd->Instance->DIEPTXF0_HNPTXFSIZ = ((uint32_t)size << 16) | Tx_Offset;
 800402e:	0412      	lsls	r2, r2, #16
  Tx_Offset = hpcd->Instance->GRXFSIZ;
 8004030:	6a43      	ldr	r3, [r0, #36]	@ 0x24
  if (fifo == 0U)
 8004032:	b919      	cbnz	r1, 800403c <HAL_PCDEx_SetTxFiFo+0x10>
    hpcd->Instance->DIEPTXF0_HNPTXFSIZ = ((uint32_t)size << 16) | Tx_Offset;
 8004034:	4313      	orrs	r3, r2
 8004036:	6283      	str	r3, [r0, #40]	@ 0x28
    /* Multiply Tx_Size by 2 to get higher performance */
    hpcd->Instance->DIEPTXF[fifo - 1U] = ((uint32_t)size << 16) | Tx_Offset;
  }

  return HAL_OK;
}
 8004038:	2000      	movs	r0, #0
 800403a:	4770      	bx	lr
{
 800403c:	b430      	push	{r4, r5}
    Tx_Offset += (hpcd->Instance->DIEPTXF0_HNPTXFSIZ) >> 16;
 800403e:	6a84      	ldr	r4, [r0, #40]	@ 0x28
    for (i = 0U; i < (fifo - 1U); i++)
 8004040:	3901      	subs	r1, #1
    Tx_Offset += (hpcd->Instance->DIEPTXF0_HNPTXFSIZ) >> 16;
 8004042:	eb03 4314 	add.w	r3, r3, r4, lsr #16
    for (i = 0U; i < (fifo - 1U); i++)
 8004046:	d06b      	beq.n	8004120 <HAL_PCDEx_SetTxFiFo+0xf4>
      Tx_Offset += (hpcd->Instance->DIEPTXF[i] >> 16);
 8004048:	f8d0 4104 	ldr.w	r4, [r0, #260]	@ 0x104
    for (i = 0U; i < (fifo - 1U); i++)
 800404c:	2901      	cmp	r1, #1
      Tx_Offset += (hpcd->Instance->DIEPTXF[i] >> 16);
 800404e:	eb03 4314 	add.w	r3, r3, r4, lsr #16
    for (i = 0U; i < (fifo - 1U); i++)
 8004052:	d065      	beq.n	8004120 <HAL_PCDEx_SetTxFiFo+0xf4>
      Tx_Offset += (hpcd->Instance->DIEPTXF[i] >> 16);
 8004054:	f8d0 4108 	ldr.w	r4, [r0, #264]	@ 0x108
    for (i = 0U; i < (fifo - 1U); i++)
 8004058:	2902      	cmp	r1, #2
      Tx_Offset += (hpcd->Instance->DIEPTXF[i] >> 16);
 800405a:	eb03 4314 	add.w	r3, r3, r4, lsr #16
    for (i = 0U; i < (fifo - 1U); i++)
 800405e:	d05f      	beq.n	8004120 <HAL_PCDEx_SetTxFiFo+0xf4>
      Tx_Offset += (hpcd->Instance->DIEPTXF[i] >> 16);
 8004060:	f8d0 410c 	ldr.w	r4, [r0, #268]	@ 0x10c
    for (i = 0U; i < (fifo - 1U); i++)
 8004064:	2903      	cmp	r1, #3
      Tx_Offset += (hpcd->Instance->DIEPTXF[i] >> 16);
 8004066:	eb03 4314 	add.w	r3, r3, r4, lsr #16
    for (i = 0U; i < (fifo - 1U); i++)
 800406a:	d059      	beq.n	8004120 <HAL_PCDEx_SetTxFiFo+0xf4>
      Tx_Offset += (hpcd->Instance->DIEPTXF[i] >> 16);
 800406c:	f8d0 4110 	ldr.w	r4, [r0, #272]	@ 0x110
    for (i = 0U; i < (fifo - 1U); i++)
 8004070:	2904      	cmp	r1, #4
      Tx_Offset += (hpcd->Instance->DIEPTXF[i] >> 16);
 8004072:	eb03 4314 	add.w	r3, r3, r4, lsr #16
    for (i = 0U; i < (fifo - 1U); i++)
 8004076:	d053      	beq.n	8004120 <HAL_PCDEx_SetTxFiFo+0xf4>
      Tx_Offset += (hpcd->Instance->DIEPTXF[i] >> 16);
 8004078:	f8d0 4114 	ldr.w	r4, [r0, #276]	@ 0x114
    for (i = 0U; i < (fifo - 1U); i++)
 800407c:	2905      	cmp	r1, #5
      Tx_Offset += (hpcd->Instance->DIEPTXF[i] >> 16);
 800407e:	eb03 4314 	add.w	r3, r3, r4, lsr #16
    for (i = 0U; i < (fifo - 1U); i++)
 8004082:	d04d      	beq.n	8004120 <HAL_PCDEx_SetTxFiFo+0xf4>
      Tx_Offset += (hpcd->Instance->DIEPTXF[i] >> 16);
 8004084:	f8d0 4118 	ldr.w	r4, [r0, #280]	@ 0x118
    for (i = 0U; i < (fifo - 1U); i++)
 8004088:	2906      	cmp	r1, #6
      Tx_Offset += (hpcd->Instance->DIEPTXF[i] >> 16);
 800408a:	eb03 4314 	add.w	r3, r3, r4, lsr #16
    for (i = 0U; i < (fifo - 1U); i++)
 800408e:	d047      	beq.n	8004120 <HAL_PCDEx_SetTxFiFo+0xf4>
      Tx_Offset += (hpcd->Instance->DIEPTXF[i] >> 16);
 8004090:	f8d0 411c 	ldr.w	r4, [r0, #284]	@ 0x11c
    for (i = 0U; i < (fifo - 1U); i++)
 8004094:	2907      	cmp	r1, #7
      Tx_Offset += (hpcd->Instance->DIEPTXF[i] >> 16);
 8004096:	eb03 4314 	add.w	r3, r3, r4, lsr #16
    for (i = 0U; i < (fifo - 1U); i++)
 800409a:	d041      	beq.n	8004120 <HAL_PCDEx_SetTxFiFo+0xf4>
      Tx_Offset += (hpcd->Instance->DIEPTXF[i] >> 16);
 800409c:	f8d0 4120 	ldr.w	r4, [r0, #288]	@ 0x120
    for (i = 0U; i < (fifo - 1U); i++)
 80040a0:	2908      	cmp	r1, #8
      Tx_Offset += (hpcd->Instance->DIEPTXF[i] >> 16);
 80040a2:	eb03 4314 	add.w	r3, r3, r4, lsr #16
    for (i = 0U; i < (fifo - 1U); i++)
 80040a6:	d03b      	beq.n	8004120 <HAL_PCDEx_SetTxFiFo+0xf4>
      Tx_Offset += (hpcd->Instance->DIEPTXF[i] >> 16);
 80040a8:	f8d0 4124 	ldr.w	r4, [r0, #292]	@ 0x124
    for (i = 0U; i < (fifo - 1U); i++)
 80040ac:	2909      	cmp	r1, #9
      Tx_Offset += (hpcd->Instance->DIEPTXF[i] >> 16);
 80040ae:	eb03 4314 	add.w	r3, r3, r4, lsr #16
    for (i = 0U; i < (fifo - 1U); i++)
 80040b2:	d035      	beq.n	8004120 <HAL_PCDEx_SetTxFiFo+0xf4>
      Tx_Offset += (hpcd->Instance->DIEPTXF[i] >> 16);
 80040b4:	f8d0 4128 	ldr.w	r4, [r0, #296]	@ 0x128
    for (i = 0U; i < (fifo - 1U); i++)
 80040b8:	290a      	cmp	r1, #10
      Tx_Offset += (hpcd->Instance->DIEPTXF[i] >> 16);
 80040ba:	eb03 4314 	add.w	r3, r3, r4, lsr #16
    for (i = 0U; i < (fifo - 1U); i++)
 80040be:	d02f      	beq.n	8004120 <HAL_PCDEx_SetTxFiFo+0xf4>
      Tx_Offset += (hpcd->Instance->DIEPTXF[i] >> 16);
 80040c0:	f8d0 412c 	ldr.w	r4, [r0, #300]	@ 0x12c
    for (i = 0U; i < (fifo - 1U); i++)
 80040c4:	290b      	cmp	r1, #11
      Tx_Offset += (hpcd->Instance->DIEPTXF[i] >> 16);
 80040c6:	eb03 4314 	add.w	r3, r3, r4, lsr #16
    for (i = 0U; i < (fifo - 1U); i++)
 80040ca:	d029      	beq.n	8004120 <HAL_PCDEx_SetTxFiFo+0xf4>
      Tx_Offset += (hpcd->Instance->DIEPTXF[i] >> 16);
 80040cc:	f8d0 4130 	ldr.w	r4, [r0, #304]	@ 0x130
    for (i = 0U; i < (fifo - 1U); i++)
 80040d0:	290c      	cmp	r1, #12
      Tx_Offset += (hpcd->Instance->DIEPTXF[i] >> 16);
 80040d2:	eb03 4314 	add.w	r3, r3, r4, lsr #16
    for (i = 0U; i < (fifo - 1U); i++)
 80040d6:	d023      	beq.n	8004120 <HAL_PCDEx_SetTxFiFo+0xf4>
      Tx_Offset += (hpcd->Instance->DIEPTXF[i] >> 16);
 80040d8:	f8d0 4134 	ldr.w	r4, [r0, #308]	@ 0x134
    for (i = 0U; i < (fifo - 1U); i++)
 80040dc:	290d      	cmp	r1, #13
      Tx_Offset += (hpcd->Instance->DIEPTXF[i] >> 16);
 80040de:	eb03 4314 	add.w	r3, r3, r4, lsr #16
    for (i = 0U; i < (fifo - 1U); i++)
 80040e2:	d01d      	beq.n	8004120 <HAL_PCDEx_SetTxFiFo+0xf4>
      Tx_Offset += (hpcd->Instance->DIEPTXF[i] >> 16);
 80040e4:	f8d0 4138 	ldr.w	r4, [r0, #312]	@ 0x138
    for (i = 0U; i < (fifo - 1U); i++)
 80040e8:	290e      	cmp	r1, #14
      Tx_Offset += (hpcd->Instance->DIEPTXF[i] >> 16);
 80040ea:	eb03 4314 	add.w	r3, r3, r4, lsr #16
    for (i = 0U; i < (fifo - 1U); i++)
 80040ee:	d017      	beq.n	8004120 <HAL_PCDEx_SetTxFiFo+0xf4>
      Tx_Offset += (hpcd->Instance->DIEPTXF[i] >> 16);
 80040f0:	f8d0 413c 	ldr.w	r4, [r0, #316]	@ 0x13c
    for (i = 0U; i < (fifo - 1U); i++)
 80040f4:	290f      	cmp	r1, #15
      Tx_Offset += (hpcd->Instance->DIEPTXF[i] >> 16);
 80040f6:	eb03 4314 	add.w	r3, r3, r4, lsr #16
    for (i = 0U; i < (fifo - 1U); i++)
 80040fa:	d011      	beq.n	8004120 <HAL_PCDEx_SetTxFiFo+0xf4>
      Tx_Offset += (hpcd->Instance->DIEPTXF[i] >> 16);
 80040fc:	f8d0 4140 	ldr.w	r4, [r0, #320]	@ 0x140
    for (i = 0U; i < (fifo - 1U); i++)
 8004100:	2910      	cmp	r1, #16
      Tx_Offset += (hpcd->Instance->DIEPTXF[i] >> 16);
 8004102:	eb03 4314 	add.w	r3, r3, r4, lsr #16
    for (i = 0U; i < (fifo - 1U); i++)
 8004106:	d00b      	beq.n	8004120 <HAL_PCDEx_SetTxFiFo+0xf4>
 8004108:	2410      	movs	r4, #16
      Tx_Offset += (hpcd->Instance->DIEPTXF[i] >> 16);
 800410a:	f104 0c40 	add.w	ip, r4, #64	@ 0x40
 800410e:	eb00 0c8c 	add.w	ip, r0, ip, lsl #2
    for (i = 0U; i < (fifo - 1U); i++)
 8004112:	3401      	adds	r4, #1
      Tx_Offset += (hpcd->Instance->DIEPTXF[i] >> 16);
 8004114:	f8dc 5004 	ldr.w	r5, [ip, #4]
    for (i = 0U; i < (fifo - 1U); i++)
 8004118:	428c      	cmp	r4, r1
      Tx_Offset += (hpcd->Instance->DIEPTXF[i] >> 16);
 800411a:	eb03 4315 	add.w	r3, r3, r5, lsr #16
    for (i = 0U; i < (fifo - 1U); i++)
 800411e:	d3f4      	bcc.n	800410a <HAL_PCDEx_SetTxFiFo+0xde>
    hpcd->Instance->DIEPTXF[fifo - 1U] = ((uint32_t)size << 16) | Tx_Offset;
 8004120:	3140      	adds	r1, #64	@ 0x40
 8004122:	eb00 0181 	add.w	r1, r0, r1, lsl #2
 8004126:	431a      	orrs	r2, r3
}
 8004128:	2000      	movs	r0, #0
 800412a:	bc30      	pop	{r4, r5}
    hpcd->Instance->DIEPTXF[fifo - 1U] = ((uint32_t)size << 16) | Tx_Offset;
 800412c:	604a      	str	r2, [r1, #4]
}
 800412e:	4770      	bx	lr

08004130 <HAL_PCDEx_SetRxFiFo>:
  * @param  size Size of Rx fifo
  * @retval HAL status
  */
HAL_StatusTypeDef HAL_PCDEx_SetRxFiFo(PCD_HandleTypeDef *hpcd, uint16_t size)
{
  hpcd->Instance->GRXFSIZ = size;
 8004130:	6803      	ldr	r3, [r0, #0]

  return HAL_OK;
}
 8004132:	2000      	movs	r0, #0
  hpcd->Instance->GRXFSIZ = size;
 8004134:	6259      	str	r1, [r3, #36]	@ 0x24
}
 8004136:	4770      	bx	lr

08004138 <HAL_PCDEx_LPM_Callback>:
  UNUSED(msg);

  /* NOTE : This function should not be modified, when the callback is needed,
            the HAL_PCDEx_LPM_Callback could be implemented in the user file
   */
}
 8004138:	4770      	bx	lr
 800413a:	bf00      	nop

0800413c <HAL_RCC_OscConfig>:
__weak HAL_StatusTypeDef HAL_RCC_OscConfig(const RCC_OscInitTypeDef  *RCC_OscInitStruct)
{
  uint32_t tickstart;
  uint32_t pll_config;
  /* Check Null pointer */
  if (RCC_OscInitStruct == NULL)
 800413c:	2800      	cmp	r0, #0
 800413e:	f000 81d8 	beq.w	80044f2 <HAL_RCC_OscConfig+0x3b6>
{
 8004142:	e92d 41f0 	stmdb	sp!, {r4, r5, r6, r7, r8, lr}
  }

  /* Check the parameters */
  assert_param(IS_RCC_OSCILLATORTYPE(RCC_OscInitStruct->OscillatorType));
  /*------------------------------- HSE Configuration ------------------------*/
  if (((RCC_OscInitStruct->OscillatorType) & RCC_OSCILLATORTYPE_HSE) == RCC_OSCILLATORTYPE_HSE)
 8004146:	6803      	ldr	r3, [r0, #0]
 8004148:	07dd      	lsls	r5, r3, #31
{
 800414a:	b082      	sub	sp, #8
 800414c:	4604      	mov	r4, r0
  if (((RCC_OscInitStruct->OscillatorType) & RCC_OSCILLATORTYPE_HSE) == RCC_OSCILLATORTYPE_HSE)
 800414e:	d52f      	bpl.n	80041b0 <HAL_RCC_OscConfig+0x74>
  {
    /* Check the parameters */
    assert_param(IS_RCC_HSE(RCC_OscInitStruct->HSEState));
    /* When the HSE is used as system clock or clock source for PLL in these cases HSE will not disabled */
    if ((__HAL_RCC_GET_SYSCLK_SOURCE() == RCC_CFGR_SWS_HSE) || \
 8004150:	499d      	ldr	r1, [pc, #628]	@ (80043c8 <HAL_RCC_OscConfig+0x28c>)
 8004152:	688a      	ldr	r2, [r1, #8]
 8004154:	f002 020c 	and.w	r2, r2, #12
 8004158:	2a04      	cmp	r2, #4
 800415a:	f000 80ec 	beq.w	8004336 <HAL_RCC_OscConfig+0x1fa>
        ((__HAL_RCC_GET_SYSCLK_SOURCE() == RCC_CFGR_SWS_PLL) && ((RCC->PLLCFGR & RCC_PLLCFGR_PLLSRC) == RCC_PLLCFGR_PLLSRC_HSE)))
 800415e:	688a      	ldr	r2, [r1, #8]
 8004160:	f002 020c 	and.w	r2, r2, #12
    if ((__HAL_RCC_GET_SYSCLK_SOURCE() == RCC_CFGR_SWS_HSE) || \
 8004164:	2a08      	cmp	r2, #8
 8004166:	f000 80e2 	beq.w	800432e <HAL_RCC_OscConfig+0x1f2>
      }
    }
    else
    {
      /* Set the new HSE configuration ---------------------------------------*/
      __HAL_RCC_HSE_CONFIG(RCC_OscInitStruct->HSEState);
 800416a:	6863      	ldr	r3, [r4, #4]
 800416c:	f5b3 3f80 	cmp.w	r3, #65536	@ 0x10000
 8004170:	f000 80eb 	beq.w	800434a <HAL_RCC_OscConfig+0x20e>
 8004174:	f5b3 2fa0 	cmp.w	r3, #327680	@ 0x50000
 8004178:	f000 8173 	beq.w	8004462 <HAL_RCC_OscConfig+0x326>
 800417c:	4d92      	ldr	r5, [pc, #584]	@ (80043c8 <HAL_RCC_OscConfig+0x28c>)
 800417e:	682a      	ldr	r2, [r5, #0]
 8004180:	f422 3280 	bic.w	r2, r2, #65536	@ 0x10000
 8004184:	602a      	str	r2, [r5, #0]
 8004186:	682a      	ldr	r2, [r5, #0]
 8004188:	f422 2280 	bic.w	r2, r2, #262144	@ 0x40000
 800418c:	602a      	str	r2, [r5, #0]

      /* Check the HSE State */
      if ((RCC_OscInitStruct->HSEState) != RCC_HSE_OFF)
 800418e:	2b00      	cmp	r3, #0
 8004190:	f040 80e0 	bne.w	8004354 <HAL_RCC_OscConfig+0x218>
        }
      }
      else
      {
        /* Get Start Tick */
        tickstart = HAL_GetTick();
 8004194:	f7fd fcdc 	bl	8001b50 <HAL_GetTick>
 8004198:	4606      	mov	r6, r0

        /* Wait till HSE is bypassed or disabled */
        while (__HAL_RCC_GET_FLAG(RCC_FLAG_HSERDY) != RESET)
 800419a:	e005      	b.n	80041a8 <HAL_RCC_OscConfig+0x6c>
        {
          if ((HAL_GetTick() - tickstart) > HSE_TIMEOUT_VALUE)
 800419c:	f7fd fcd8 	bl	8001b50 <HAL_GetTick>
 80041a0:	1b80      	subs	r0, r0, r6
 80041a2:	2864      	cmp	r0, #100	@ 0x64
 80041a4:	f200 8100 	bhi.w	80043a8 <HAL_RCC_OscConfig+0x26c>
        while (__HAL_RCC_GET_FLAG(RCC_FLAG_HSERDY) != RESET)
 80041a8:	682b      	ldr	r3, [r5, #0]
 80041aa:	039f      	lsls	r7, r3, #14
 80041ac:	d4f6      	bmi.n	800419c <HAL_RCC_OscConfig+0x60>
        }
      }
    }
  }
  /*----------------------------- HSI Configuration --------------------------*/
  if (((RCC_OscInitStruct->OscillatorType) & RCC_OSCILLATORTYPE_HSI) == RCC_OSCILLATORTYPE_HSI)
 80041ae:	6823      	ldr	r3, [r4, #0]
 80041b0:	079d      	lsls	r5, r3, #30
 80041b2:	d528      	bpl.n	8004206 <HAL_RCC_OscConfig+0xca>
    /* Check the parameters */
    assert_param(IS_RCC_HSI(RCC_OscInitStruct->HSIState));
    assert_param(IS_RCC_CALIBRATION_VALUE(RCC_OscInitStruct->HSICalibrationValue));

    /* Check if HSI is used as system clock or as PLL source when PLL is selected as system clock */
    if ((__HAL_RCC_GET_SYSCLK_SOURCE() == RCC_CFGR_SWS_HSI) || \
 80041b4:	4a84      	ldr	r2, [pc, #528]	@ (80043c8 <HAL_RCC_OscConfig+0x28c>)
 80041b6:	6891      	ldr	r1, [r2, #8]
 80041b8:	f011 0f0c 	tst.w	r1, #12
 80041bc:	f000 809b 	beq.w	80042f6 <HAL_RCC_OscConfig+0x1ba>
        ((__HAL_RCC_GET_SYSCLK_SOURCE() == RCC_CFGR_SWS_PLL) && ((RCC->PLLCFGR & RCC_PLLCFGR_PLLSRC) == RCC_PLLCFGR_PLLSRC_HSI)))
 80041c0:	6891      	ldr	r1, [r2, #8]
 80041c2:	f001 010c 	and.w	r1, r1, #12
    if ((__HAL_RCC_GET_SYSCLK_SOURCE() == RCC_CFGR_SWS_HSI) || \
 80041c6:	2908      	cmp	r1, #8
 80041c8:	f000 8091 	beq.w	80042ee <HAL_RCC_OscConfig+0x1b2>
      }
    }
    else
    {
      /* Check the HSI State */
      if ((RCC_OscInitStruct->HSIState) != RCC_HSI_OFF)
 80041cc:	68e3      	ldr	r3, [r4, #12]
 80041ce:	2b00      	cmp	r3, #0
 80041d0:	f000 810c 	beq.w	80043ec <HAL_RCC_OscConfig+0x2b0>
      {
        /* Enable the Internal High Speed oscillator (HSI). */
        __HAL_RCC_HSI_ENABLE();
 80041d4:	4b7d      	ldr	r3, [pc, #500]	@ (80043cc <HAL_RCC_OscConfig+0x290>)

        /* Get Start Tick*/
        tickstart = HAL_GetTick();

        /* Wait till HSI is ready */
        while (__HAL_RCC_GET_FLAG(RCC_FLAG_HSIRDY) == RESET)
 80041d6:	4e7c      	ldr	r6, [pc, #496]	@ (80043c8 <HAL_RCC_OscConfig+0x28c>)
        __HAL_RCC_HSI_ENABLE();
 80041d8:	2201      	movs	r2, #1
 80041da:	601a      	str	r2, [r3, #0]
        tickstart = HAL_GetTick();
 80041dc:	f7fd fcb8 	bl	8001b50 <HAL_GetTick>
 80041e0:	4605      	mov	r5, r0
        while (__HAL_RCC_GET_FLAG(RCC_FLAG_HSIRDY) == RESET)
 80041e2:	e005      	b.n	80041f0 <HAL_RCC_OscConfig+0xb4>
        {
          if ((HAL_GetTick() - tickstart) > HSI_TIMEOUT_VALUE)
 80041e4:	f7fd fcb4 	bl	8001b50 <HAL_GetTick>
 80041e8:	1b40      	subs	r0, r0, r5
 80041ea:	2802      	cmp	r0, #2
 80041ec:	f200 80dc 	bhi.w	80043a8 <HAL_RCC_OscConfig+0x26c>
        while (__HAL_RCC_GET_FLAG(RCC_FLAG_HSIRDY) == RESET)
 80041f0:	6833      	ldr	r3, [r6, #0]
 80041f2:	079f      	lsls	r7, r3, #30
 80041f4:	d5f6      	bpl.n	80041e4 <HAL_RCC_OscConfig+0xa8>
            return HAL_TIMEOUT;
          }
        }

        /* Adjusts the Internal High Speed oscillator (HSI) calibration value. */
        __HAL_RCC_HSI_CALIBRATIONVALUE_ADJUST(RCC_OscInitStruct->HSICalibrationValue);
 80041f6:	6833      	ldr	r3, [r6, #0]
 80041f8:	6922      	ldr	r2, [r4, #16]
 80041fa:	f023 03f8 	bic.w	r3, r3, #248	@ 0xf8
 80041fe:	ea43 03c2 	orr.w	r3, r3, r2, lsl #3
 8004202:	6033      	str	r3, [r6, #0]
        }
      }
    }
  }
  /*------------------------------ LSI Configuration -------------------------*/
  if (((RCC_OscInitStruct->OscillatorType) & RCC_OSCILLATORTYPE_LSI) == RCC_OSCILLATORTYPE_LSI)
 8004204:	6823      	ldr	r3, [r4, #0]
 8004206:	071a      	lsls	r2, r3, #28
 8004208:	d45c      	bmi.n	80042c4 <HAL_RCC_OscConfig+0x188>
        }
      }
    }
  }
  /*------------------------------ LSE Configuration -------------------------*/
  if (((RCC_OscInitStruct->OscillatorType) & RCC_OSCILLATORTYPE_LSE) == RCC_OSCILLATORTYPE_LSE)
 800420a:	075d      	lsls	r5, r3, #29
 800420c:	d53a      	bpl.n	8004284 <HAL_RCC_OscConfig+0x148>
    /* Check the parameters */
    assert_param(IS_RCC_LSE(RCC_OscInitStruct->LSEState));

    /* Update LSE configuration in Backup Domain control register    */
    /* Requires to enable write access to Backup Domain of necessary */
    if (__HAL_RCC_PWR_IS_CLK_DISABLED())
 800420e:	4a6e      	ldr	r2, [pc, #440]	@ (80043c8 <HAL_RCC_OscConfig+0x28c>)
 8004210:	6c13      	ldr	r3, [r2, #64]	@ 0x40
 8004212:	f013 5380 	ands.w	r3, r3, #268435456	@ 0x10000000
 8004216:	f040 8088 	bne.w	800432a <HAL_RCC_OscConfig+0x1ee>
    {
      __HAL_RCC_PWR_CLK_ENABLE();
 800421a:	9301      	str	r3, [sp, #4]
 800421c:	6c13      	ldr	r3, [r2, #64]	@ 0x40
 800421e:	f043 5380 	orr.w	r3, r3, #268435456	@ 0x10000000
 8004222:	6413      	str	r3, [r2, #64]	@ 0x40
 8004224:	6c13      	ldr	r3, [r2, #64]	@ 0x40
 8004226:	f003 5380 	and.w	r3, r3, #268435456	@ 0x10000000
 800422a:	9301      	str	r3, [sp, #4]
 800422c:	9b01      	ldr	r3, [sp, #4]
      pwrclkchanged = SET;
 800422e:	2501      	movs	r5, #1
    }

    if (HAL_IS_BIT_CLR(PWR->CR, PWR_CR_DBP))
 8004230:	4e67      	ldr	r6, [pc, #412]	@ (80043d0 <HAL_RCC_OscConfig+0x294>)
 8004232:	6833      	ldr	r3, [r6, #0]
 8004234:	05d8      	lsls	r0, r3, #23
 8004236:	f140 80a7 	bpl.w	8004388 <HAL_RCC_OscConfig+0x24c>
        }
      }
    }

    /* Set the new LSE configuration -----------------------------------------*/
    __HAL_RCC_LSE_CONFIG(RCC_OscInitStruct->LSEState);
 800423a:	68a3      	ldr	r3, [r4, #8]
 800423c:	2b01      	cmp	r3, #1
 800423e:	f000 80b7 	beq.w	80043b0 <HAL_RCC_OscConfig+0x274>
 8004242:	2b05      	cmp	r3, #5
 8004244:	f000 811d 	beq.w	8004482 <HAL_RCC_OscConfig+0x346>
 8004248:	4e5f      	ldr	r6, [pc, #380]	@ (80043c8 <HAL_RCC_OscConfig+0x28c>)
 800424a:	6f32      	ldr	r2, [r6, #112]	@ 0x70
 800424c:	f022 0201 	bic.w	r2, r2, #1
 8004250:	6732      	str	r2, [r6, #112]	@ 0x70
 8004252:	6f32      	ldr	r2, [r6, #112]	@ 0x70
 8004254:	f022 0204 	bic.w	r2, r2, #4
 8004258:	6732      	str	r2, [r6, #112]	@ 0x70
    /* Check the LSE State */
    if ((RCC_OscInitStruct->LSEState) != RCC_LSE_OFF)
 800425a:	2b00      	cmp	r3, #0
 800425c:	f040 80ad 	bne.w	80043ba <HAL_RCC_OscConfig+0x27e>
      }
    }
    else
    {
      /* Get Start Tick */
      tickstart = HAL_GetTick();
 8004260:	f7fd fc76 	bl	8001b50 <HAL_GetTick>

      /* Wait till LSE is ready */
      while (__HAL_RCC_GET_FLAG(RCC_FLAG_LSERDY) != RESET)
      {
        if ((HAL_GetTick() - tickstart) > RCC_LSE_TIMEOUT_VALUE)
 8004264:	f241 3888 	movw	r8, #5000	@ 0x1388
      tickstart = HAL_GetTick();
 8004268:	4607      	mov	r7, r0
      while (__HAL_RCC_GET_FLAG(RCC_FLAG_LSERDY) != RESET)
 800426a:	e005      	b.n	8004278 <HAL_RCC_OscConfig+0x13c>
        if ((HAL_GetTick() - tickstart) > RCC_LSE_TIMEOUT_VALUE)
 800426c:	f7fd fc70 	bl	8001b50 <HAL_GetTick>
 8004270:	1bc0      	subs	r0, r0, r7
 8004272:	4540      	cmp	r0, r8
 8004274:	f200 8098 	bhi.w	80043a8 <HAL_RCC_OscConfig+0x26c>
      while (__HAL_RCC_GET_FLAG(RCC_FLAG_LSERDY) != RESET)
 8004278:	6f33      	ldr	r3, [r6, #112]	@ 0x70
 800427a:	079b      	lsls	r3, r3, #30
 800427c:	d4f6      	bmi.n	800426c <HAL_RCC_OscConfig+0x130>
        }
      }
    }

    /* Restore clock configuration if changed */
    if (pwrclkchanged == SET)
 800427e:	2d00      	cmp	r5, #0
 8004280:	f040 80f9 	bne.w	8004476 <HAL_RCC_OscConfig+0x33a>
    }
  }
  /*-------------------------------- PLL Configuration -----------------------*/
  /* Check the parameters */
  assert_param(IS_RCC_PLL(RCC_OscInitStruct->PLL.PLLState));
  if ((RCC_OscInitStruct->PLL.PLLState) != RCC_PLL_NONE)
 8004284:	69a3      	ldr	r3, [r4, #24]
 8004286:	b1cb      	cbz	r3, 80042bc <HAL_RCC_OscConfig+0x180>
  {
    /* Check if the PLL is used as system clock or not */
    if (__HAL_RCC_GET_SYSCLK_SOURCE() != RCC_CFGR_SWS_PLL)
 8004288:	4d4f      	ldr	r5, [pc, #316]	@ (80043c8 <HAL_RCC_OscConfig+0x28c>)
 800428a:	68aa      	ldr	r2, [r5, #8]
 800428c:	f002 020c 	and.w	r2, r2, #12
 8004290:	2a08      	cmp	r2, #8
 8004292:	f000 80bc 	beq.w	800440e <HAL_RCC_OscConfig+0x2d2>
    {
      if ((RCC_OscInitStruct->PLL.PLLState) == RCC_PLL_ON)
 8004296:	2b02      	cmp	r3, #2
        assert_param(IS_RCC_PLLN_VALUE(RCC_OscInitStruct->PLL.PLLN));
        assert_param(IS_RCC_PLLP_VALUE(RCC_OscInitStruct->PLL.PLLP));
        assert_param(IS_RCC_PLLQ_VALUE(RCC_OscInitStruct->PLL.PLLQ));

        /* Disable the main PLL. */
        __HAL_RCC_PLL_DISABLE();
 8004298:	4b4c      	ldr	r3, [pc, #304]	@ (80043cc <HAL_RCC_OscConfig+0x290>)
 800429a:	f04f 0200 	mov.w	r2, #0
 800429e:	661a      	str	r2, [r3, #96]	@ 0x60
      if ((RCC_OscInitStruct->PLL.PLLState) == RCC_PLL_ON)
 80042a0:	f000 80f9 	beq.w	8004496 <HAL_RCC_OscConfig+0x35a>
      {
        /* Disable the main PLL. */
        __HAL_RCC_PLL_DISABLE();

        /* Get Start Tick */
        tickstart = HAL_GetTick();
 80042a4:	f7fd fc54 	bl	8001b50 <HAL_GetTick>
 80042a8:	4604      	mov	r4, r0

        /* Wait till PLL is disabled */
        while (__HAL_RCC_GET_FLAG(RCC_FLAG_PLLRDY) != RESET)
 80042aa:	e004      	b.n	80042b6 <HAL_RCC_OscConfig+0x17a>
        {
          if ((HAL_GetTick() - tickstart) > PLL_TIMEOUT_VALUE)
 80042ac:	f7fd fc50 	bl	8001b50 <HAL_GetTick>
 80042b0:	1b00      	subs	r0, r0, r4
 80042b2:	2802      	cmp	r0, #2
 80042b4:	d878      	bhi.n	80043a8 <HAL_RCC_OscConfig+0x26c>
        while (__HAL_RCC_GET_FLAG(RCC_FLAG_PLLRDY) != RESET)
 80042b6:	682b      	ldr	r3, [r5, #0]
 80042b8:	019b      	lsls	r3, r3, #6
 80042ba:	d4f7      	bmi.n	80042ac <HAL_RCC_OscConfig+0x170>
          return HAL_ERROR;
        }
      }
    }
  }
  return HAL_OK;
 80042bc:	2000      	movs	r0, #0
}
 80042be:	b002      	add	sp, #8
 80042c0:	e8bd 81f0 	ldmia.w	sp!, {r4, r5, r6, r7, r8, pc}
    if ((RCC_OscInitStruct->LSIState) != RCC_LSI_OFF)
 80042c4:	6963      	ldr	r3, [r4, #20]
 80042c6:	b1fb      	cbz	r3, 8004308 <HAL_RCC_OscConfig+0x1cc>
      __HAL_RCC_LSI_ENABLE();
 80042c8:	4b40      	ldr	r3, [pc, #256]	@ (80043cc <HAL_RCC_OscConfig+0x290>)
      while (__HAL_RCC_GET_FLAG(RCC_FLAG_LSIRDY) == RESET)
 80042ca:	4e3f      	ldr	r6, [pc, #252]	@ (80043c8 <HAL_RCC_OscConfig+0x28c>)
      __HAL_RCC_LSI_ENABLE();
 80042cc:	2201      	movs	r2, #1
 80042ce:	f8c3 2e80 	str.w	r2, [r3, #3712]	@ 0xe80
      tickstart = HAL_GetTick();
 80042d2:	f7fd fc3d 	bl	8001b50 <HAL_GetTick>
 80042d6:	4605      	mov	r5, r0
      while (__HAL_RCC_GET_FLAG(RCC_FLAG_LSIRDY) == RESET)
 80042d8:	e004      	b.n	80042e4 <HAL_RCC_OscConfig+0x1a8>
        if ((HAL_GetTick() - tickstart) > LSI_TIMEOUT_VALUE)
 80042da:	f7fd fc39 	bl	8001b50 <HAL_GetTick>
 80042de:	1b40      	subs	r0, r0, r5
 80042e0:	2802      	cmp	r0, #2
 80042e2:	d861      	bhi.n	80043a8 <HAL_RCC_OscConfig+0x26c>
      while (__HAL_RCC_GET_FLAG(RCC_FLAG_LSIRDY) == RESET)
 80042e4:	6f73      	ldr	r3, [r6, #116]	@ 0x74
 80042e6:	079b      	lsls	r3, r3, #30
 80042e8:	d5f7      	bpl.n	80042da <HAL_RCC_OscConfig+0x19e>
  if (((RCC_OscInitStruct->OscillatorType) & RCC_OSCILLATORTYPE_LSE) == RCC_OSCILLATORTYPE_LSE)
 80042ea:	6823      	ldr	r3, [r4, #0]
 80042ec:	e78d      	b.n	800420a <HAL_RCC_OscConfig+0xce>
        ((__HAL_RCC_GET_SYSCLK_SOURCE() == RCC_CFGR_SWS_PLL) && ((RCC->PLLCFGR & RCC_PLLCFGR_PLLSRC) == RCC_PLLCFGR_PLLSRC_HSI)))
 80042ee:	6852      	ldr	r2, [r2, #4]
 80042f0:	0251      	lsls	r1, r2, #9
 80042f2:	f53f af6b 	bmi.w	80041cc <HAL_RCC_OscConfig+0x90>
      if ((__HAL_RCC_GET_FLAG(RCC_FLAG_HSIRDY) != RESET) && (RCC_OscInitStruct->HSIState != RCC_HSI_ON))
 80042f6:	4a34      	ldr	r2, [pc, #208]	@ (80043c8 <HAL_RCC_OscConfig+0x28c>)
 80042f8:	6812      	ldr	r2, [r2, #0]
 80042fa:	0792      	lsls	r2, r2, #30
 80042fc:	d538      	bpl.n	8004370 <HAL_RCC_OscConfig+0x234>
 80042fe:	68e2      	ldr	r2, [r4, #12]
 8004300:	2a01      	cmp	r2, #1
 8004302:	d035      	beq.n	8004370 <HAL_RCC_OscConfig+0x234>
    return HAL_ERROR;
 8004304:	2001      	movs	r0, #1
 8004306:	e7da      	b.n	80042be <HAL_RCC_OscConfig+0x182>
      __HAL_RCC_LSI_DISABLE();
 8004308:	4a30      	ldr	r2, [pc, #192]	@ (80043cc <HAL_RCC_OscConfig+0x290>)
      while (__HAL_RCC_GET_FLAG(RCC_FLAG_LSIRDY) != RESET)
 800430a:	4e2f      	ldr	r6, [pc, #188]	@ (80043c8 <HAL_RCC_OscConfig+0x28c>)
      __HAL_RCC_LSI_DISABLE();
 800430c:	f8c2 3e80 	str.w	r3, [r2, #3712]	@ 0xe80
      tickstart = HAL_GetTick();
 8004310:	f7fd fc1e 	bl	8001b50 <HAL_GetTick>
 8004314:	4605      	mov	r5, r0
      while (__HAL_RCC_GET_FLAG(RCC_FLAG_LSIRDY) != RESET)
 8004316:	e004      	b.n	8004322 <HAL_RCC_OscConfig+0x1e6>
        if ((HAL_GetTick() - tickstart) > LSI_TIMEOUT_VALUE)
 8004318:	f7fd fc1a 	bl	8001b50 <HAL_GetTick>
 800431c:	1b40      	subs	r0, r0, r5
 800431e:	2802      	cmp	r0, #2
 8004320:	d842      	bhi.n	80043a8 <HAL_RCC_OscConfig+0x26c>
      while (__HAL_RCC_GET_FLAG(RCC_FLAG_LSIRDY) != RESET)
 8004322:	6f73      	ldr	r3, [r6, #116]	@ 0x74
 8004324:	079f      	lsls	r7, r3, #30
 8004326:	d4f7      	bmi.n	8004318 <HAL_RCC_OscConfig+0x1dc>
 8004328:	e7df      	b.n	80042ea <HAL_RCC_OscConfig+0x1ae>
    FlagStatus       pwrclkchanged = RESET;
 800432a:	2500      	movs	r5, #0
 800432c:	e780      	b.n	8004230 <HAL_RCC_OscConfig+0xf4>
        ((__HAL_RCC_GET_SYSCLK_SOURCE() == RCC_CFGR_SWS_PLL) && ((RCC->PLLCFGR & RCC_PLLCFGR_PLLSRC) == RCC_PLLCFGR_PLLSRC_HSE)))
 800432e:	684a      	ldr	r2, [r1, #4]
 8004330:	0251      	lsls	r1, r2, #9
 8004332:	f57f af1a 	bpl.w	800416a <HAL_RCC_OscConfig+0x2e>
      if ((__HAL_RCC_GET_FLAG(RCC_FLAG_HSERDY) != RESET) && (RCC_OscInitStruct->HSEState == RCC_HSE_OFF))
 8004336:	4a24      	ldr	r2, [pc, #144]	@ (80043c8 <HAL_RCC_OscConfig+0x28c>)
 8004338:	6812      	ldr	r2, [r2, #0]
 800433a:	0392      	lsls	r2, r2, #14
 800433c:	f57f af38 	bpl.w	80041b0 <HAL_RCC_OscConfig+0x74>
 8004340:	6862      	ldr	r2, [r4, #4]
 8004342:	2a00      	cmp	r2, #0
 8004344:	f47f af34 	bne.w	80041b0 <HAL_RCC_OscConfig+0x74>
 8004348:	e7dc      	b.n	8004304 <HAL_RCC_OscConfig+0x1c8>
      __HAL_RCC_HSE_CONFIG(RCC_OscInitStruct->HSEState);
 800434a:	4a1f      	ldr	r2, [pc, #124]	@ (80043c8 <HAL_RCC_OscConfig+0x28c>)
 800434c:	6813      	ldr	r3, [r2, #0]
 800434e:	f443 3380 	orr.w	r3, r3, #65536	@ 0x10000
 8004352:	6013      	str	r3, [r2, #0]
        tickstart = HAL_GetTick();
 8004354:	f7fd fbfc 	bl	8001b50 <HAL_GetTick>
        while (__HAL_RCC_GET_FLAG(RCC_FLAG_HSERDY) == RESET)
 8004358:	4e1b      	ldr	r6, [pc, #108]	@ (80043c8 <HAL_RCC_OscConfig+0x28c>)
        tickstart = HAL_GetTick();
 800435a:	4605      	mov	r5, r0
        while (__HAL_RCC_GET_FLAG(RCC_FLAG_HSERDY) == RESET)
 800435c:	e004      	b.n	8004368 <HAL_RCC_OscConfig+0x22c>
          if ((HAL_GetTick() - tickstart) > HSE_TIMEOUT_VALUE)
 800435e:	f7fd fbf7 	bl	8001b50 <HAL_GetTick>
 8004362:	1b40      	subs	r0, r0, r5
 8004364:	2864      	cmp	r0, #100	@ 0x64
 8004366:	d81f      	bhi.n	80043a8 <HAL_RCC_OscConfig+0x26c>
        while (__HAL_RCC_GET_FLAG(RCC_FLAG_HSERDY) == RESET)
 8004368:	6833      	ldr	r3, [r6, #0]
 800436a:	039b      	lsls	r3, r3, #14
 800436c:	d5f7      	bpl.n	800435e <HAL_RCC_OscConfig+0x222>
 800436e:	e71e      	b.n	80041ae <HAL_RCC_OscConfig+0x72>
        __HAL_RCC_HSI_CALIBRATIONVALUE_ADJUST(RCC_OscInitStruct->HSICalibrationValue);
 8004370:	4915      	ldr	r1, [pc, #84]	@ (80043c8 <HAL_RCC_OscConfig+0x28c>)
 8004372:	6920      	ldr	r0, [r4, #16]
 8004374:	680a      	ldr	r2, [r1, #0]
 8004376:	f022 02f8 	bic.w	r2, r2, #248	@ 0xf8
 800437a:	ea42 02c0 	orr.w	r2, r2, r0, lsl #3
 800437e:	600a      	str	r2, [r1, #0]
  if (((RCC_OscInitStruct->OscillatorType) & RCC_OSCILLATORTYPE_LSI) == RCC_OSCILLATORTYPE_LSI)
 8004380:	071a      	lsls	r2, r3, #28
 8004382:	f57f af42 	bpl.w	800420a <HAL_RCC_OscConfig+0xce>
 8004386:	e79d      	b.n	80042c4 <HAL_RCC_OscConfig+0x188>
      SET_BIT(PWR->CR, PWR_CR_DBP);
 8004388:	6833      	ldr	r3, [r6, #0]
 800438a:	f443 7380 	orr.w	r3, r3, #256	@ 0x100
 800438e:	6033      	str	r3, [r6, #0]
      tickstart = HAL_GetTick();
 8004390:	f7fd fbde 	bl	8001b50 <HAL_GetTick>
 8004394:	4607      	mov	r7, r0
      while (HAL_IS_BIT_CLR(PWR->CR, PWR_CR_DBP))
 8004396:	6833      	ldr	r3, [r6, #0]
 8004398:	05d9      	lsls	r1, r3, #23
 800439a:	f53f af4e 	bmi.w	800423a <HAL_RCC_OscConfig+0xfe>
        if ((HAL_GetTick() - tickstart) > RCC_DBP_TIMEOUT_VALUE)
 800439e:	f7fd fbd7 	bl	8001b50 <HAL_GetTick>
 80043a2:	1bc0      	subs	r0, r0, r7
 80043a4:	2802      	cmp	r0, #2
 80043a6:	d9f6      	bls.n	8004396 <HAL_RCC_OscConfig+0x25a>
            return HAL_TIMEOUT;
 80043a8:	2003      	movs	r0, #3
}
 80043aa:	b002      	add	sp, #8
 80043ac:	e8bd 81f0 	ldmia.w	sp!, {r4, r5, r6, r7, r8, pc}
    __HAL_RCC_LSE_CONFIG(RCC_OscInitStruct->LSEState);
 80043b0:	4a05      	ldr	r2, [pc, #20]	@ (80043c8 <HAL_RCC_OscConfig+0x28c>)
 80043b2:	6f13      	ldr	r3, [r2, #112]	@ 0x70
 80043b4:	f043 0301 	orr.w	r3, r3, #1
 80043b8:	6713      	str	r3, [r2, #112]	@ 0x70
      tickstart = HAL_GetTick();
 80043ba:	f7fd fbc9 	bl	8001b50 <HAL_GetTick>
      while (__HAL_RCC_GET_FLAG(RCC_FLAG_LSERDY) == RESET)
 80043be:	4f02      	ldr	r7, [pc, #8]	@ (80043c8 <HAL_RCC_OscConfig+0x28c>)
      tickstart = HAL_GetTick();
 80043c0:	4606      	mov	r6, r0
        if ((HAL_GetTick() - tickstart) > RCC_LSE_TIMEOUT_VALUE)
 80043c2:	f241 3888 	movw	r8, #5000	@ 0x1388
      while (__HAL_RCC_GET_FLAG(RCC_FLAG_LSERDY) == RESET)
 80043c6:	e00a      	b.n	80043de <HAL_RCC_OscConfig+0x2a2>
 80043c8:	40023800 	.word	0x40023800
 80043cc:	42470000 	.word	0x42470000
 80043d0:	40007000 	.word	0x40007000
        if ((HAL_GetTick() - tickstart) > RCC_LSE_TIMEOUT_VALUE)
 80043d4:	f7fd fbbc 	bl	8001b50 <HAL_GetTick>
 80043d8:	1b80      	subs	r0, r0, r6
 80043da:	4540      	cmp	r0, r8
 80043dc:	d8e4      	bhi.n	80043a8 <HAL_RCC_OscConfig+0x26c>
      while (__HAL_RCC_GET_FLAG(RCC_FLAG_LSERDY) == RESET)
 80043de:	6f3b      	ldr	r3, [r7, #112]	@ 0x70
 80043e0:	079a      	lsls	r2, r3, #30
 80043e2:	d5f7      	bpl.n	80043d4 <HAL_RCC_OscConfig+0x298>
    if (pwrclkchanged == SET)
 80043e4:	2d00      	cmp	r5, #0
 80043e6:	f43f af4d 	beq.w	8004284 <HAL_RCC_OscConfig+0x148>
 80043ea:	e044      	b.n	8004476 <HAL_RCC_OscConfig+0x33a>
        __HAL_RCC_HSI_DISABLE();
 80043ec:	4a42      	ldr	r2, [pc, #264]	@ (80044f8 <HAL_RCC_OscConfig+0x3bc>)
        while (__HAL_RCC_GET_FLAG(RCC_FLAG_HSIRDY) != RESET)
 80043ee:	4e43      	ldr	r6, [pc, #268]	@ (80044fc <HAL_RCC_OscConfig+0x3c0>)
        __HAL_RCC_HSI_DISABLE();
 80043f0:	6013      	str	r3, [r2, #0]
        tickstart = HAL_GetTick();
 80043f2:	f7fd fbad 	bl	8001b50 <HAL_GetTick>
 80043f6:	4605      	mov	r5, r0
        while (__HAL_RCC_GET_FLAG(RCC_FLAG_HSIRDY) != RESET)
 80043f8:	e004      	b.n	8004404 <HAL_RCC_OscConfig+0x2c8>
          if ((HAL_GetTick() - tickstart) > HSI_TIMEOUT_VALUE)
 80043fa:	f7fd fba9 	bl	8001b50 <HAL_GetTick>
 80043fe:	1b40      	subs	r0, r0, r5
 8004400:	2802      	cmp	r0, #2
 8004402:	d8d1      	bhi.n	80043a8 <HAL_RCC_OscConfig+0x26c>
        while (__HAL_RCC_GET_FLAG(RCC_FLAG_HSIRDY) != RESET)
 8004404:	6833      	ldr	r3, [r6, #0]
 8004406:	0799      	lsls	r1, r3, #30
 8004408:	d4f7      	bmi.n	80043fa <HAL_RCC_OscConfig+0x2be>
  if (((RCC_OscInitStruct->OscillatorType) & RCC_OSCILLATORTYPE_LSI) == RCC_OSCILLATORTYPE_LSI)
 800440a:	6823      	ldr	r3, [r4, #0]
 800440c:	e6fb      	b.n	8004206 <HAL_RCC_OscConfig+0xca>
      if ((RCC_OscInitStruct->PLL.PLLState) == RCC_PLL_OFF)
 800440e:	2b01      	cmp	r3, #1
 8004410:	f43f af78 	beq.w	8004304 <HAL_RCC_OscConfig+0x1c8>
        pll_config = RCC->PLLCFGR;
 8004414:	686b      	ldr	r3, [r5, #4]
        if (((RCC_OscInitStruct->PLL.PLLState) == RCC_PLL_OFF) ||
 8004416:	69e2      	ldr	r2, [r4, #28]
            (READ_BIT(pll_config, RCC_PLLCFGR_PLLSRC) != RCC_OscInitStruct->PLL.PLLSource) ||
 8004418:	f403 0180 	and.w	r1, r3, #4194304	@ 0x400000
        if (((RCC_OscInitStruct->PLL.PLLState) == RCC_PLL_OFF) ||
 800441c:	4291      	cmp	r1, r2
 800441e:	f47f af71 	bne.w	8004304 <HAL_RCC_OscConfig+0x1c8>
            (READ_BIT(pll_config, RCC_PLLCFGR_PLLSRC) != RCC_OscInitStruct->PLL.PLLSource) ||
 8004422:	6a22      	ldr	r2, [r4, #32]
            (READ_BIT(pll_config, RCC_PLLCFGR_PLLM) != (RCC_OscInitStruct->PLL.PLLM) << RCC_PLLCFGR_PLLM_Pos) ||
 8004424:	f003 013f 	and.w	r1, r3, #63	@ 0x3f
            (READ_BIT(pll_config, RCC_PLLCFGR_PLLSRC) != RCC_OscInitStruct->PLL.PLLSource) ||
 8004428:	4291      	cmp	r1, r2
 800442a:	f47f af6b 	bne.w	8004304 <HAL_RCC_OscConfig+0x1c8>
            (READ_BIT(pll_config, RCC_PLLCFGR_PLLN) != (RCC_OscInitStruct->PLL.PLLN) << RCC_PLLCFGR_PLLN_Pos) ||
 800442e:	6a61      	ldr	r1, [r4, #36]	@ 0x24
 8004430:	f647 72c0 	movw	r2, #32704	@ 0x7fc0
 8004434:	401a      	ands	r2, r3
            (READ_BIT(pll_config, RCC_PLLCFGR_PLLM) != (RCC_OscInitStruct->PLL.PLLM) << RCC_PLLCFGR_PLLM_Pos) ||
 8004436:	ebb2 1f81 	cmp.w	r2, r1, lsl #6
 800443a:	f47f af63 	bne.w	8004304 <HAL_RCC_OscConfig+0x1c8>
            (READ_BIT(pll_config, RCC_PLLCFGR_PLLP) != (((RCC_OscInitStruct->PLL.PLLP >> 1U) - 1U)) << RCC_PLLCFGR_PLLP_Pos) ||
 800443e:	6aa2      	ldr	r2, [r4, #40]	@ 0x28
 8004440:	0852      	lsrs	r2, r2, #1
 8004442:	f403 3140 	and.w	r1, r3, #196608	@ 0x30000
 8004446:	3a01      	subs	r2, #1
            (READ_BIT(pll_config, RCC_PLLCFGR_PLLN) != (RCC_OscInitStruct->PLL.PLLN) << RCC_PLLCFGR_PLLN_Pos) ||
 8004448:	ebb1 4f02 	cmp.w	r1, r2, lsl #16
 800444c:	f47f af5a 	bne.w	8004304 <HAL_RCC_OscConfig+0x1c8>
            (READ_BIT(pll_config, RCC_PLLCFGR_PLLQ) != (RCC_OscInitStruct->PLL.PLLQ << RCC_PLLCFGR_PLLQ_Pos)))
 8004450:	6ae2      	ldr	r2, [r4, #44]	@ 0x2c
 8004452:	f003 6370 	and.w	r3, r3, #251658240	@ 0xf000000
            (READ_BIT(pll_config, RCC_PLLCFGR_PLLP) != (((RCC_OscInitStruct->PLL.PLLP >> 1U) - 1U)) << RCC_PLLCFGR_PLLP_Pos) ||
 8004456:	ebb3 6f02 	cmp.w	r3, r2, lsl #24
 800445a:	bf14      	ite	ne
 800445c:	2001      	movne	r0, #1
 800445e:	2000      	moveq	r0, #0
 8004460:	e72d      	b.n	80042be <HAL_RCC_OscConfig+0x182>
      __HAL_RCC_HSE_CONFIG(RCC_OscInitStruct->HSEState);
 8004462:	4b26      	ldr	r3, [pc, #152]	@ (80044fc <HAL_RCC_OscConfig+0x3c0>)
 8004464:	681a      	ldr	r2, [r3, #0]
 8004466:	f442 2280 	orr.w	r2, r2, #262144	@ 0x40000
 800446a:	601a      	str	r2, [r3, #0]
 800446c:	681a      	ldr	r2, [r3, #0]
 800446e:	f442 3280 	orr.w	r2, r2, #65536	@ 0x10000
 8004472:	601a      	str	r2, [r3, #0]
      if ((RCC_OscInitStruct->HSEState) != RCC_HSE_OFF)
 8004474:	e76e      	b.n	8004354 <HAL_RCC_OscConfig+0x218>
      __HAL_RCC_PWR_CLK_DISABLE();
 8004476:	4a21      	ldr	r2, [pc, #132]	@ (80044fc <HAL_RCC_OscConfig+0x3c0>)
 8004478:	6c13      	ldr	r3, [r2, #64]	@ 0x40
 800447a:	f023 5380 	bic.w	r3, r3, #268435456	@ 0x10000000
 800447e:	6413      	str	r3, [r2, #64]	@ 0x40
 8004480:	e700      	b.n	8004284 <HAL_RCC_OscConfig+0x148>
    __HAL_RCC_LSE_CONFIG(RCC_OscInitStruct->LSEState);
 8004482:	4b1e      	ldr	r3, [pc, #120]	@ (80044fc <HAL_RCC_OscConfig+0x3c0>)
 8004484:	6f1a      	ldr	r2, [r3, #112]	@ 0x70
 8004486:	f042 0204 	orr.w	r2, r2, #4
 800448a:	671a      	str	r2, [r3, #112]	@ 0x70
 800448c:	6f1a      	ldr	r2, [r3, #112]	@ 0x70
 800448e:	f042 0201 	orr.w	r2, r2, #1
 8004492:	671a      	str	r2, [r3, #112]	@ 0x70
    if ((RCC_OscInitStruct->LSEState) != RCC_LSE_OFF)
 8004494:	e791      	b.n	80043ba <HAL_RCC_OscConfig+0x27e>
        tickstart = HAL_GetTick();
 8004496:	f7fd fb5b 	bl	8001b50 <HAL_GetTick>
 800449a:	4606      	mov	r6, r0
        while (__HAL_RCC_GET_FLAG(RCC_FLAG_PLLRDY) != RESET)
 800449c:	e005      	b.n	80044aa <HAL_RCC_OscConfig+0x36e>
          if ((HAL_GetTick() - tickstart) > PLL_TIMEOUT_VALUE)
 800449e:	f7fd fb57 	bl	8001b50 <HAL_GetTick>
 80044a2:	1b80      	subs	r0, r0, r6
 80044a4:	2802      	cmp	r0, #2
 80044a6:	f63f af7f 	bhi.w	80043a8 <HAL_RCC_OscConfig+0x26c>
        while (__HAL_RCC_GET_FLAG(RCC_FLAG_PLLRDY) != RESET)
 80044aa:	682b      	ldr	r3, [r5, #0]
 80044ac:	0199      	lsls	r1, r3, #6
 80044ae:	d4f6      	bmi.n	800449e <HAL_RCC_OscConfig+0x362>
        WRITE_REG(RCC->PLLCFGR, (RCC_OscInitStruct->PLL.PLLSource                                            | \
 80044b0:	e9d4 3107 	ldrd	r3, r1, [r4, #28]
 80044b4:	6a62      	ldr	r2, [r4, #36]	@ 0x24
 80044b6:	430b      	orrs	r3, r1
 80044b8:	ea43 1382 	orr.w	r3, r3, r2, lsl #6
 80044bc:	e9d4 200a 	ldrd	r2, r0, [r4, #40]	@ 0x28
 80044c0:	0852      	lsrs	r2, r2, #1
        __HAL_RCC_PLL_ENABLE();
 80044c2:	490d      	ldr	r1, [pc, #52]	@ (80044f8 <HAL_RCC_OscConfig+0x3bc>)
        WRITE_REG(RCC->PLLCFGR, (RCC_OscInitStruct->PLL.PLLSource                                            | \
 80044c4:	ea43 6300 	orr.w	r3, r3, r0, lsl #24
 80044c8:	3a01      	subs	r2, #1
 80044ca:	ea43 4302 	orr.w	r3, r3, r2, lsl #16
        __HAL_RCC_PLL_ENABLE();
 80044ce:	2201      	movs	r2, #1
        WRITE_REG(RCC->PLLCFGR, (RCC_OscInitStruct->PLL.PLLSource                                            | \
 80044d0:	606b      	str	r3, [r5, #4]
        __HAL_RCC_PLL_ENABLE();
 80044d2:	660a      	str	r2, [r1, #96]	@ 0x60
        tickstart = HAL_GetTick();
 80044d4:	f7fd fb3c 	bl	8001b50 <HAL_GetTick>
        while (__HAL_RCC_GET_FLAG(RCC_FLAG_PLLRDY) == RESET)
 80044d8:	4d08      	ldr	r5, [pc, #32]	@ (80044fc <HAL_RCC_OscConfig+0x3c0>)
        tickstart = HAL_GetTick();
 80044da:	4604      	mov	r4, r0
        while (__HAL_RCC_GET_FLAG(RCC_FLAG_PLLRDY) == RESET)
 80044dc:	e005      	b.n	80044ea <HAL_RCC_OscConfig+0x3ae>
          if ((HAL_GetTick() - tickstart) > PLL_TIMEOUT_VALUE)
 80044de:	f7fd fb37 	bl	8001b50 <HAL_GetTick>
 80044e2:	1b00      	subs	r0, r0, r4
 80044e4:	2802      	cmp	r0, #2
 80044e6:	f63f af5f 	bhi.w	80043a8 <HAL_RCC_OscConfig+0x26c>
        while (__HAL_RCC_GET_FLAG(RCC_FLAG_PLLRDY) == RESET)
 80044ea:	682b      	ldr	r3, [r5, #0]
 80044ec:	019a      	lsls	r2, r3, #6
 80044ee:	d5f6      	bpl.n	80044de <HAL_RCC_OscConfig+0x3a2>
 80044f0:	e6e4      	b.n	80042bc <HAL_RCC_OscConfig+0x180>
    return HAL_ERROR;
 80044f2:	2001      	movs	r0, #1
}
 80044f4:	4770      	bx	lr
 80044f6:	bf00      	nop
 80044f8:	42470000 	.word	0x42470000
 80044fc:	40023800 	.word	0x40023800

08004500 <HAL_RCC_GetSysClockFreq>:
  uint32_t pllvco = 0U;
  uint32_t pllp = 0U;
  uint32_t sysclockfreq = 0U;

  /* Get SYSCLK source -------------------------------------------------------*/
  switch (RCC->CFGR & RCC_CFGR_SWS)
 8004500:	4916      	ldr	r1, [pc, #88]	@ (800455c <HAL_RCC_GetSysClockFreq+0x5c>)
{
 8004502:	b508      	push	{r3, lr}
  switch (RCC->CFGR & RCC_CFGR_SWS)
 8004504:	688b      	ldr	r3, [r1, #8]
 8004506:	f003 030c 	and.w	r3, r3, #12
 800450a:	2b04      	cmp	r3, #4
 800450c:	d01b      	beq.n	8004546 <HAL_RCC_GetSysClockFreq+0x46>
 800450e:	2b08      	cmp	r3, #8
 8004510:	d001      	beq.n	8004516 <HAL_RCC_GetSysClockFreq+0x16>
  {
    case RCC_CFGR_SWS_HSI:  /* HSI used as system clock source */
    {
      sysclockfreq = HSI_VALUE;
 8004512:	4813      	ldr	r0, [pc, #76]	@ (8004560 <HAL_RCC_GetSysClockFreq+0x60>)
      sysclockfreq = HSI_VALUE;
      break;
    }
  }
  return sysclockfreq;
}
 8004514:	bd08      	pop	{r3, pc}
      pllm = RCC->PLLCFGR & RCC_PLLCFGR_PLLM;
 8004516:	684a      	ldr	r2, [r1, #4]
      if (__HAL_RCC_GET_PLL_OSCSOURCE() != RCC_PLLSOURCE_HSI)
 8004518:	684b      	ldr	r3, [r1, #4]
        pllvco = (uint32_t)((((uint64_t) HSE_VALUE * ((uint64_t)((RCC->PLLCFGR & RCC_PLLCFGR_PLLN) >> RCC_PLLCFGR_PLLN_Pos)))) / (uint64_t)pllm);
 800451a:	6849      	ldr	r1, [r1, #4]
      if (__HAL_RCC_GET_PLL_OSCSOURCE() != RCC_PLLSOURCE_HSI)
 800451c:	f413 0380 	ands.w	r3, r3, #4194304	@ 0x400000
      pllm = RCC->PLLCFGR & RCC_PLLCFGR_PLLM;
 8004520:	f002 023f 	and.w	r2, r2, #63	@ 0x3f
      if (__HAL_RCC_GET_PLL_OSCSOURCE() != RCC_PLLSOURCE_HSI)
 8004524:	d111      	bne.n	800454a <HAL_RCC_GetSysClockFreq+0x4a>
        pllvco = (uint32_t)((((uint64_t) HSI_VALUE * ((uint64_t)((RCC->PLLCFGR & RCC_PLLCFGR_PLLN) >> RCC_PLLCFGR_PLLN_Pos)))) / (uint64_t)pllm);
 8004526:	480e      	ldr	r0, [pc, #56]	@ (8004560 <HAL_RCC_GetSysClockFreq+0x60>)
 8004528:	f3c1 1188 	ubfx	r1, r1, #6, #9
 800452c:	fba1 0100 	umull	r0, r1, r1, r0
 8004530:	f7fb fe52 	bl	80001d8 <__aeabi_uldivmod>
      pllp = ((((RCC->PLLCFGR & RCC_PLLCFGR_PLLP) >> RCC_PLLCFGR_PLLP_Pos) + 1U) * 2U);
 8004534:	4b09      	ldr	r3, [pc, #36]	@ (800455c <HAL_RCC_GetSysClockFreq+0x5c>)
 8004536:	685b      	ldr	r3, [r3, #4]
 8004538:	f3c3 4301 	ubfx	r3, r3, #16, #2
 800453c:	3301      	adds	r3, #1
 800453e:	005b      	lsls	r3, r3, #1
      sysclockfreq = pllvco / pllp;
 8004540:	fbb0 f0f3 	udiv	r0, r0, r3
}
 8004544:	bd08      	pop	{r3, pc}
  switch (RCC->CFGR & RCC_CFGR_SWS)
 8004546:	4807      	ldr	r0, [pc, #28]	@ (8004564 <HAL_RCC_GetSysClockFreq+0x64>)
}
 8004548:	bd08      	pop	{r3, pc}
        pllvco = (uint32_t)((((uint64_t) HSE_VALUE * ((uint64_t)((RCC->PLLCFGR & RCC_PLLCFGR_PLLN) >> RCC_PLLCFGR_PLLN_Pos)))) / (uint64_t)pllm);
 800454a:	4806      	ldr	r0, [pc, #24]	@ (8004564 <HAL_RCC_GetSysClockFreq+0x64>)
 800454c:	f3c1 1188 	ubfx	r1, r1, #6, #9
 8004550:	2300      	movs	r3, #0
 8004552:	fba1 0100 	umull	r0, r1, r1, r0
 8004556:	f7fb fe3f 	bl	80001d8 <__aeabi_uldivmod>
 800455a:	e7eb      	b.n	8004534 <HAL_RCC_GetSysClockFreq+0x34>
 800455c:	40023800 	.word	0x40023800
 8004560:	00f42400 	.word	0x00f42400
 8004564:	007a1200 	.word	0x007a1200

08004568 <HAL_RCC_ClockConfig>:
  if (RCC_ClkInitStruct == NULL)
 8004568:	2800      	cmp	r0, #0
 800456a:	f000 8087 	beq.w	800467c <HAL_RCC_ClockConfig+0x114>
  if (FLatency > __HAL_FLASH_GET_LATENCY())
 800456e:	4a48      	ldr	r2, [pc, #288]	@ (8004690 <HAL_RCC_ClockConfig+0x128>)
 8004570:	6813      	ldr	r3, [r2, #0]
 8004572:	f003 0307 	and.w	r3, r3, #7
 8004576:	428b      	cmp	r3, r1
{
 8004578:	e92d 41f0 	stmdb	sp!, {r4, r5, r6, r7, r8, lr}
 800457c:	460d      	mov	r5, r1
 800457e:	4604      	mov	r4, r0
  if (FLatency > __HAL_FLASH_GET_LATENCY())
 8004580:	d209      	bcs.n	8004596 <HAL_RCC_ClockConfig+0x2e>
    __HAL_FLASH_SET_LATENCY(FLatency);
 8004582:	b2cb      	uxtb	r3, r1
 8004584:	7013      	strb	r3, [r2, #0]
    if (__HAL_FLASH_GET_LATENCY() != FLatency)
 8004586:	6813      	ldr	r3, [r2, #0]
 8004588:	f003 0307 	and.w	r3, r3, #7
 800458c:	428b      	cmp	r3, r1
 800458e:	d002      	beq.n	8004596 <HAL_RCC_ClockConfig+0x2e>
    return HAL_ERROR;
 8004590:	2001      	movs	r0, #1
}
 8004592:	e8bd 81f0 	ldmia.w	sp!, {r4, r5, r6, r7, r8, pc}
  if (((RCC_ClkInitStruct->ClockType) & RCC_CLOCKTYPE_HCLK) == RCC_CLOCKTYPE_HCLK)
 8004596:	6823      	ldr	r3, [r4, #0]
 8004598:	0798      	lsls	r0, r3, #30
 800459a:	d514      	bpl.n	80045c6 <HAL_RCC_ClockConfig+0x5e>
    if (((RCC_ClkInitStruct->ClockType) & RCC_CLOCKTYPE_PCLK1) == RCC_CLOCKTYPE_PCLK1)
 800459c:	0759      	lsls	r1, r3, #29
 800459e:	d504      	bpl.n	80045aa <HAL_RCC_ClockConfig+0x42>
      MODIFY_REG(RCC->CFGR, RCC_CFGR_PPRE1, RCC_HCLK_DIV16);
 80045a0:	493c      	ldr	r1, [pc, #240]	@ (8004694 <HAL_RCC_ClockConfig+0x12c>)
 80045a2:	688a      	ldr	r2, [r1, #8]
 80045a4:	f442 52e0 	orr.w	r2, r2, #7168	@ 0x1c00
 80045a8:	608a      	str	r2, [r1, #8]
    if (((RCC_ClkInitStruct->ClockType) & RCC_CLOCKTYPE_PCLK2) == RCC_CLOCKTYPE_PCLK2)
 80045aa:	071a      	lsls	r2, r3, #28
 80045ac:	d504      	bpl.n	80045b8 <HAL_RCC_ClockConfig+0x50>
      MODIFY_REG(RCC->CFGR, RCC_CFGR_PPRE2, (RCC_HCLK_DIV16 << 3));
 80045ae:	4939      	ldr	r1, [pc, #228]	@ (8004694 <HAL_RCC_ClockConfig+0x12c>)
 80045b0:	688a      	ldr	r2, [r1, #8]
 80045b2:	f442 4260 	orr.w	r2, r2, #57344	@ 0xe000
 80045b6:	608a      	str	r2, [r1, #8]
    MODIFY_REG(RCC->CFGR, RCC_CFGR_HPRE, RCC_ClkInitStruct->AHBCLKDivider);
 80045b8:	4936      	ldr	r1, [pc, #216]	@ (8004694 <HAL_RCC_ClockConfig+0x12c>)
 80045ba:	68a0      	ldr	r0, [r4, #8]
 80045bc:	688a      	ldr	r2, [r1, #8]
 80045be:	f022 02f0 	bic.w	r2, r2, #240	@ 0xf0
 80045c2:	4302      	orrs	r2, r0
 80045c4:	608a      	str	r2, [r1, #8]
  if (((RCC_ClkInitStruct->ClockType) & RCC_CLOCKTYPE_SYSCLK) == RCC_CLOCKTYPE_SYSCLK)
 80045c6:	07df      	lsls	r7, r3, #31
 80045c8:	d521      	bpl.n	800460e <HAL_RCC_ClockConfig+0xa6>
    if (RCC_ClkInitStruct->SYSCLKSource == RCC_SYSCLKSOURCE_HSE)
 80045ca:	6862      	ldr	r2, [r4, #4]
 80045cc:	2a01      	cmp	r2, #1
 80045ce:	d057      	beq.n	8004680 <HAL_RCC_ClockConfig+0x118>
    else if ((RCC_ClkInitStruct->SYSCLKSource == RCC_SYSCLKSOURCE_PLLCLK)   ||
 80045d0:	1e93      	subs	r3, r2, #2
 80045d2:	2b01      	cmp	r3, #1
      if (__HAL_RCC_GET_FLAG(RCC_FLAG_PLLRDY) == RESET)
 80045d4:	4b2f      	ldr	r3, [pc, #188]	@ (8004694 <HAL_RCC_ClockConfig+0x12c>)
 80045d6:	681b      	ldr	r3, [r3, #0]
    else if ((RCC_ClkInitStruct->SYSCLKSource == RCC_SYSCLKSOURCE_PLLCLK)   ||
 80045d8:	d94d      	bls.n	8004676 <HAL_RCC_ClockConfig+0x10e>
      if (__HAL_RCC_GET_FLAG(RCC_FLAG_HSIRDY) == RESET)
 80045da:	0799      	lsls	r1, r3, #30
 80045dc:	d5d8      	bpl.n	8004590 <HAL_RCC_ClockConfig+0x28>
    __HAL_RCC_SYSCLK_CONFIG(RCC_ClkInitStruct->SYSCLKSource);
 80045de:	4e2d      	ldr	r6, [pc, #180]	@ (8004694 <HAL_RCC_ClockConfig+0x12c>)
 80045e0:	68b3      	ldr	r3, [r6, #8]
 80045e2:	f023 0303 	bic.w	r3, r3, #3
 80045e6:	4313      	orrs	r3, r2
 80045e8:	60b3      	str	r3, [r6, #8]
    tickstart = HAL_GetTick();
 80045ea:	f7fd fab1 	bl	8001b50 <HAL_GetTick>
      if ((HAL_GetTick() - tickstart) > CLOCKSWITCH_TIMEOUT_VALUE)
 80045ee:	f241 3888 	movw	r8, #5000	@ 0x1388
    tickstart = HAL_GetTick();
 80045f2:	4607      	mov	r7, r0
    while (__HAL_RCC_GET_SYSCLK_SOURCE() != (RCC_ClkInitStruct->SYSCLKSource << RCC_CFGR_SWS_Pos))
 80045f4:	e004      	b.n	8004600 <HAL_RCC_ClockConfig+0x98>
      if ((HAL_GetTick() - tickstart) > CLOCKSWITCH_TIMEOUT_VALUE)
 80045f6:	f7fd faab 	bl	8001b50 <HAL_GetTick>
 80045fa:	1bc0      	subs	r0, r0, r7
 80045fc:	4540      	cmp	r0, r8
 80045fe:	d844      	bhi.n	800468a <HAL_RCC_ClockConfig+0x122>
    while (__HAL_RCC_GET_SYSCLK_SOURCE() != (RCC_ClkInitStruct->SYSCLKSource << RCC_CFGR_SWS_Pos))
 8004600:	68b3      	ldr	r3, [r6, #8]
 8004602:	6862      	ldr	r2, [r4, #4]
 8004604:	f003 030c 	and.w	r3, r3, #12
 8004608:	ebb3 0f82 	cmp.w	r3, r2, lsl #2
 800460c:	d1f3      	bne.n	80045f6 <HAL_RCC_ClockConfig+0x8e>
  if (FLatency < __HAL_FLASH_GET_LATENCY())
 800460e:	4a20      	ldr	r2, [pc, #128]	@ (8004690 <HAL_RCC_ClockConfig+0x128>)
 8004610:	6813      	ldr	r3, [r2, #0]
 8004612:	f003 0307 	and.w	r3, r3, #7
 8004616:	42ab      	cmp	r3, r5
 8004618:	d906      	bls.n	8004628 <HAL_RCC_ClockConfig+0xc0>
    __HAL_FLASH_SET_LATENCY(FLatency);
 800461a:	b2eb      	uxtb	r3, r5
 800461c:	7013      	strb	r3, [r2, #0]
    if (__HAL_FLASH_GET_LATENCY() != FLatency)
 800461e:	6813      	ldr	r3, [r2, #0]
 8004620:	f003 0307 	and.w	r3, r3, #7
 8004624:	42ab      	cmp	r3, r5
 8004626:	d1b3      	bne.n	8004590 <HAL_RCC_ClockConfig+0x28>
  if (((RCC_ClkInitStruct->ClockType) & RCC_CLOCKTYPE_PCLK1) == RCC_CLOCKTYPE_PCLK1)
 8004628:	6823      	ldr	r3, [r4, #0]
 800462a:	075a      	lsls	r2, r3, #29
 800462c:	d506      	bpl.n	800463c <HAL_RCC_ClockConfig+0xd4>
    MODIFY_REG(RCC->CFGR, RCC_CFGR_PPRE1, RCC_ClkInitStruct->APB1CLKDivider);
 800462e:	4919      	ldr	r1, [pc, #100]	@ (8004694 <HAL_RCC_ClockConfig+0x12c>)
 8004630:	68e0      	ldr	r0, [r4, #12]
 8004632:	688a      	ldr	r2, [r1, #8]
 8004634:	f422 52e0 	bic.w	r2, r2, #7168	@ 0x1c00
 8004638:	4302      	orrs	r2, r0
 800463a:	608a      	str	r2, [r1, #8]
  if (((RCC_ClkInitStruct->ClockType) & RCC_CLOCKTYPE_PCLK2) == RCC_CLOCKTYPE_PCLK2)
 800463c:	071b      	lsls	r3, r3, #28
 800463e:	d507      	bpl.n	8004650 <HAL_RCC_ClockConfig+0xe8>
    MODIFY_REG(RCC->CFGR, RCC_CFGR_PPRE2, ((RCC_ClkInitStruct->APB2CLKDivider) << 3U));
 8004640:	4a14      	ldr	r2, [pc, #80]	@ (8004694 <HAL_RCC_ClockConfig+0x12c>)
 8004642:	6921      	ldr	r1, [r4, #16]
 8004644:	6893      	ldr	r3, [r2, #8]
 8004646:	f423 4360 	bic.w	r3, r3, #57344	@ 0xe000
 800464a:	ea43 03c1 	orr.w	r3, r3, r1, lsl #3
 800464e:	6093      	str	r3, [r2, #8]
  SystemCoreClock = HAL_RCC_GetSysClockFreq() >> AHBPrescTable[(RCC->CFGR & RCC_CFGR_HPRE) >> RCC_CFGR_HPRE_Pos];
 8004650:	f7ff ff56 	bl	8004500 <HAL_RCC_GetSysClockFreq>
 8004654:	4a0f      	ldr	r2, [pc, #60]	@ (8004694 <HAL_RCC_ClockConfig+0x12c>)
 8004656:	4c10      	ldr	r4, [pc, #64]	@ (8004698 <HAL_RCC_ClockConfig+0x130>)
 8004658:	6892      	ldr	r2, [r2, #8]
 800465a:	4910      	ldr	r1, [pc, #64]	@ (800469c <HAL_RCC_ClockConfig+0x134>)
 800465c:	f3c2 1203 	ubfx	r2, r2, #4, #4
 8004660:	4603      	mov	r3, r0
 8004662:	5ca2      	ldrb	r2, [r4, r2]
  HAL_InitTick(uwTickPrio);
 8004664:	480e      	ldr	r0, [pc, #56]	@ (80046a0 <HAL_RCC_ClockConfig+0x138>)
  SystemCoreClock = HAL_RCC_GetSysClockFreq() >> AHBPrescTable[(RCC->CFGR & RCC_CFGR_HPRE) >> RCC_CFGR_HPRE_Pos];
 8004666:	40d3      	lsrs	r3, r2
  HAL_InitTick(uwTickPrio);
 8004668:	6800      	ldr	r0, [r0, #0]
  SystemCoreClock = HAL_RCC_GetSysClockFreq() >> AHBPrescTable[(RCC->CFGR & RCC_CFGR_HPRE) >> RCC_CFGR_HPRE_Pos];
 800466a:	600b      	str	r3, [r1, #0]
  HAL_InitTick(uwTickPrio);
 800466c:	f7fd fa26 	bl	8001abc <HAL_InitTick>
  return HAL_OK;
 8004670:	2000      	movs	r0, #0
}
 8004672:	e8bd 81f0 	ldmia.w	sp!, {r4, r5, r6, r7, r8, pc}
      if (__HAL_RCC_GET_FLAG(RCC_FLAG_PLLRDY) == RESET)
 8004676:	0198      	lsls	r0, r3, #6
 8004678:	d4b1      	bmi.n	80045de <HAL_RCC_ClockConfig+0x76>
 800467a:	e789      	b.n	8004590 <HAL_RCC_ClockConfig+0x28>
    return HAL_ERROR;
 800467c:	2001      	movs	r0, #1
}
 800467e:	4770      	bx	lr
      if (__HAL_RCC_GET_FLAG(RCC_FLAG_HSERDY) == RESET)
 8004680:	4b04      	ldr	r3, [pc, #16]	@ (8004694 <HAL_RCC_ClockConfig+0x12c>)
 8004682:	681b      	ldr	r3, [r3, #0]
 8004684:	039e      	lsls	r6, r3, #14
 8004686:	d4aa      	bmi.n	80045de <HAL_RCC_ClockConfig+0x76>
 8004688:	e782      	b.n	8004590 <HAL_RCC_ClockConfig+0x28>
        return HAL_TIMEOUT;
 800468a:	2003      	movs	r0, #3
 800468c:	e781      	b.n	8004592 <HAL_RCC_ClockConfig+0x2a>
 800468e:	bf00      	nop
 8004690:	40023c00 	.word	0x40023c00
 8004694:	40023800 	.word	0x40023800
 8004698:	080079d0 	.word	0x080079d0
 800469c:	20000008 	.word	0x20000008
 80046a0:	20000010 	.word	0x20000010

080046a4 <HAL_RCC_GetHCLKFreq>:
  *         and updated within this function
  * @retval HCLK frequency
  */
uint32_t HAL_RCC_GetHCLKFreq(void)
{
  return SystemCoreClock;
 80046a4:	4b01      	ldr	r3, [pc, #4]	@ (80046ac <HAL_RCC_GetHCLKFreq+0x8>)
}
 80046a6:	6818      	ldr	r0, [r3, #0]
 80046a8:	4770      	bx	lr
 80046aa:	bf00      	nop
 80046ac:	20000008 	.word	0x20000008

080046b0 <HAL_RCCEx_PeriphCLKConfig>:
  *        domain (RTC and RCC_BDCR register expect BKPSRAM) will be reset
  *
  * @retval HAL status
  */
HAL_StatusTypeDef HAL_RCCEx_PeriphCLKConfig(RCC_PeriphCLKInitTypeDef  *PeriphClkInit)
{
 80046b0:	b5f0      	push	{r4, r5, r6, r7, lr}

  /* Check the parameters */
  assert_param(IS_RCC_PERIPHCLOCK(PeriphClkInit->PeriphClockSelection));

  /*---------------------------- I2S configuration ---------------------------*/
  if ((((PeriphClkInit->PeriphClockSelection) & RCC_PERIPHCLK_I2S) == RCC_PERIPHCLK_I2S) ||
 80046b2:	6803      	ldr	r3, [r0, #0]
 80046b4:	f013 0f05 	tst.w	r3, #5
{
 80046b8:	b083      	sub	sp, #12
 80046ba:	4604      	mov	r4, r0
  if ((((PeriphClkInit->PeriphClockSelection) & RCC_PERIPHCLK_I2S) == RCC_PERIPHCLK_I2S) ||
 80046bc:	d104      	bne.n	80046c8 <HAL_RCCEx_PeriphCLKConfig+0x18>
      }
    }
  }

  /*---------------------------- RTC configuration ---------------------------*/
  if (((PeriphClkInit->PeriphClockSelection) & RCC_PERIPHCLK_RTC) == (RCC_PERIPHCLK_RTC))
 80046be:	0798      	lsls	r0, r3, #30
 80046c0:	d43b      	bmi.n	800473a <HAL_RCCEx_PeriphCLKConfig+0x8a>
  if (((PeriphClkInit->PeriphClockSelection) & RCC_PERIPHCLK_TIM) == (RCC_PERIPHCLK_TIM))
  {
    __HAL_RCC_TIMCLKPRESCALER(PeriphClkInit->TIMPresSelection);
  }
#endif /* STM32F401xC || STM32F401xE || STM32F411xE */
  return HAL_OK;
 80046c2:	2000      	movs	r0, #0
}
 80046c4:	b003      	add	sp, #12
 80046c6:	bdf0      	pop	{r4, r5, r6, r7, pc}
    __HAL_RCC_PLLI2S_DISABLE();
 80046c8:	4b45      	ldr	r3, [pc, #276]	@ (80047e0 <HAL_RCCEx_PeriphCLKConfig+0x130>)
    while (__HAL_RCC_GET_FLAG(RCC_FLAG_PLLI2SRDY)  != RESET)
 80046ca:	4e46      	ldr	r6, [pc, #280]	@ (80047e4 <HAL_RCCEx_PeriphCLKConfig+0x134>)
    __HAL_RCC_PLLI2S_DISABLE();
 80046cc:	2200      	movs	r2, #0
 80046ce:	669a      	str	r2, [r3, #104]	@ 0x68
    tickstart = HAL_GetTick();
 80046d0:	f7fd fa3e 	bl	8001b50 <HAL_GetTick>
 80046d4:	4605      	mov	r5, r0
    while (__HAL_RCC_GET_FLAG(RCC_FLAG_PLLI2SRDY)  != RESET)
 80046d6:	e004      	b.n	80046e2 <HAL_RCCEx_PeriphCLKConfig+0x32>
      if ((HAL_GetTick() - tickstart) > PLLI2S_TIMEOUT_VALUE)
 80046d8:	f7fd fa3a 	bl	8001b50 <HAL_GetTick>
 80046dc:	1b43      	subs	r3, r0, r5
 80046de:	2b02      	cmp	r3, #2
 80046e0:	d828      	bhi.n	8004734 <HAL_RCCEx_PeriphCLKConfig+0x84>
    while (__HAL_RCC_GET_FLAG(RCC_FLAG_PLLI2SRDY)  != RESET)
 80046e2:	6833      	ldr	r3, [r6, #0]
 80046e4:	011b      	lsls	r3, r3, #4
 80046e6:	d4f7      	bmi.n	80046d8 <HAL_RCCEx_PeriphCLKConfig+0x28>
    __HAL_RCC_PLLI2S_CONFIG(PeriphClkInit->PLLI2S.PLLI2SN, PeriphClkInit->PLLI2S.PLLI2SR);
 80046e8:	e9d4 1301 	ldrd	r1, r3, [r4, #4]
 80046ec:	071b      	lsls	r3, r3, #28
 80046ee:	ea43 1381 	orr.w	r3, r3, r1, lsl #6
    __HAL_RCC_PLLI2S_ENABLE();
 80046f2:	4a3b      	ldr	r2, [pc, #236]	@ (80047e0 <HAL_RCCEx_PeriphCLKConfig+0x130>)
    __HAL_RCC_PLLI2S_CONFIG(PeriphClkInit->PLLI2S.PLLI2SN, PeriphClkInit->PLLI2S.PLLI2SR);
 80046f4:	f8c6 3084 	str.w	r3, [r6, #132]	@ 0x84
    __HAL_RCC_PLLI2S_ENABLE();
 80046f8:	2301      	movs	r3, #1
 80046fa:	6693      	str	r3, [r2, #104]	@ 0x68
    tickstart = HAL_GetTick();
 80046fc:	f7fd fa28 	bl	8001b50 <HAL_GetTick>
    while (__HAL_RCC_GET_FLAG(RCC_FLAG_PLLI2SRDY)  == RESET)
 8004700:	4e38      	ldr	r6, [pc, #224]	@ (80047e4 <HAL_RCCEx_PeriphCLKConfig+0x134>)
    tickstart = HAL_GetTick();
 8004702:	4605      	mov	r5, r0
    while (__HAL_RCC_GET_FLAG(RCC_FLAG_PLLI2SRDY)  == RESET)
 8004704:	e004      	b.n	8004710 <HAL_RCCEx_PeriphCLKConfig+0x60>
      if ((HAL_GetTick() - tickstart) > PLLI2S_TIMEOUT_VALUE)
 8004706:	f7fd fa23 	bl	8001b50 <HAL_GetTick>
 800470a:	1b43      	subs	r3, r0, r5
 800470c:	2b02      	cmp	r3, #2
 800470e:	d811      	bhi.n	8004734 <HAL_RCCEx_PeriphCLKConfig+0x84>
    while (__HAL_RCC_GET_FLAG(RCC_FLAG_PLLI2SRDY)  == RESET)
 8004710:	6833      	ldr	r3, [r6, #0]
 8004712:	011f      	lsls	r7, r3, #4
 8004714:	d5f7      	bpl.n	8004706 <HAL_RCCEx_PeriphCLKConfig+0x56>
  if (((PeriphClkInit->PeriphClockSelection) & RCC_PERIPHCLK_RTC) == (RCC_PERIPHCLK_RTC))
 8004716:	6823      	ldr	r3, [r4, #0]
 8004718:	e7d1      	b.n	80046be <HAL_RCCEx_PeriphCLKConfig+0xe>
        tickstart = HAL_GetTick();
 800471a:	f7fd fa19 	bl	8001b50 <HAL_GetTick>
          if ((HAL_GetTick() - tickstart) > RCC_LSE_TIMEOUT_VALUE)
 800471e:	f241 3788 	movw	r7, #5000	@ 0x1388
        tickstart = HAL_GetTick();
 8004722:	4606      	mov	r6, r0
        while (__HAL_RCC_GET_FLAG(RCC_FLAG_LSERDY) == RESET)
 8004724:	6f2b      	ldr	r3, [r5, #112]	@ 0x70
 8004726:	079b      	lsls	r3, r3, #30
 8004728:	d43c      	bmi.n	80047a4 <HAL_RCCEx_PeriphCLKConfig+0xf4>
          if ((HAL_GetTick() - tickstart) > RCC_LSE_TIMEOUT_VALUE)
 800472a:	f7fd fa11 	bl	8001b50 <HAL_GetTick>
 800472e:	1b80      	subs	r0, r0, r6
 8004730:	42b8      	cmp	r0, r7
 8004732:	d9f7      	bls.n	8004724 <HAL_RCCEx_PeriphCLKConfig+0x74>
        return HAL_TIMEOUT;
 8004734:	2003      	movs	r0, #3
}
 8004736:	b003      	add	sp, #12
 8004738:	bdf0      	pop	{r4, r5, r6, r7, pc}
    __HAL_RCC_PWR_CLK_ENABLE();
 800473a:	4b2a      	ldr	r3, [pc, #168]	@ (80047e4 <HAL_RCCEx_PeriphCLKConfig+0x134>)
    PWR->CR |= PWR_CR_DBP;
 800473c:	4d2a      	ldr	r5, [pc, #168]	@ (80047e8 <HAL_RCCEx_PeriphCLKConfig+0x138>)
    __HAL_RCC_PWR_CLK_ENABLE();
 800473e:	2200      	movs	r2, #0
 8004740:	9201      	str	r2, [sp, #4]
 8004742:	6c1a      	ldr	r2, [r3, #64]	@ 0x40
 8004744:	f042 5280 	orr.w	r2, r2, #268435456	@ 0x10000000
 8004748:	641a      	str	r2, [r3, #64]	@ 0x40
 800474a:	6c1b      	ldr	r3, [r3, #64]	@ 0x40
 800474c:	f003 5380 	and.w	r3, r3, #268435456	@ 0x10000000
 8004750:	9301      	str	r3, [sp, #4]
 8004752:	9b01      	ldr	r3, [sp, #4]
    PWR->CR |= PWR_CR_DBP;
 8004754:	682b      	ldr	r3, [r5, #0]
 8004756:	f443 7380 	orr.w	r3, r3, #256	@ 0x100
 800475a:	602b      	str	r3, [r5, #0]
    tickstart = HAL_GetTick();
 800475c:	f7fd f9f8 	bl	8001b50 <HAL_GetTick>
 8004760:	4606      	mov	r6, r0
    while ((PWR->CR & PWR_CR_DBP) == RESET)
 8004762:	e004      	b.n	800476e <HAL_RCCEx_PeriphCLKConfig+0xbe>
      if ((HAL_GetTick() - tickstart) > RCC_DBP_TIMEOUT_VALUE)
 8004764:	f7fd f9f4 	bl	8001b50 <HAL_GetTick>
 8004768:	1b83      	subs	r3, r0, r6
 800476a:	2b02      	cmp	r3, #2
 800476c:	d8e2      	bhi.n	8004734 <HAL_RCCEx_PeriphCLKConfig+0x84>
    while ((PWR->CR & PWR_CR_DBP) == RESET)
 800476e:	682b      	ldr	r3, [r5, #0]
 8004770:	05d9      	lsls	r1, r3, #23
 8004772:	d5f7      	bpl.n	8004764 <HAL_RCCEx_PeriphCLKConfig+0xb4>
    tmpreg1 = (RCC->BDCR & RCC_BDCR_RTCSEL);
 8004774:	4d1b      	ldr	r5, [pc, #108]	@ (80047e4 <HAL_RCCEx_PeriphCLKConfig+0x134>)
    if ((tmpreg1 != 0x00000000U) && ((tmpreg1) != (PeriphClkInit->RTCClockSelection & RCC_BDCR_RTCSEL)))
 8004776:	68e3      	ldr	r3, [r4, #12]
    tmpreg1 = (RCC->BDCR & RCC_BDCR_RTCSEL);
 8004778:	6f2a      	ldr	r2, [r5, #112]	@ 0x70
    if ((tmpreg1 != 0x00000000U) && ((tmpreg1) != (PeriphClkInit->RTCClockSelection & RCC_BDCR_RTCSEL)))
 800477a:	f412 7240 	ands.w	r2, r2, #768	@ 0x300
 800477e:	f403 7140 	and.w	r1, r3, #768	@ 0x300
 8004782:	d012      	beq.n	80047aa <HAL_RCCEx_PeriphCLKConfig+0xfa>
 8004784:	428a      	cmp	r2, r1
 8004786:	d010      	beq.n	80047aa <HAL_RCCEx_PeriphCLKConfig+0xfa>
      tmpreg1 = (RCC->BDCR & ~(RCC_BDCR_RTCSEL));
 8004788:	6f2b      	ldr	r3, [r5, #112]	@ 0x70
      __HAL_RCC_BACKUPRESET_FORCE();
 800478a:	4a15      	ldr	r2, [pc, #84]	@ (80047e0 <HAL_RCCEx_PeriphCLKConfig+0x130>)
 800478c:	2101      	movs	r1, #1
 800478e:	f8c2 1e40 	str.w	r1, [r2, #3648]	@ 0xe40
      tmpreg1 = (RCC->BDCR & ~(RCC_BDCR_RTCSEL));
 8004792:	f423 7340 	bic.w	r3, r3, #768	@ 0x300
      __HAL_RCC_BACKUPRESET_RELEASE();
 8004796:	2100      	movs	r1, #0
 8004798:	f8c2 1e40 	str.w	r1, [r2, #3648]	@ 0xe40
      RCC->BDCR = tmpreg1;
 800479c:	672b      	str	r3, [r5, #112]	@ 0x70
      if (HAL_IS_BIT_SET(RCC->BDCR, RCC_BDCR_LSEON))
 800479e:	6f2b      	ldr	r3, [r5, #112]	@ 0x70
 80047a0:	07da      	lsls	r2, r3, #31
 80047a2:	d4ba      	bmi.n	800471a <HAL_RCCEx_PeriphCLKConfig+0x6a>
    __HAL_RCC_RTC_CONFIG(PeriphClkInit->RTCClockSelection);
 80047a4:	68e3      	ldr	r3, [r4, #12]
 80047a6:	f403 7140 	and.w	r1, r3, #768	@ 0x300
 80047aa:	f5b1 7f40 	cmp.w	r1, #768	@ 0x300
 80047ae:	d00b      	beq.n	80047c8 <HAL_RCCEx_PeriphCLKConfig+0x118>
 80047b0:	490c      	ldr	r1, [pc, #48]	@ (80047e4 <HAL_RCCEx_PeriphCLKConfig+0x134>)
 80047b2:	688a      	ldr	r2, [r1, #8]
 80047b4:	f422 12f8 	bic.w	r2, r2, #2031616	@ 0x1f0000
 80047b8:	608a      	str	r2, [r1, #8]
 80047ba:	4a0a      	ldr	r2, [pc, #40]	@ (80047e4 <HAL_RCCEx_PeriphCLKConfig+0x134>)
 80047bc:	6f11      	ldr	r1, [r2, #112]	@ 0x70
 80047be:	f3c3 030b 	ubfx	r3, r3, #0, #12
 80047c2:	430b      	orrs	r3, r1
 80047c4:	6713      	str	r3, [r2, #112]	@ 0x70
 80047c6:	e77c      	b.n	80046c2 <HAL_RCCEx_PeriphCLKConfig+0x12>
 80047c8:	4806      	ldr	r0, [pc, #24]	@ (80047e4 <HAL_RCCEx_PeriphCLKConfig+0x134>)
 80047ca:	6882      	ldr	r2, [r0, #8]
 80047cc:	f023 4170 	bic.w	r1, r3, #4026531840	@ 0xf0000000
 80047d0:	f421 7140 	bic.w	r1, r1, #768	@ 0x300
 80047d4:	f422 12f8 	bic.w	r2, r2, #2031616	@ 0x1f0000
 80047d8:	430a      	orrs	r2, r1
 80047da:	6082      	str	r2, [r0, #8]
 80047dc:	e7ed      	b.n	80047ba <HAL_RCCEx_PeriphCLKConfig+0x10a>
 80047de:	bf00      	nop
 80047e0:	42470000 	.word	0x42470000
 80047e4:	40023800 	.word	0x40023800
 80047e8:	40007000 	.word	0x40007000

080047ec <HAL_RCCEx_GetPeriphCLKFreq>:
  /* This variable used to store the VCO Input (value in Hz) */
  uint32_t vcoinput = 0U;
  uint32_t srcclk = 0U;
  /* This variable used to store the VCO Output (value in Hz) */
  uint32_t vcooutput = 0U;
  switch (PeriphClk)
 80047ec:	2801      	cmp	r0, #1
 80047ee:	d001      	beq.n	80047f4 <HAL_RCCEx_GetPeriphCLKFreq+0x8>
  uint32_t frequency = 0U;
 80047f0:	2000      	movs	r0, #0
 80047f2:	4770      	bx	lr
  {
    case RCC_PERIPHCLK_I2S:
    {
      /* Get the current I2S source */
      srcclk = __HAL_RCC_GET_I2S_SOURCE();
 80047f4:	4b0e      	ldr	r3, [pc, #56]	@ (8004830 <HAL_RCCEx_GetPeriphCLKFreq+0x44>)
 80047f6:	689a      	ldr	r2, [r3, #8]
      switch (srcclk)
 80047f8:	0211      	lsls	r1, r2, #8
 80047fa:	d501      	bpl.n	8004800 <HAL_RCCEx_GetPeriphCLKFreq+0x14>
      {
        /* Check if I2S clock selection is External clock mapped on the I2S_CKIN pin used as I2S clock */
        case RCC_I2SCLKSOURCE_EXT:
        {
          /* Set the I2S clock to the external clock  value */
          frequency = EXTERNAL_CLOCK_VALUE;
 80047fc:	480d      	ldr	r0, [pc, #52]	@ (8004834 <HAL_RCCEx_GetPeriphCLKFreq+0x48>)
    {
      break;
    }
  }
  return frequency;
}
 80047fe:	4770      	bx	lr
          if ((RCC->PLLCFGR & RCC_PLLCFGR_PLLSRC) == RCC_PLLSOURCE_HSE)
 8004800:	685a      	ldr	r2, [r3, #4]
            vcoinput = (uint32_t)(HSE_VALUE / (uint32_t)(RCC->PLLCFGR & RCC_PLLCFGR_PLLM));
 8004802:	685b      	ldr	r3, [r3, #4]
          if ((RCC->PLLCFGR & RCC_PLLCFGR_PLLSRC) == RCC_PLLSOURCE_HSE)
 8004804:	0252      	lsls	r2, r2, #9
            vcoinput = (uint32_t)(HSE_VALUE / (uint32_t)(RCC->PLLCFGR & RCC_PLLCFGR_PLLM));
 8004806:	bf4c      	ite	mi
 8004808:	4a0b      	ldrmi	r2, [pc, #44]	@ (8004838 <HAL_RCCEx_GetPeriphCLKFreq+0x4c>)
            vcoinput = (uint32_t)(HSI_VALUE / (uint32_t)(RCC->PLLCFGR & RCC_PLLCFGR_PLLM));
 800480a:	4a0c      	ldrpl	r2, [pc, #48]	@ (800483c <HAL_RCCEx_GetPeriphCLKFreq+0x50>)
 800480c:	f003 033f 	and.w	r3, r3, #63	@ 0x3f
 8004810:	fbb2 f2f3 	udiv	r2, r2, r3
          vcooutput = (uint32_t)(vcoinput * (((RCC->PLLI2SCFGR & RCC_PLLI2SCFGR_PLLI2SN) >> 6U) & (RCC_PLLI2SCFGR_PLLI2SN >> 6U)));
 8004814:	4b06      	ldr	r3, [pc, #24]	@ (8004830 <HAL_RCCEx_GetPeriphCLKFreq+0x44>)
 8004816:	f8d3 0084 	ldr.w	r0, [r3, #132]	@ 0x84
          frequency = (uint32_t)(vcooutput / (((RCC->PLLI2SCFGR & RCC_PLLI2SCFGR_PLLI2SR) >> 28U) & (RCC_PLLI2SCFGR_PLLI2SR >> 28U)));
 800481a:	f8d3 3084 	ldr.w	r3, [r3, #132]	@ 0x84
          vcooutput = (uint32_t)(vcoinput * (((RCC->PLLI2SCFGR & RCC_PLLI2SCFGR_PLLI2SN) >> 6U) & (RCC_PLLI2SCFGR_PLLI2SN >> 6U)));
 800481e:	f3c0 1088 	ubfx	r0, r0, #6, #9
 8004822:	fb02 f000 	mul.w	r0, r2, r0
          frequency = (uint32_t)(vcooutput / (((RCC->PLLI2SCFGR & RCC_PLLI2SCFGR_PLLI2SR) >> 28U) & (RCC_PLLI2SCFGR_PLLI2SR >> 28U)));
 8004826:	f3c3 7302 	ubfx	r3, r3, #28, #3
 800482a:	fbb0 f0f3 	udiv	r0, r0, r3
          break;
 800482e:	4770      	bx	lr
 8004830:	40023800 	.word	0x40023800
 8004834:	00bb8000 	.word	0x00bb8000
 8004838:	007a1200 	.word	0x007a1200
 800483c:	00f42400 	.word	0x00f42400

08004840 <USB_CoreInit>:
  * @param  cfg pointer to a USB_OTG_CfgTypeDef structure that contains
  *         the configuration information for the specified USBx peripheral.
  * @retval HAL status
  */
HAL_StatusTypeDef USB_CoreInit(USB_OTG_GlobalTypeDef *USBx, USB_OTG_CfgTypeDef cfg)
{
 8004840:	b084      	sub	sp, #16
 8004842:	b082      	sub	sp, #8
 8004844:	f10d 0c0c 	add.w	ip, sp, #12
 8004848:	e88c 000e 	stmia.w	ip, {r1, r2, r3}
  HAL_StatusTypeDef ret;
  if (cfg.phy_itface == USB_OTG_ULPI_PHY)
 800484c:	f89d 2011 	ldrb.w	r2, [sp, #17]
 8004850:	2a01      	cmp	r2, #1
{
 8004852:	4603      	mov	r3, r0
  if (cfg.phy_itface == USB_OTG_ULPI_PHY)
 8004854:	d12e      	bne.n	80048b4 <USB_CoreInit+0x74>
  {
    USBx->GCCFG &= ~(USB_OTG_GCCFG_PWRDWN);
 8004856:	6b82      	ldr	r2, [r0, #56]	@ 0x38
    /* Init The ULPI Interface */
    USBx->GUSBCFG &= ~(USB_OTG_GUSBCFG_TSDPS | USB_OTG_GUSBCFG_ULPIFSLS | USB_OTG_GUSBCFG_PHYSEL);

    /* Select vbus source */
    USBx->GUSBCFG &= ~(USB_OTG_GUSBCFG_ULPIEVBUSD | USB_OTG_GUSBCFG_ULPIEVBUSI);
    if (cfg.use_external_vbus == 1U)
 8004858:	f89d 1018 	ldrb.w	r1, [sp, #24]
    USBx->GCCFG &= ~(USB_OTG_GCCFG_PWRDWN);
 800485c:	f422 3280 	bic.w	r2, r2, #65536	@ 0x10000
 8004860:	6382      	str	r2, [r0, #56]	@ 0x38
    USBx->GUSBCFG &= ~(USB_OTG_GUSBCFG_TSDPS | USB_OTG_GUSBCFG_ULPIFSLS | USB_OTG_GUSBCFG_PHYSEL);
 8004862:	68c2      	ldr	r2, [r0, #12]
 8004864:	f422 0284 	bic.w	r2, r2, #4325376	@ 0x420000
 8004868:	f022 0240 	bic.w	r2, r2, #64	@ 0x40
 800486c:	60c2      	str	r2, [r0, #12]
    USBx->GUSBCFG &= ~(USB_OTG_GUSBCFG_ULPIEVBUSD | USB_OTG_GUSBCFG_ULPIEVBUSI);
 800486e:	68c2      	ldr	r2, [r0, #12]
    if (cfg.use_external_vbus == 1U)
 8004870:	2901      	cmp	r1, #1
    USBx->GUSBCFG &= ~(USB_OTG_GUSBCFG_ULPIEVBUSD | USB_OTG_GUSBCFG_ULPIEVBUSI);
 8004872:	f422 1240 	bic.w	r2, r2, #3145728	@ 0x300000
 8004876:	60c2      	str	r2, [r0, #12]
    if (cfg.use_external_vbus == 1U)
 8004878:	d071      	beq.n	800495e <USB_CoreInit+0x11e>
  * @param  USBx  Selected device
  * @retval HAL status
  */
static HAL_StatusTypeDef USB_CoreReset(USB_OTG_GlobalTypeDef *USBx)
{
  __IO uint32_t count = 0U;
 800487a:	2200      	movs	r2, #0
 800487c:	9200      	str	r2, [sp, #0]
 800487e:	e002      	b.n	8004886 <USB_CoreInit+0x46>

    if (count > HAL_USB_TIMEOUT)
    {
      return HAL_TIMEOUT;
    }
  } while ((USBx->GRSTCTL & USB_OTG_GRSTCTL_AHBIDL) == 0U);
 8004880:	691a      	ldr	r2, [r3, #16]
 8004882:	2a00      	cmp	r2, #0
 8004884:	db30      	blt.n	80048e8 <USB_CoreInit+0xa8>
    count++;
 8004886:	9a00      	ldr	r2, [sp, #0]
 8004888:	3201      	adds	r2, #1
 800488a:	9200      	str	r2, [sp, #0]
    if (count > HAL_USB_TIMEOUT)
 800488c:	9a00      	ldr	r2, [sp, #0]
 800488e:	f1b2 6f70 	cmp.w	r2, #251658240	@ 0xf000000
 8004892:	d9f5      	bls.n	8004880 <USB_CoreInit+0x40>
      return HAL_TIMEOUT;
 8004894:	2003      	movs	r0, #3
  if (cfg.dma_enable == 1U)
 8004896:	f89d 200e 	ldrb.w	r2, [sp, #14]
 800489a:	2a01      	cmp	r2, #1
 800489c:	d107      	bne.n	80048ae <USB_CoreInit+0x6e>
    USBx->GAHBCFG |= USB_OTG_GAHBCFG_HBSTLEN_2;
 800489e:	689a      	ldr	r2, [r3, #8]
 80048a0:	f042 0206 	orr.w	r2, r2, #6
 80048a4:	609a      	str	r2, [r3, #8]
    USBx->GAHBCFG |= USB_OTG_GAHBCFG_DMAEN;
 80048a6:	689a      	ldr	r2, [r3, #8]
 80048a8:	f042 0220 	orr.w	r2, r2, #32
 80048ac:	609a      	str	r2, [r3, #8]
}
 80048ae:	b002      	add	sp, #8
 80048b0:	b004      	add	sp, #16
 80048b2:	4770      	bx	lr
    USBx->GUSBCFG |= USB_OTG_GUSBCFG_PHYSEL;
 80048b4:	68c2      	ldr	r2, [r0, #12]
  __IO uint32_t count = 0U;
 80048b6:	2100      	movs	r1, #0
    USBx->GUSBCFG |= USB_OTG_GUSBCFG_PHYSEL;
 80048b8:	f042 0240 	orr.w	r2, r2, #64	@ 0x40
 80048bc:	60c2      	str	r2, [r0, #12]
  __IO uint32_t count = 0U;
 80048be:	9101      	str	r1, [sp, #4]
 80048c0:	e002      	b.n	80048c8 <USB_CoreInit+0x88>
  } while ((USBx->GRSTCTL & USB_OTG_GRSTCTL_AHBIDL) == 0U);
 80048c2:	691a      	ldr	r2, [r3, #16]
 80048c4:	2a00      	cmp	r2, #0
 80048c6:	db2f      	blt.n	8004928 <USB_CoreInit+0xe8>
    count++;
 80048c8:	9a01      	ldr	r2, [sp, #4]
 80048ca:	3201      	adds	r2, #1
 80048cc:	9201      	str	r2, [sp, #4]
    if (count > HAL_USB_TIMEOUT)
 80048ce:	9a01      	ldr	r2, [sp, #4]
 80048d0:	f1b2 6f70 	cmp.w	r2, #251658240	@ 0xf000000
 80048d4:	d9f5      	bls.n	80048c2 <USB_CoreInit+0x82>
      return HAL_TIMEOUT;
 80048d6:	2003      	movs	r0, #3
    if (cfg.battery_charging_enable == 0U)
 80048d8:	f89d 2015 	ldrb.w	r2, [sp, #21]
 80048dc:	b9fa      	cbnz	r2, 800491e <USB_CoreInit+0xde>
      USBx->GCCFG |= USB_OTG_GCCFG_PWRDWN;
 80048de:	6b9a      	ldr	r2, [r3, #56]	@ 0x38
 80048e0:	f442 3280 	orr.w	r2, r2, #65536	@ 0x10000
 80048e4:	639a      	str	r2, [r3, #56]	@ 0x38
 80048e6:	e7d6      	b.n	8004896 <USB_CoreInit+0x56>

  count = 10U;
 80048e8:	220a      	movs	r2, #10
 80048ea:	9200      	str	r2, [sp, #0]

  /* few cycles before setting core reset */
  while (count > 0U)
 80048ec:	9a00      	ldr	r2, [sp, #0]
 80048ee:	b12a      	cbz	r2, 80048fc <USB_CoreInit+0xbc>
  {
    count--;
 80048f0:	9a00      	ldr	r2, [sp, #0]
 80048f2:	3a01      	subs	r2, #1
 80048f4:	9200      	str	r2, [sp, #0]
  while (count > 0U)
 80048f6:	9a00      	ldr	r2, [sp, #0]
 80048f8:	2a00      	cmp	r2, #0
 80048fa:	d1f9      	bne.n	80048f0 <USB_CoreInit+0xb0>
  }

  /* Core Soft Reset */
  USBx->GRSTCTL |= USB_OTG_GRSTCTL_CSRST;
 80048fc:	691a      	ldr	r2, [r3, #16]
 80048fe:	f042 0201 	orr.w	r2, r2, #1
 8004902:	611a      	str	r2, [r3, #16]
 8004904:	e003      	b.n	800490e <USB_CoreInit+0xce>

    if (count > HAL_USB_TIMEOUT)
    {
      return HAL_TIMEOUT;
    }
  } while ((USBx->GRSTCTL & USB_OTG_GRSTCTL_CSRST) == USB_OTG_GRSTCTL_CSRST);
 8004906:	6918      	ldr	r0, [r3, #16]
 8004908:	f010 0001 	ands.w	r0, r0, #1
 800490c:	d0c3      	beq.n	8004896 <USB_CoreInit+0x56>
    count++;
 800490e:	9a00      	ldr	r2, [sp, #0]
 8004910:	3201      	adds	r2, #1
 8004912:	9200      	str	r2, [sp, #0]
    if (count > HAL_USB_TIMEOUT)
 8004914:	9a00      	ldr	r2, [sp, #0]
 8004916:	f1b2 6f70 	cmp.w	r2, #251658240	@ 0xf000000
 800491a:	d9f4      	bls.n	8004906 <USB_CoreInit+0xc6>
 800491c:	e7ba      	b.n	8004894 <USB_CoreInit+0x54>
      USBx->GCCFG &= ~(USB_OTG_GCCFG_PWRDWN);
 800491e:	6b9a      	ldr	r2, [r3, #56]	@ 0x38
 8004920:	f422 3280 	bic.w	r2, r2, #65536	@ 0x10000
 8004924:	639a      	str	r2, [r3, #56]	@ 0x38
 8004926:	e7b6      	b.n	8004896 <USB_CoreInit+0x56>
  count = 10U;
 8004928:	220a      	movs	r2, #10
 800492a:	9201      	str	r2, [sp, #4]
  while (count > 0U)
 800492c:	9a01      	ldr	r2, [sp, #4]
 800492e:	b12a      	cbz	r2, 800493c <USB_CoreInit+0xfc>
    count--;
 8004930:	9a01      	ldr	r2, [sp, #4]
 8004932:	3a01      	subs	r2, #1
 8004934:	9201      	str	r2, [sp, #4]
  while (count > 0U)
 8004936:	9a01      	ldr	r2, [sp, #4]
 8004938:	2a00      	cmp	r2, #0
 800493a:	d1f9      	bne.n	8004930 <USB_CoreInit+0xf0>
  USBx->GRSTCTL |= USB_OTG_GRSTCTL_CSRST;
 800493c:	691a      	ldr	r2, [r3, #16]
 800493e:	f042 0201 	orr.w	r2, r2, #1
 8004942:	611a      	str	r2, [r3, #16]
 8004944:	e003      	b.n	800494e <USB_CoreInit+0x10e>
  } while ((USBx->GRSTCTL & USB_OTG_GRSTCTL_CSRST) == USB_OTG_GRSTCTL_CSRST);
 8004946:	6918      	ldr	r0, [r3, #16]
 8004948:	f010 0001 	ands.w	r0, r0, #1
 800494c:	d0c4      	beq.n	80048d8 <USB_CoreInit+0x98>
    count++;
 800494e:	9a01      	ldr	r2, [sp, #4]
 8004950:	3201      	adds	r2, #1
 8004952:	9201      	str	r2, [sp, #4]
    if (count > HAL_USB_TIMEOUT)
 8004954:	9a01      	ldr	r2, [sp, #4]
 8004956:	f1b2 6f70 	cmp.w	r2, #251658240	@ 0xf000000
 800495a:	d9f4      	bls.n	8004946 <USB_CoreInit+0x106>
 800495c:	e7bb      	b.n	80048d6 <USB_CoreInit+0x96>
      USBx->GUSBCFG |= USB_OTG_GUSBCFG_ULPIEVBUSD;
 800495e:	68c2      	ldr	r2, [r0, #12]
 8004960:	f442 1280 	orr.w	r2, r2, #1048576	@ 0x100000
 8004964:	60c2      	str	r2, [r0, #12]
 8004966:	e788      	b.n	800487a <USB_CoreInit+0x3a>

08004968 <USB_SetTurnaroundTime>:
  if (speed == USBD_FS_SPEED)
 8004968:	2a02      	cmp	r2, #2
{
 800496a:	4603      	mov	r3, r0
  if (speed == USBD_FS_SPEED)
 800496c:	d00a      	beq.n	8004984 <USB_SetTurnaroundTime+0x1c>
 800496e:	f44f 5110 	mov.w	r1, #9216	@ 0x2400
  USBx->GUSBCFG &= ~USB_OTG_GUSBCFG_TRDT;
 8004972:	68da      	ldr	r2, [r3, #12]
 8004974:	f422 5270 	bic.w	r2, r2, #15360	@ 0x3c00
 8004978:	60da      	str	r2, [r3, #12]
  USBx->GUSBCFG |= (uint32_t)((UsbTrd << 10) & USB_OTG_GUSBCFG_TRDT);
 800497a:	68da      	ldr	r2, [r3, #12]
 800497c:	430a      	orrs	r2, r1
}
 800497e:	2000      	movs	r0, #0
  USBx->GUSBCFG |= (uint32_t)((UsbTrd << 10) & USB_OTG_GUSBCFG_TRDT);
 8004980:	60da      	str	r2, [r3, #12]
}
 8004982:	4770      	bx	lr
    if ((hclk >= 14200000U) && (hclk < 15000000U))
 8004984:	4a26      	ldr	r2, [pc, #152]	@ (8004a20 <USB_SetTurnaroundTime+0xb8>)
 8004986:	4827      	ldr	r0, [pc, #156]	@ (8004a24 <USB_SetTurnaroundTime+0xbc>)
 8004988:	440a      	add	r2, r1
 800498a:	4282      	cmp	r2, r0
 800498c:	d932      	bls.n	80049f4 <USB_SetTurnaroundTime+0x8c>
    else if ((hclk >= 15000000U) && (hclk < 16000000U))
 800498e:	4a26      	ldr	r2, [pc, #152]	@ (8004a28 <USB_SetTurnaroundTime+0xc0>)
 8004990:	4826      	ldr	r0, [pc, #152]	@ (8004a2c <USB_SetTurnaroundTime+0xc4>)
 8004992:	440a      	add	r2, r1
 8004994:	4282      	cmp	r2, r0
 8004996:	d930      	bls.n	80049fa <USB_SetTurnaroundTime+0x92>
    else if ((hclk >= 16000000U) && (hclk < 17200000U))
 8004998:	4825      	ldr	r0, [pc, #148]	@ (8004a30 <USB_SetTurnaroundTime+0xc8>)
 800499a:	f5a1 0274 	sub.w	r2, r1, #15990784	@ 0xf40000
 800499e:	f5a2 5210 	sub.w	r2, r2, #9216	@ 0x2400
 80049a2:	4282      	cmp	r2, r0
 80049a4:	d92c      	bls.n	8004a00 <USB_SetTurnaroundTime+0x98>
    else if ((hclk >= 17200000U) && (hclk < 18500000U))
 80049a6:	4823      	ldr	r0, [pc, #140]	@ (8004a34 <USB_SetTurnaroundTime+0xcc>)
 80049a8:	f1a1 7283 	sub.w	r2, r1, #17170432	@ 0x1060000
 80049ac:	f5a2 42e7 	sub.w	r2, r2, #29568	@ 0x7380
 80049b0:	4282      	cmp	r2, r0
 80049b2:	d328      	bcc.n	8004a06 <USB_SetTurnaroundTime+0x9e>
    else if ((hclk >= 18500000U) && (hclk < 20000000U))
 80049b4:	4a20      	ldr	r2, [pc, #128]	@ (8004a38 <USB_SetTurnaroundTime+0xd0>)
 80049b6:	4821      	ldr	r0, [pc, #132]	@ (8004a3c <USB_SetTurnaroundTime+0xd4>)
 80049b8:	440a      	add	r2, r1
 80049ba:	4282      	cmp	r2, r0
 80049bc:	d926      	bls.n	8004a0c <USB_SetTurnaroundTime+0xa4>
    else if ((hclk >= 20000000U) && (hclk < 21800000U))
 80049be:	4a20      	ldr	r2, [pc, #128]	@ (8004a40 <USB_SetTurnaroundTime+0xd8>)
 80049c0:	4820      	ldr	r0, [pc, #128]	@ (8004a44 <USB_SetTurnaroundTime+0xdc>)
 80049c2:	440a      	add	r2, r1
 80049c4:	4282      	cmp	r2, r0
 80049c6:	d324      	bcc.n	8004a12 <USB_SetTurnaroundTime+0xaa>
    else if ((hclk >= 21800000U) && (hclk < 24000000U))
 80049c8:	4a1f      	ldr	r2, [pc, #124]	@ (8004a48 <USB_SetTurnaroundTime+0xe0>)
 80049ca:	4820      	ldr	r0, [pc, #128]	@ (8004a4c <USB_SetTurnaroundTime+0xe4>)
 80049cc:	440a      	add	r2, r1
 80049ce:	4282      	cmp	r2, r0
 80049d0:	d3cd      	bcc.n	800496e <USB_SetTurnaroundTime+0x6>
    else if ((hclk >= 24000000U) && (hclk < 27700000U))
 80049d2:	481f      	ldr	r0, [pc, #124]	@ (8004a50 <USB_SetTurnaroundTime+0xe8>)
 80049d4:	f1a1 72b7 	sub.w	r2, r1, #23986176	@ 0x16e0000
 80049d8:	f5a2 5258 	sub.w	r2, r2, #13824	@ 0x3600
 80049dc:	4282      	cmp	r2, r0
 80049de:	d31b      	bcc.n	8004a18 <USB_SetTurnaroundTime+0xb0>
    else if ((hclk >= 27700000U) && (hclk < 32000000U))
 80049e0:	4a1c      	ldr	r2, [pc, #112]	@ (8004a54 <USB_SetTurnaroundTime+0xec>)
 80049e2:	481d      	ldr	r0, [pc, #116]	@ (8004a58 <USB_SetTurnaroundTime+0xf0>)
 80049e4:	440a      	add	r2, r1
 80049e6:	4282      	cmp	r2, r0
 80049e8:	bf2c      	ite	cs
 80049ea:	f44f 51c0 	movcs.w	r1, #6144	@ 0x1800
 80049ee:	f44f 51e0 	movcc.w	r1, #7168	@ 0x1c00
 80049f2:	e7be      	b.n	8004972 <USB_SetTurnaroundTime+0xa>
 80049f4:	f44f 5170 	mov.w	r1, #15360	@ 0x3c00
 80049f8:	e7bb      	b.n	8004972 <USB_SetTurnaroundTime+0xa>
 80049fa:	f44f 5160 	mov.w	r1, #14336	@ 0x3800
 80049fe:	e7b8      	b.n	8004972 <USB_SetTurnaroundTime+0xa>
 8004a00:	f44f 5150 	mov.w	r1, #13312	@ 0x3400
 8004a04:	e7b5      	b.n	8004972 <USB_SetTurnaroundTime+0xa>
 8004a06:	f44f 5140 	mov.w	r1, #12288	@ 0x3000
 8004a0a:	e7b2      	b.n	8004972 <USB_SetTurnaroundTime+0xa>
 8004a0c:	f44f 5130 	mov.w	r1, #11264	@ 0x2c00
 8004a10:	e7af      	b.n	8004972 <USB_SetTurnaroundTime+0xa>
 8004a12:	f44f 5120 	mov.w	r1, #10240	@ 0x2800
 8004a16:	e7ac      	b.n	8004972 <USB_SetTurnaroundTime+0xa>
 8004a18:	f44f 5100 	mov.w	r1, #8192	@ 0x2000
 8004a1c:	e7a9      	b.n	8004972 <USB_SetTurnaroundTime+0xa>
 8004a1e:	bf00      	nop
 8004a20:	ff275340 	.word	0xff275340
 8004a24:	000c34ff 	.word	0x000c34ff
 8004a28:	ff1b1e40 	.word	0xff1b1e40
 8004a2c:	000f423f 	.word	0x000f423f
 8004a30:	00124f7f 	.word	0x00124f7f
 8004a34:	0013d620 	.word	0x0013d620
 8004a38:	fee5b660 	.word	0xfee5b660
 8004a3c:	0016e35f 	.word	0x0016e35f
 8004a40:	feced300 	.word	0xfeced300
 8004a44:	001b7740 	.word	0x001b7740
 8004a48:	feb35bc0 	.word	0xfeb35bc0
 8004a4c:	002191c0 	.word	0x002191c0
 8004a50:	00387520 	.word	0x00387520
 8004a54:	fe5954e0 	.word	0xfe5954e0
 8004a58:	00419ce0 	.word	0x00419ce0

08004a5c <USB_EnableGlobalInt>:
{
 8004a5c:	4603      	mov	r3, r0
}
 8004a5e:	2000      	movs	r0, #0
  USBx->GAHBCFG |= USB_OTG_GAHBCFG_GINT;
 8004a60:	689a      	ldr	r2, [r3, #8]
 8004a62:	f042 0201 	orr.w	r2, r2, #1
 8004a66:	609a      	str	r2, [r3, #8]
}
 8004a68:	4770      	bx	lr
 8004a6a:	bf00      	nop

08004a6c <USB_DisableGlobalInt>:
{
 8004a6c:	4603      	mov	r3, r0
}
 8004a6e:	2000      	movs	r0, #0
  USBx->GAHBCFG &= ~USB_OTG_GAHBCFG_GINT;
 8004a70:	689a      	ldr	r2, [r3, #8]
 8004a72:	f022 0201 	bic.w	r2, r2, #1
 8004a76:	609a      	str	r2, [r3, #8]
}
 8004a78:	4770      	bx	lr
 8004a7a:	bf00      	nop

08004a7c <USB_SetCurrentMode>:
{
 8004a7c:	b538      	push	{r3, r4, r5, lr}
  USBx->GUSBCFG &= ~(USB_OTG_GUSBCFG_FHMOD | USB_OTG_GUSBCFG_FDMOD);
 8004a7e:	68c3      	ldr	r3, [r0, #12]
  if (mode == USB_HOST_MODE)
 8004a80:	2901      	cmp	r1, #1
  USBx->GUSBCFG &= ~(USB_OTG_GUSBCFG_FHMOD | USB_OTG_GUSBCFG_FDMOD);
 8004a82:	f023 43c0 	bic.w	r3, r3, #1610612736	@ 0x60000000
{
 8004a86:	4605      	mov	r5, r0
  USBx->GUSBCFG &= ~(USB_OTG_GUSBCFG_FHMOD | USB_OTG_GUSBCFG_FDMOD);
 8004a88:	60c3      	str	r3, [r0, #12]
  if (mode == USB_HOST_MODE)
 8004a8a:	d018      	beq.n	8004abe <USB_SetCurrentMode+0x42>
  else if (mode == USB_DEVICE_MODE)
 8004a8c:	b9a9      	cbnz	r1, 8004aba <USB_SetCurrentMode+0x3e>
    USBx->GUSBCFG |= USB_OTG_GUSBCFG_FDMOD;
 8004a8e:	68c3      	ldr	r3, [r0, #12]
 8004a90:	f043 4380 	orr.w	r3, r3, #1073741824	@ 0x40000000
  uint32_t ms = 0U;
 8004a94:	460c      	mov	r4, r1
    USBx->GUSBCFG |= USB_OTG_GUSBCFG_FDMOD;
 8004a96:	60c3      	str	r3, [r0, #12]
 8004a98:	e001      	b.n	8004a9e <USB_SetCurrentMode+0x22>
    } while ((USB_GetMode(USBx) != (uint32_t)USB_DEVICE_MODE) && (ms < HAL_USB_CURRENT_MODE_MAX_DELAY_MS));
 8004a9a:	2cc8      	cmp	r4, #200	@ 0xc8
 8004a9c:	d00d      	beq.n	8004aba <USB_SetCurrentMode+0x3e>
      HAL_Delay(10U);
 8004a9e:	200a      	movs	r0, #10
 8004aa0:	f7fd f85c 	bl	8001b5c <HAL_Delay>
  return ((USBx->GINTSTS) & 0x1U);
 8004aa4:	696b      	ldr	r3, [r5, #20]
    } while ((USB_GetMode(USBx) != (uint32_t)USB_DEVICE_MODE) && (ms < HAL_USB_CURRENT_MODE_MAX_DELAY_MS));
 8004aa6:	07db      	lsls	r3, r3, #31
      ms += 10U;
 8004aa8:	f104 040a 	add.w	r4, r4, #10
    } while ((USB_GetMode(USBx) != (uint32_t)USB_DEVICE_MODE) && (ms < HAL_USB_CURRENT_MODE_MAX_DELAY_MS));
 8004aac:	d4f5      	bmi.n	8004a9a <USB_SetCurrentMode+0x1e>
  if (ms == HAL_USB_CURRENT_MODE_MAX_DELAY_MS)
 8004aae:	f1a4 00c8 	sub.w	r0, r4, #200	@ 0xc8
 8004ab2:	fab0 f080 	clz	r0, r0
 8004ab6:	0940      	lsrs	r0, r0, #5
}
 8004ab8:	bd38      	pop	{r3, r4, r5, pc}
    return HAL_ERROR;
 8004aba:	2001      	movs	r0, #1
}
 8004abc:	bd38      	pop	{r3, r4, r5, pc}
    USBx->GUSBCFG |= USB_OTG_GUSBCFG_FHMOD;
 8004abe:	68c3      	ldr	r3, [r0, #12]
 8004ac0:	f043 5300 	orr.w	r3, r3, #536870912	@ 0x20000000
  uint32_t ms = 0U;
 8004ac4:	2400      	movs	r4, #0
    USBx->GUSBCFG |= USB_OTG_GUSBCFG_FHMOD;
 8004ac6:	60c3      	str	r3, [r0, #12]
 8004ac8:	e001      	b.n	8004ace <USB_SetCurrentMode+0x52>
    } while ((USB_GetMode(USBx) != (uint32_t)USB_HOST_MODE) && (ms < HAL_USB_CURRENT_MODE_MAX_DELAY_MS));
 8004aca:	2cc8      	cmp	r4, #200	@ 0xc8
 8004acc:	d0f5      	beq.n	8004aba <USB_SetCurrentMode+0x3e>
      HAL_Delay(10U);
 8004ace:	200a      	movs	r0, #10
 8004ad0:	f7fd f844 	bl	8001b5c <HAL_Delay>
  return ((USBx->GINTSTS) & 0x1U);
 8004ad4:	696b      	ldr	r3, [r5, #20]
    } while ((USB_GetMode(USBx) != (uint32_t)USB_HOST_MODE) && (ms < HAL_USB_CURRENT_MODE_MAX_DELAY_MS));
 8004ad6:	07da      	lsls	r2, r3, #31
      ms += 10U;
 8004ad8:	f104 040a 	add.w	r4, r4, #10
    } while ((USB_GetMode(USBx) != (uint32_t)USB_HOST_MODE) && (ms < HAL_USB_CURRENT_MODE_MAX_DELAY_MS));
 8004adc:	d5f5      	bpl.n	8004aca <USB_SetCurrentMode+0x4e>
  if (ms == HAL_USB_CURRENT_MODE_MAX_DELAY_MS)
 8004ade:	f1a4 00c8 	sub.w	r0, r4, #200	@ 0xc8
 8004ae2:	fab0 f080 	clz	r0, r0
 8004ae6:	0940      	lsrs	r0, r0, #5
 8004ae8:	e7e6      	b.n	8004ab8 <USB_SetCurrentMode+0x3c>
 8004aea:	bf00      	nop

08004aec <USB_DevInit>:
{
 8004aec:	b084      	sub	sp, #16
 8004aee:	b5f0      	push	{r4, r5, r6, r7, lr}
 8004af0:	b083      	sub	sp, #12
 8004af2:	ac09      	add	r4, sp, #36	@ 0x24
 8004af4:	e884 000e 	stmia.w	r4, {r1, r2, r3}
 8004af8:	f89d 402e 	ldrb.w	r4, [sp, #46]	@ 0x2e
 8004afc:	f89d 5024 	ldrb.w	r5, [sp, #36]	@ 0x24
    USBx->DIEPTXF[i] = 0U;
 8004b00:	2200      	movs	r2, #0
 8004b02:	f8c0 2104 	str.w	r2, [r0, #260]	@ 0x104
{
 8004b06:	4603      	mov	r3, r0
    USBx->DIEPTXF[i] = 0U;
 8004b08:	f8c0 2108 	str.w	r2, [r0, #264]	@ 0x108
    USBx_DEVICE->DCTL |= USB_OTG_DCTL_SDIS;
 8004b0c:	f500 6e00 	add.w	lr, r0, #2048	@ 0x800
    USBx->DIEPTXF[i] = 0U;
 8004b10:	f8c0 210c 	str.w	r2, [r0, #268]	@ 0x10c
 8004b14:	f8c0 2110 	str.w	r2, [r0, #272]	@ 0x110
 8004b18:	f8c0 2114 	str.w	r2, [r0, #276]	@ 0x114
 8004b1c:	f8c0 2118 	str.w	r2, [r0, #280]	@ 0x118
 8004b20:	f8c0 211c 	str.w	r2, [r0, #284]	@ 0x11c
 8004b24:	f8c0 2120 	str.w	r2, [r0, #288]	@ 0x120
 8004b28:	f8c0 2124 	str.w	r2, [r0, #292]	@ 0x124
 8004b2c:	f8c0 2128 	str.w	r2, [r0, #296]	@ 0x128
 8004b30:	f8c0 212c 	str.w	r2, [r0, #300]	@ 0x12c
 8004b34:	f8c0 2130 	str.w	r2, [r0, #304]	@ 0x130
 8004b38:	f8c0 2134 	str.w	r2, [r0, #308]	@ 0x134
 8004b3c:	f8c0 2138 	str.w	r2, [r0, #312]	@ 0x138
 8004b40:	f8c0 213c 	str.w	r2, [r0, #316]	@ 0x13c
  if (cfg.vbus_sensing_enable == 0U)
 8004b44:	2c00      	cmp	r4, #0
 8004b46:	f040 80b8 	bne.w	8004cba <USB_DevInit+0x1ce>
    USBx_DEVICE->DCTL |= USB_OTG_DCTL_SDIS;
 8004b4a:	f8de 2004 	ldr.w	r2, [lr, #4]
 8004b4e:	f042 0202 	orr.w	r2, r2, #2
 8004b52:	f8ce 2004 	str.w	r2, [lr, #4]
    USBx->GCCFG |= USB_OTG_GCCFG_NOVBUSSENS;
 8004b56:	6b82      	ldr	r2, [r0, #56]	@ 0x38
 8004b58:	f442 1200 	orr.w	r2, r2, #2097152	@ 0x200000
 8004b5c:	6382      	str	r2, [r0, #56]	@ 0x38
    USBx->GCCFG &= ~USB_OTG_GCCFG_VBUSBSEN;
 8004b5e:	6b82      	ldr	r2, [r0, #56]	@ 0x38
 8004b60:	f422 2200 	bic.w	r2, r2, #524288	@ 0x80000
 8004b64:	6382      	str	r2, [r0, #56]	@ 0x38
    USBx->GCCFG &= ~USB_OTG_GCCFG_VBUSASEN;
 8004b66:	6b82      	ldr	r2, [r0, #56]	@ 0x38
 8004b68:	f422 2280 	bic.w	r2, r2, #262144	@ 0x40000
 8004b6c:	6382      	str	r2, [r0, #56]	@ 0x38
  USBx_PCGCCTL = 0U;
 8004b6e:	2200      	movs	r2, #0
 8004b70:	f8c3 2e00 	str.w	r2, [r3, #3584]	@ 0xe00
  if (cfg.phy_itface == USB_OTG_ULPI_PHY)
 8004b74:	f89d 2029 	ldrb.w	r2, [sp, #41]	@ 0x29
 8004b78:	2a01      	cmp	r2, #1
 8004b7a:	f000 80ae 	beq.w	8004cda <USB_DevInit+0x1ee>
  USBx_DEVICE->DCFG |= speed;
 8004b7e:	f8d3 2800 	ldr.w	r2, [r3, #2048]	@ 0x800
 8004b82:	f042 0203 	orr.w	r2, r2, #3
 8004b86:	f8c3 2800 	str.w	r2, [r3, #2048]	@ 0x800
  __IO uint32_t count = 0U;
 8004b8a:	2200      	movs	r2, #0
 8004b8c:	9200      	str	r2, [sp, #0]
 8004b8e:	e003      	b.n	8004b98 <USB_DevInit+0xac>
  } while ((USBx->GRSTCTL & USB_OTG_GRSTCTL_AHBIDL) == 0U);
 8004b90:	691a      	ldr	r2, [r3, #16]
 8004b92:	2a00      	cmp	r2, #0
 8004b94:	f2c0 80ba 	blt.w	8004d0c <USB_DevInit+0x220>
    count++;
 8004b98:	9a00      	ldr	r2, [sp, #0]
 8004b9a:	3201      	adds	r2, #1
 8004b9c:	9200      	str	r2, [sp, #0]
    if (count > HAL_USB_TIMEOUT)
 8004b9e:	9a00      	ldr	r2, [sp, #0]
 8004ba0:	f1b2 6f70 	cmp.w	r2, #251658240	@ 0xf000000
 8004ba4:	d9f4      	bls.n	8004b90 <USB_DevInit+0xa4>
 8004ba6:	2001      	movs	r0, #1
  __IO uint32_t count = 0U;
 8004ba8:	2200      	movs	r2, #0
 8004baa:	9201      	str	r2, [sp, #4]
 8004bac:	e003      	b.n	8004bb6 <USB_DevInit+0xca>
  } while ((USBx->GRSTCTL & USB_OTG_GRSTCTL_AHBIDL) == 0U);
 8004bae:	691a      	ldr	r2, [r3, #16]
 8004bb0:	2a00      	cmp	r2, #0
 8004bb2:	f2c0 809a 	blt.w	8004cea <USB_DevInit+0x1fe>
    count++;
 8004bb6:	9a01      	ldr	r2, [sp, #4]
 8004bb8:	3201      	adds	r2, #1
 8004bba:	9201      	str	r2, [sp, #4]
    if (count > HAL_USB_TIMEOUT)
 8004bbc:	9a01      	ldr	r2, [sp, #4]
 8004bbe:	f1b2 6f70 	cmp.w	r2, #251658240	@ 0xf000000
 8004bc2:	d9f4      	bls.n	8004bae <USB_DevInit+0xc2>
    ret = HAL_ERROR;
 8004bc4:	2001      	movs	r0, #1
  USBx_DEVICE->DIEPMSK = 0U;
 8004bc6:	2100      	movs	r1, #0
 8004bc8:	f8ce 1010 	str.w	r1, [lr, #16]
  USBx_DEVICE->DOEPMSK = 0U;
 8004bcc:	f8ce 1014 	str.w	r1, [lr, #20]
  USBx_DEVICE->DAINTMSK = 0U;
 8004bd0:	f8ce 101c 	str.w	r1, [lr, #28]
  for (i = 0U; i < cfg.dev_endpoints; i++)
 8004bd4:	b325      	cbz	r5, 8004c20 <USB_DevInit+0x134>
    if ((USBx_INEP(i)->DIEPCTL & USB_OTG_DIEPCTL_EPENA) == USB_OTG_DIEPCTL_EPENA)
 8004bd6:	f8d3 6900 	ldr.w	r6, [r3, #2304]	@ 0x900
 8004bda:	2e00      	cmp	r6, #0
 8004bdc:	f503 6210 	add.w	r2, r3, #2304	@ 0x900
 8004be0:	db18      	blt.n	8004c14 <USB_DevInit+0x128>
      USBx_INEP(i)->DIEPCTL = 0U;
 8004be2:	2600      	movs	r6, #0
 8004be4:	6016      	str	r6, [r2, #0]
 8004be6:	468c      	mov	ip, r1
    USBx_INEP(i)->DIEPTSIZ = 0U;
 8004be8:	2700      	movs	r7, #0
    USBx_INEP(i)->DIEPINT  = 0xFB7FU;
 8004bea:	f64f 367f 	movw	r6, #64383	@ 0xfb7f
  for (i = 0U; i < cfg.dev_endpoints; i++)
 8004bee:	f10c 0101 	add.w	r1, ip, #1
 8004bf2:	428d      	cmp	r5, r1
    USBx_INEP(i)->DIEPTSIZ = 0U;
 8004bf4:	6117      	str	r7, [r2, #16]
    USBx_INEP(i)->DIEPINT  = 0xFB7FU;
 8004bf6:	6096      	str	r6, [r2, #8]
  for (i = 0U; i < cfg.dev_endpoints; i++)
 8004bf8:	f102 0220 	add.w	r2, r2, #32
 8004bfc:	d03a      	beq.n	8004c74 <USB_DevInit+0x188>
    if ((USBx_INEP(i)->DIEPCTL & USB_OTG_DIEPCTL_EPENA) == USB_OTG_DIEPCTL_EPENA)
 8004bfe:	f8d2 c000 	ldr.w	ip, [r2]
 8004c02:	f1bc 0f00 	cmp.w	ip, #0
 8004c06:	daec      	bge.n	8004be2 <USB_DevInit+0xf6>
        USBx_INEP(i)->DIEPCTL = USB_OTG_DIEPCTL_EPDIS | USB_OTG_DIEPCTL_SNAK;
 8004c08:	f04f 4c90 	mov.w	ip, #1207959552	@ 0x48000000
 8004c0c:	f8c2 c000 	str.w	ip, [r2]
 8004c10:	468c      	mov	ip, r1
 8004c12:	e7ec      	b.n	8004bee <USB_DevInit+0x102>
        USBx_INEP(i)->DIEPCTL = USB_OTG_DIEPCTL_SNAK;
 8004c14:	f04f 6600 	mov.w	r6, #134217728	@ 0x8000000
 8004c18:	f8c3 6900 	str.w	r6, [r3, #2304]	@ 0x900
 8004c1c:	468c      	mov	ip, r1
 8004c1e:	e7e3      	b.n	8004be8 <USB_DevInit+0xfc>
  USBx_DEVICE->DIEPMSK &= ~(USB_OTG_DIEPMSK_TXFURM);
 8004c20:	f8de 2010 	ldr.w	r2, [lr, #16]
 8004c24:	f422 7280 	bic.w	r2, r2, #256	@ 0x100
 8004c28:	f8ce 2010 	str.w	r2, [lr, #16]
  USBx->GINTMSK = 0U;
 8004c2c:	2100      	movs	r1, #0
  if (cfg.dma_enable == 0U)
 8004c2e:	f89d 2026 	ldrb.w	r2, [sp, #38]	@ 0x26
  USBx->GINTMSK = 0U;
 8004c32:	6199      	str	r1, [r3, #24]
  USBx->GINTSTS = 0xBFFFFFFFU;
 8004c34:	f06f 4180 	mvn.w	r1, #1073741824	@ 0x40000000
 8004c38:	6159      	str	r1, [r3, #20]
  if (cfg.dma_enable == 0U)
 8004c3a:	b91a      	cbnz	r2, 8004c44 <USB_DevInit+0x158>
    USBx->GINTMSK |= USB_OTG_GINTMSK_RXFLVLM;
 8004c3c:	699a      	ldr	r2, [r3, #24]
 8004c3e:	f042 0210 	orr.w	r2, r2, #16
 8004c42:	619a      	str	r2, [r3, #24]
  USBx->GINTMSK |= USB_OTG_GINTMSK_USBSUSPM | USB_OTG_GINTMSK_USBRST |
 8004c44:	6999      	ldr	r1, [r3, #24]
 8004c46:	4a3e      	ldr	r2, [pc, #248]	@ (8004d40 <USB_DevInit+0x254>)
 8004c48:	430a      	orrs	r2, r1
  if (cfg.Sof_enable != 0U)
 8004c4a:	f89d 102a 	ldrb.w	r1, [sp, #42]	@ 0x2a
  USBx->GINTMSK |= USB_OTG_GINTMSK_USBSUSPM | USB_OTG_GINTMSK_USBRST |
 8004c4e:	619a      	str	r2, [r3, #24]
  if (cfg.Sof_enable != 0U)
 8004c50:	b119      	cbz	r1, 8004c5a <USB_DevInit+0x16e>
    USBx->GINTMSK |= USB_OTG_GINTMSK_SOFM;
 8004c52:	699a      	ldr	r2, [r3, #24]
 8004c54:	f042 0208 	orr.w	r2, r2, #8
 8004c58:	619a      	str	r2, [r3, #24]
  if (cfg.vbus_sensing_enable == 1U)
 8004c5a:	2c01      	cmp	r4, #1
 8004c5c:	d105      	bne.n	8004c6a <USB_DevInit+0x17e>
    USBx->GINTMSK |= (USB_OTG_GINTMSK_SRQIM | USB_OTG_GINTMSK_OTGINT);
 8004c5e:	699a      	ldr	r2, [r3, #24]
 8004c60:	f042 4280 	orr.w	r2, r2, #1073741824	@ 0x40000000
 8004c64:	f042 0204 	orr.w	r2, r2, #4
 8004c68:	619a      	str	r2, [r3, #24]
}
 8004c6a:	b003      	add	sp, #12
 8004c6c:	e8bd 40f0 	ldmia.w	sp!, {r4, r5, r6, r7, lr}
 8004c70:	b004      	add	sp, #16
 8004c72:	4770      	bx	lr
    if ((USBx_OUTEP(i)->DOEPCTL & USB_OTG_DOEPCTL_EPENA) == USB_OTG_DOEPCTL_EPENA)
 8004c74:	f8d3 1b00 	ldr.w	r1, [r3, #2816]	@ 0xb00
 8004c78:	2900      	cmp	r1, #0
 8004c7a:	f503 6230 	add.w	r2, r3, #2816	@ 0xb00
 8004c7e:	db16      	blt.n	8004cae <USB_DevInit+0x1c2>
 8004c80:	2500      	movs	r5, #0
      USBx_OUTEP(i)->DOEPCTL = 0U;
 8004c82:	2100      	movs	r1, #0
 8004c84:	6011      	str	r1, [r2, #0]
 8004c86:	4629      	mov	r1, r5
    USBx_OUTEP(i)->DOEPTSIZ = 0U;
 8004c88:	2700      	movs	r7, #0
    USBx_OUTEP(i)->DOEPINT  = 0xFB7FU;
 8004c8a:	f64f 367f 	movw	r6, #64383	@ 0xfb7f
  for (i = 0U; i < cfg.dev_endpoints; i++)
 8004c8e:	458c      	cmp	ip, r1
    USBx_OUTEP(i)->DOEPTSIZ = 0U;
 8004c90:	6117      	str	r7, [r2, #16]
  for (i = 0U; i < cfg.dev_endpoints; i++)
 8004c92:	f101 0501 	add.w	r5, r1, #1
    USBx_OUTEP(i)->DOEPINT  = 0xFB7FU;
 8004c96:	6096      	str	r6, [r2, #8]
  for (i = 0U; i < cfg.dev_endpoints; i++)
 8004c98:	f102 0220 	add.w	r2, r2, #32
 8004c9c:	d0c0      	beq.n	8004c20 <USB_DevInit+0x134>
    if ((USBx_OUTEP(i)->DOEPCTL & USB_OTG_DOEPCTL_EPENA) == USB_OTG_DOEPCTL_EPENA)
 8004c9e:	6811      	ldr	r1, [r2, #0]
 8004ca0:	2900      	cmp	r1, #0
 8004ca2:	daee      	bge.n	8004c82 <USB_DevInit+0x196>
        USBx_OUTEP(i)->DOEPCTL = USB_OTG_DOEPCTL_EPDIS | USB_OTG_DOEPCTL_SNAK;
 8004ca4:	f04f 4190 	mov.w	r1, #1207959552	@ 0x48000000
 8004ca8:	6011      	str	r1, [r2, #0]
 8004caa:	4629      	mov	r1, r5
 8004cac:	e7ef      	b.n	8004c8e <USB_DevInit+0x1a2>
        USBx_OUTEP(i)->DOEPCTL = USB_OTG_DOEPCTL_SNAK;
 8004cae:	f04f 6100 	mov.w	r1, #134217728	@ 0x8000000
 8004cb2:	f8c3 1b00 	str.w	r1, [r3, #2816]	@ 0xb00
 8004cb6:	2100      	movs	r1, #0
 8004cb8:	e7e6      	b.n	8004c88 <USB_DevInit+0x19c>
    USBx->GCCFG &= ~USB_OTG_GCCFG_NOVBUSSENS;
 8004cba:	6b82      	ldr	r2, [r0, #56]	@ 0x38
 8004cbc:	f422 1200 	bic.w	r2, r2, #2097152	@ 0x200000
 8004cc0:	6382      	str	r2, [r0, #56]	@ 0x38
    USBx->GCCFG |= USB_OTG_GCCFG_VBUSBSEN;
 8004cc2:	6b82      	ldr	r2, [r0, #56]	@ 0x38
 8004cc4:	f442 2200 	orr.w	r2, r2, #524288	@ 0x80000
 8004cc8:	6382      	str	r2, [r0, #56]	@ 0x38
  USBx_PCGCCTL = 0U;
 8004cca:	2200      	movs	r2, #0
 8004ccc:	f8c3 2e00 	str.w	r2, [r3, #3584]	@ 0xe00
  if (cfg.phy_itface == USB_OTG_ULPI_PHY)
 8004cd0:	f89d 2029 	ldrb.w	r2, [sp, #41]	@ 0x29
 8004cd4:	2a01      	cmp	r2, #1
 8004cd6:	f47f af52 	bne.w	8004b7e <USB_DevInit+0x92>
    if (cfg.speed == USBD_HS_SPEED)
 8004cda:	f89d 2027 	ldrb.w	r2, [sp, #39]	@ 0x27
 8004cde:	bb42      	cbnz	r2, 8004d32 <USB_DevInit+0x246>
  USBx_DEVICE->DCFG |= speed;
 8004ce0:	f8d3 2800 	ldr.w	r2, [r3, #2048]	@ 0x800
 8004ce4:	f8c3 2800 	str.w	r2, [r3, #2048]	@ 0x800
  return HAL_OK;
 8004ce8:	e74f      	b.n	8004b8a <USB_DevInit+0x9e>
  count = 0U;
 8004cea:	2200      	movs	r2, #0
 8004cec:	9201      	str	r2, [sp, #4]
  USBx->GRSTCTL = USB_OTG_GRSTCTL_RXFFLSH;
 8004cee:	2210      	movs	r2, #16
 8004cf0:	611a      	str	r2, [r3, #16]
 8004cf2:	e003      	b.n	8004cfc <USB_DevInit+0x210>
  } while ((USBx->GRSTCTL & USB_OTG_GRSTCTL_RXFFLSH) == USB_OTG_GRSTCTL_RXFFLSH);
 8004cf4:	691a      	ldr	r2, [r3, #16]
 8004cf6:	06d2      	lsls	r2, r2, #27
 8004cf8:	f57f af65 	bpl.w	8004bc6 <USB_DevInit+0xda>
    count++;
 8004cfc:	9a01      	ldr	r2, [sp, #4]
 8004cfe:	3201      	adds	r2, #1
 8004d00:	9201      	str	r2, [sp, #4]
    if (count > HAL_USB_TIMEOUT)
 8004d02:	9a01      	ldr	r2, [sp, #4]
 8004d04:	f1b2 6f70 	cmp.w	r2, #251658240	@ 0xf000000
 8004d08:	d9f4      	bls.n	8004cf4 <USB_DevInit+0x208>
 8004d0a:	e75b      	b.n	8004bc4 <USB_DevInit+0xd8>
  count = 0U;
 8004d0c:	2200      	movs	r2, #0
 8004d0e:	9200      	str	r2, [sp, #0]
  USBx->GRSTCTL = (USB_OTG_GRSTCTL_TXFFLSH | (num << 6));
 8004d10:	f44f 6284 	mov.w	r2, #1056	@ 0x420
 8004d14:	611a      	str	r2, [r3, #16]
 8004d16:	e004      	b.n	8004d22 <USB_DevInit+0x236>
  } while ((USBx->GRSTCTL & USB_OTG_GRSTCTL_TXFFLSH) == USB_OTG_GRSTCTL_TXFFLSH);
 8004d18:	6918      	ldr	r0, [r3, #16]
 8004d1a:	f010 0020 	ands.w	r0, r0, #32
 8004d1e:	f43f af43 	beq.w	8004ba8 <USB_DevInit+0xbc>
    count++;
 8004d22:	9a00      	ldr	r2, [sp, #0]
 8004d24:	3201      	adds	r2, #1
 8004d26:	9200      	str	r2, [sp, #0]
    if (count > HAL_USB_TIMEOUT)
 8004d28:	9a00      	ldr	r2, [sp, #0]
 8004d2a:	f1b2 6f70 	cmp.w	r2, #251658240	@ 0xf000000
 8004d2e:	d9f3      	bls.n	8004d18 <USB_DevInit+0x22c>
 8004d30:	e739      	b.n	8004ba6 <USB_DevInit+0xba>
  USBx_DEVICE->DCFG |= speed;
 8004d32:	f8d3 2800 	ldr.w	r2, [r3, #2048]	@ 0x800
 8004d36:	f042 0201 	orr.w	r2, r2, #1
 8004d3a:	f8c3 2800 	str.w	r2, [r3, #2048]	@ 0x800
  return HAL_OK;
 8004d3e:	e724      	b.n	8004b8a <USB_DevInit+0x9e>
 8004d40:	803c3800 	.word	0x803c3800

08004d44 <USB_FlushTxFifo>:
{
 8004d44:	b082      	sub	sp, #8
  __IO uint32_t count = 0U;
 8004d46:	2300      	movs	r3, #0
 8004d48:	9301      	str	r3, [sp, #4]
 8004d4a:	e002      	b.n	8004d52 <USB_FlushTxFifo+0xe>
  } while ((USBx->GRSTCTL & USB_OTG_GRSTCTL_AHBIDL) == 0U);
 8004d4c:	6903      	ldr	r3, [r0, #16]
 8004d4e:	2b00      	cmp	r3, #0
 8004d50:	db09      	blt.n	8004d66 <USB_FlushTxFifo+0x22>
    count++;
 8004d52:	9b01      	ldr	r3, [sp, #4]
 8004d54:	3301      	adds	r3, #1
 8004d56:	9301      	str	r3, [sp, #4]
    if (count > HAL_USB_TIMEOUT)
 8004d58:	9b01      	ldr	r3, [sp, #4]
 8004d5a:	f1b3 6f70 	cmp.w	r3, #251658240	@ 0xf000000
 8004d5e:	d9f5      	bls.n	8004d4c <USB_FlushTxFifo+0x8>
      return HAL_TIMEOUT;
 8004d60:	2003      	movs	r0, #3
}
 8004d62:	b002      	add	sp, #8
 8004d64:	4770      	bx	lr
  USBx->GRSTCTL = (USB_OTG_GRSTCTL_TXFFLSH | (num << 6));
 8004d66:	0189      	lsls	r1, r1, #6
  count = 0U;
 8004d68:	2300      	movs	r3, #0
  USBx->GRSTCTL = (USB_OTG_GRSTCTL_TXFFLSH | (num << 6));
 8004d6a:	f041 0120 	orr.w	r1, r1, #32
  count = 0U;
 8004d6e:	9301      	str	r3, [sp, #4]
  USBx->GRSTCTL = (USB_OTG_GRSTCTL_TXFFLSH | (num << 6));
 8004d70:	6101      	str	r1, [r0, #16]
 8004d72:	e003      	b.n	8004d7c <USB_FlushTxFifo+0x38>
  } while ((USBx->GRSTCTL & USB_OTG_GRSTCTL_TXFFLSH) == USB_OTG_GRSTCTL_TXFFLSH);
 8004d74:	6903      	ldr	r3, [r0, #16]
 8004d76:	f013 0320 	ands.w	r3, r3, #32
 8004d7a:	d007      	beq.n	8004d8c <USB_FlushTxFifo+0x48>
    count++;
 8004d7c:	9b01      	ldr	r3, [sp, #4]
 8004d7e:	3301      	adds	r3, #1
 8004d80:	9301      	str	r3, [sp, #4]
    if (count > HAL_USB_TIMEOUT)
 8004d82:	9b01      	ldr	r3, [sp, #4]
 8004d84:	f1b3 6f70 	cmp.w	r3, #251658240	@ 0xf000000
 8004d88:	d9f4      	bls.n	8004d74 <USB_FlushTxFifo+0x30>
 8004d8a:	e7e9      	b.n	8004d60 <USB_FlushTxFifo+0x1c>
  return HAL_OK;
 8004d8c:	4618      	mov	r0, r3
}
 8004d8e:	b002      	add	sp, #8
 8004d90:	4770      	bx	lr
 8004d92:	bf00      	nop

08004d94 <USB_GetDevSpeed>:
  uint32_t DevEnumSpeed = USBx_DEVICE->DSTS & USB_OTG_DSTS_ENUMSPD;
 8004d94:	f8d0 3808 	ldr.w	r3, [r0, #2056]	@ 0x808
  if (DevEnumSpeed == DSTS_ENUMSPD_HS_PHY_30MHZ_OR_60MHZ)
 8004d98:	f013 0006 	ands.w	r0, r3, #6
 8004d9c:	d004      	beq.n	8004da8 <USB_GetDevSpeed+0x14>
    speed = 0xFU;
 8004d9e:	f013 0f02 	tst.w	r3, #2
 8004da2:	bf14      	ite	ne
 8004da4:	2002      	movne	r0, #2
 8004da6:	200f      	moveq	r0, #15
}
 8004da8:	4770      	bx	lr
 8004daa:	bf00      	nop

08004dac <USB_ActivateEndpoint>:
{
 8004dac:	b510      	push	{r4, lr}
  uint32_t epnum = (uint32_t)ep->num;
 8004dae:	780a      	ldrb	r2, [r1, #0]
    USBx_DEVICE->DAINTMSK |= USB_OTG_DAINTMSK_IEPM & (uint32_t)(1UL << (ep->num & EP_ADDR_MSK));
 8004db0:	2301      	movs	r3, #1
 8004db2:	f002 0e0f 	and.w	lr, r2, #15
 8004db6:	fa03 f30e 	lsl.w	r3, r3, lr
  if (ep->is_in == 1U)
 8004dba:	f891 e001 	ldrb.w	lr, [r1, #1]
 8004dbe:	f1be 0f01 	cmp.w	lr, #1
    USBx_DEVICE->DAINTMSK |= USB_OTG_DAINTMSK_IEPM & (uint32_t)(1UL << (ep->num & EP_ADDR_MSK));
 8004dc2:	f500 6c00 	add.w	ip, r0, #2048	@ 0x800
    if ((USBx_INEP(epnum)->DIEPCTL & USB_OTG_DIEPCTL_USBAEP) == 0U)
 8004dc6:	eb00 1042 	add.w	r0, r0, r2, lsl #5
  if (ep->is_in == 1U)
 8004dca:	d01a      	beq.n	8004e02 <USB_ActivateEndpoint+0x56>
    USBx_DEVICE->DAINTMSK |= USB_OTG_DAINTMSK_OEPM & ((uint32_t)(1UL << (ep->num & EP_ADDR_MSK)) << 16);
 8004dcc:	f8dc 201c 	ldr.w	r2, [ip, #28]
 8004dd0:	ea42 4303 	orr.w	r3, r2, r3, lsl #16
 8004dd4:	f8cc 301c 	str.w	r3, [ip, #28]
    if (((USBx_OUTEP(epnum)->DOEPCTL) & USB_OTG_DOEPCTL_USBAEP) == 0U)
 8004dd8:	f8d0 3b00 	ldr.w	r3, [r0, #2816]	@ 0xb00
 8004ddc:	041b      	lsls	r3, r3, #16
 8004dde:	d40e      	bmi.n	8004dfe <USB_ActivateEndpoint+0x52>
      USBx_OUTEP(epnum)->DOEPCTL |= (ep->maxpacket & USB_OTG_DOEPCTL_MPSIZ) |
 8004de0:	688b      	ldr	r3, [r1, #8]
 8004de2:	f8d0 4b00 	ldr.w	r4, [r0, #2816]	@ 0xb00
                                    ((uint32_t)ep->type << 18) |
 8004de6:	790a      	ldrb	r2, [r1, #4]
      USBx_OUTEP(epnum)->DOEPCTL |= (ep->maxpacket & USB_OTG_DOEPCTL_MPSIZ) |
 8004de8:	f3c3 030a 	ubfx	r3, r3, #0, #11
 8004dec:	4323      	orrs	r3, r4
 8004dee:	ea43 4382 	orr.w	r3, r3, r2, lsl #18
 8004df2:	f043 5380 	orr.w	r3, r3, #268435456	@ 0x10000000
 8004df6:	f443 4300 	orr.w	r3, r3, #32768	@ 0x8000
 8004dfa:	f8c0 3b00 	str.w	r3, [r0, #2816]	@ 0xb00
}
 8004dfe:	2000      	movs	r0, #0
 8004e00:	bd10      	pop	{r4, pc}
    USBx_DEVICE->DAINTMSK |= USB_OTG_DAINTMSK_IEPM & (uint32_t)(1UL << (ep->num & EP_ADDR_MSK));
 8004e02:	f8dc 401c 	ldr.w	r4, [ip, #28]
 8004e06:	4323      	orrs	r3, r4
 8004e08:	f8cc 301c 	str.w	r3, [ip, #28]
    if ((USBx_INEP(epnum)->DIEPCTL & USB_OTG_DIEPCTL_USBAEP) == 0U)
 8004e0c:	f8d0 3900 	ldr.w	r3, [r0, #2304]	@ 0x900
 8004e10:	041c      	lsls	r4, r3, #16
 8004e12:	d4f4      	bmi.n	8004dfe <USB_ActivateEndpoint+0x52>
      USBx_INEP(epnum)->DIEPCTL |= (ep->maxpacket & USB_OTG_DIEPCTL_MPSIZ) |
 8004e14:	688b      	ldr	r3, [r1, #8]
 8004e16:	f8d0 4900 	ldr.w	r4, [r0, #2304]	@ 0x900
                                   ((uint32_t)ep->type << 18) | (epnum << 22) |
 8004e1a:	7909      	ldrb	r1, [r1, #4]
      USBx_INEP(epnum)->DIEPCTL |= (ep->maxpacket & USB_OTG_DIEPCTL_MPSIZ) |
 8004e1c:	f3c3 030a 	ubfx	r3, r3, #0, #11
 8004e20:	4323      	orrs	r3, r4
 8004e22:	ea43 4381 	orr.w	r3, r3, r1, lsl #18
 8004e26:	ea43 5382 	orr.w	r3, r3, r2, lsl #22
 8004e2a:	f043 5380 	orr.w	r3, r3, #268435456	@ 0x10000000
 8004e2e:	f443 4300 	orr.w	r3, r3, #32768	@ 0x8000
 8004e32:	f8c0 3900 	str.w	r3, [r0, #2304]	@ 0x900
}
 8004e36:	2000      	movs	r0, #0
 8004e38:	bd10      	pop	{r4, pc}
 8004e3a:	bf00      	nop

08004e3c <USB_DeactivateEndpoint>:
{
 8004e3c:	b410      	push	{r4}
  uint32_t epnum = (uint32_t)ep->num;
 8004e3e:	780a      	ldrb	r2, [r1, #0]
  if (ep->is_in == 1U)
 8004e40:	7849      	ldrb	r1, [r1, #1]
 8004e42:	2901      	cmp	r1, #1
    if ((USBx_INEP(epnum)->DIEPCTL & USB_OTG_DIEPCTL_EPENA) == USB_OTG_DIEPCTL_EPENA)
 8004e44:	eb00 1342 	add.w	r3, r0, r2, lsl #5
  if (ep->is_in == 1U)
 8004e48:	d02c      	beq.n	8004ea4 <USB_DeactivateEndpoint+0x68>
    if ((USBx_OUTEP(epnum)->DOEPCTL & USB_OTG_DOEPCTL_EPENA) == USB_OTG_DOEPCTL_EPENA)
 8004e4a:	f8d3 1b00 	ldr.w	r1, [r3, #2816]	@ 0xb00
 8004e4e:	2900      	cmp	r1, #0
 8004e50:	db1b      	blt.n	8004e8a <USB_DeactivateEndpoint+0x4e>
    USBx_DEVICE->DEACHMSK &= ~(USB_OTG_DAINTMSK_OEPM & ((uint32_t)(1UL << (ep->num & EP_ADDR_MSK)) << 16));
 8004e52:	f8d0 483c 	ldr.w	r4, [r0, #2108]	@ 0x83c
 8004e56:	f44f 3180 	mov.w	r1, #65536	@ 0x10000
 8004e5a:	f002 020f 	and.w	r2, r2, #15
 8004e5e:	fa01 f202 	lsl.w	r2, r1, r2
 8004e62:	ea24 0402 	bic.w	r4, r4, r2
 8004e66:	f8c0 483c 	str.w	r4, [r0, #2108]	@ 0x83c
    USBx_DEVICE->DAINTMSK &= ~(USB_OTG_DAINTMSK_OEPM & ((uint32_t)(1UL << (ep->num & EP_ADDR_MSK)) << 16));
 8004e6a:	f8d0 481c 	ldr.w	r4, [r0, #2076]	@ 0x81c
    USBx_OUTEP(epnum)->DOEPCTL &= ~(USB_OTG_DOEPCTL_USBAEP |
 8004e6e:	4922      	ldr	r1, [pc, #136]	@ (8004ef8 <USB_DeactivateEndpoint+0xbc>)
    USBx_DEVICE->DAINTMSK &= ~(USB_OTG_DAINTMSK_OEPM & ((uint32_t)(1UL << (ep->num & EP_ADDR_MSK)) << 16));
 8004e70:	ea24 0202 	bic.w	r2, r4, r2
 8004e74:	f8c0 281c 	str.w	r2, [r0, #2076]	@ 0x81c
    USBx_OUTEP(epnum)->DOEPCTL &= ~(USB_OTG_DOEPCTL_USBAEP |
 8004e78:	f8d3 2b00 	ldr.w	r2, [r3, #2816]	@ 0xb00
}
 8004e7c:	f85d 4b04 	ldr.w	r4, [sp], #4
    USBx_OUTEP(epnum)->DOEPCTL &= ~(USB_OTG_DOEPCTL_USBAEP |
 8004e80:	4011      	ands	r1, r2
}
 8004e82:	2000      	movs	r0, #0
    USBx_OUTEP(epnum)->DOEPCTL &= ~(USB_OTG_DOEPCTL_USBAEP |
 8004e84:	f8c3 1b00 	str.w	r1, [r3, #2816]	@ 0xb00
}
 8004e88:	4770      	bx	lr
      USBx_OUTEP(epnum)->DOEPCTL |= USB_OTG_DOEPCTL_SNAK;
 8004e8a:	f8d3 1b00 	ldr.w	r1, [r3, #2816]	@ 0xb00
 8004e8e:	f041 6100 	orr.w	r1, r1, #134217728	@ 0x8000000
 8004e92:	f8c3 1b00 	str.w	r1, [r3, #2816]	@ 0xb00
      USBx_OUTEP(epnum)->DOEPCTL |= USB_OTG_DOEPCTL_EPDIS;
 8004e96:	f8d3 1b00 	ldr.w	r1, [r3, #2816]	@ 0xb00
 8004e9a:	f041 4180 	orr.w	r1, r1, #1073741824	@ 0x40000000
 8004e9e:	f8c3 1b00 	str.w	r1, [r3, #2816]	@ 0xb00
 8004ea2:	e7d6      	b.n	8004e52 <USB_DeactivateEndpoint+0x16>
    if ((USBx_INEP(epnum)->DIEPCTL & USB_OTG_DIEPCTL_EPENA) == USB_OTG_DIEPCTL_EPENA)
 8004ea4:	f8d3 1900 	ldr.w	r1, [r3, #2304]	@ 0x900
 8004ea8:	2900      	cmp	r1, #0
 8004eaa:	da0b      	bge.n	8004ec4 <USB_DeactivateEndpoint+0x88>
      USBx_INEP(epnum)->DIEPCTL |= USB_OTG_DIEPCTL_SNAK;
 8004eac:	f8d3 1900 	ldr.w	r1, [r3, #2304]	@ 0x900
 8004eb0:	f041 6100 	orr.w	r1, r1, #134217728	@ 0x8000000
 8004eb4:	f8c3 1900 	str.w	r1, [r3, #2304]	@ 0x900
      USBx_INEP(epnum)->DIEPCTL |= USB_OTG_DIEPCTL_EPDIS;
 8004eb8:	f8d3 1900 	ldr.w	r1, [r3, #2304]	@ 0x900
 8004ebc:	f041 4180 	orr.w	r1, r1, #1073741824	@ 0x40000000
 8004ec0:	f8c3 1900 	str.w	r1, [r3, #2304]	@ 0x900
    USBx_DEVICE->DEACHMSK &= ~(USB_OTG_DAINTMSK_IEPM & (uint32_t)(1UL << (ep->num & EP_ADDR_MSK)));
 8004ec4:	f8d0 183c 	ldr.w	r1, [r0, #2108]	@ 0x83c
 8004ec8:	f002 040f 	and.w	r4, r2, #15
 8004ecc:	2201      	movs	r2, #1
 8004ece:	40a2      	lsls	r2, r4
 8004ed0:	ea21 0102 	bic.w	r1, r1, r2
 8004ed4:	f8c0 183c 	str.w	r1, [r0, #2108]	@ 0x83c
    USBx_DEVICE->DAINTMSK &= ~(USB_OTG_DAINTMSK_IEPM & (uint32_t)(1UL << (ep->num & EP_ADDR_MSK)));
 8004ed8:	f8d0 481c 	ldr.w	r4, [r0, #2076]	@ 0x81c
    USBx_INEP(epnum)->DIEPCTL &= ~(USB_OTG_DIEPCTL_USBAEP |
 8004edc:	4907      	ldr	r1, [pc, #28]	@ (8004efc <USB_DeactivateEndpoint+0xc0>)
    USBx_DEVICE->DAINTMSK &= ~(USB_OTG_DAINTMSK_IEPM & (uint32_t)(1UL << (ep->num & EP_ADDR_MSK)));
 8004ede:	ea24 0202 	bic.w	r2, r4, r2
 8004ee2:	f8c0 281c 	str.w	r2, [r0, #2076]	@ 0x81c
    USBx_INEP(epnum)->DIEPCTL &= ~(USB_OTG_DIEPCTL_USBAEP |
 8004ee6:	f8d3 2900 	ldr.w	r2, [r3, #2304]	@ 0x900
}
 8004eea:	f85d 4b04 	ldr.w	r4, [sp], #4
    USBx_INEP(epnum)->DIEPCTL &= ~(USB_OTG_DIEPCTL_USBAEP |
 8004eee:	4011      	ands	r1, r2
}
 8004ef0:	2000      	movs	r0, #0
    USBx_INEP(epnum)->DIEPCTL &= ~(USB_OTG_DIEPCTL_USBAEP |
 8004ef2:	f8c3 1900 	str.w	r1, [r3, #2304]	@ 0x900
}
 8004ef6:	4770      	bx	lr
 8004ef8:	eff37800 	.word	0xeff37800
 8004efc:	ec337800 	.word	0xec337800

08004f00 <USB_EPStartXfer>:
{
 8004f00:	e92d 43f0 	stmdb	sp!, {r4, r5, r6, r7, r8, r9, lr}
  if (ep->is_in == 1U)
 8004f04:	784c      	ldrb	r4, [r1, #1]
  uint32_t epnum = (uint32_t)ep->num;
 8004f06:	780e      	ldrb	r6, [r1, #0]
    if (ep->xfer_len == 0U)
 8004f08:	690d      	ldr	r5, [r1, #16]
        if (ep->type == EP_TYPE_ISOC)
 8004f0a:	f891 e004 	ldrb.w	lr, [r1, #4]
  if (ep->is_in == 1U)
 8004f0e:	2c01      	cmp	r4, #1
      USBx_INEP(epnum)->DIEPTSIZ &= ~(USB_OTG_DIEPTSIZ_PKTCNT);
 8004f10:	eb00 1346 	add.w	r3, r0, r6, lsl #5
  if (ep->is_in == 1U)
 8004f14:	d05b      	beq.n	8004fce <USB_EPStartXfer+0xce>
    USBx_OUTEP(epnum)->DOEPTSIZ &= ~(USB_OTG_DOEPTSIZ_XFRSIZ);
 8004f16:	f8d3 4b10 	ldr.w	r4, [r3, #2832]	@ 0xb10
 8004f1a:	f36f 0412 	bfc	r4, #0, #19
 8004f1e:	f8c3 4b10 	str.w	r4, [r3, #2832]	@ 0xb10
    USBx_OUTEP(epnum)->DOEPTSIZ &= ~(USB_OTG_DOEPTSIZ_PKTCNT);
 8004f22:	f8d3 4b10 	ldr.w	r4, [r3, #2832]	@ 0xb10
 8004f26:	f36f 44dc 	bfc	r4, #19, #10
 8004f2a:	f8c3 4b10 	str.w	r4, [r3, #2832]	@ 0xb10
    USBx_OUTEP(epnum)->DOEPTSIZ &= ~(USB_OTG_DOEPTSIZ_XFRSIZ);
 8004f2e:	f503 6c30 	add.w	ip, r3, #2816	@ 0xb00
        ep->xfer_len = ep->maxpacket;
 8004f32:	688c      	ldr	r4, [r1, #8]
    if (epnum == 0U)
 8004f34:	bb56      	cbnz	r6, 8004f8c <USB_EPStartXfer+0x8c>
      if (ep->xfer_len > 0U)
 8004f36:	b105      	cbz	r5, 8004f3a <USB_EPStartXfer+0x3a>
        ep->xfer_len = ep->maxpacket;
 8004f38:	610c      	str	r4, [r1, #16]
      ep->xfer_size = ep->maxpacket;
 8004f3a:	620c      	str	r4, [r1, #32]
        USBx_OUTEP(epnum)->DOEPTSIZ |= (USB_OTG_DOEPTSIZ_XFRSIZ & ep->maxpacket);
 8004f3c:	f8dc 5010 	ldr.w	r5, [ip, #16]
 8004f40:	f3c4 0412 	ubfx	r4, r4, #0, #19
 8004f44:	432c      	orrs	r4, r5
 8004f46:	f8cc 4010 	str.w	r4, [ip, #16]
        USBx_OUTEP(epnum)->DOEPTSIZ |= (USB_OTG_DOEPTSIZ_PKTCNT & (1U << 19));
 8004f4a:	f8dc 4010 	ldr.w	r4, [ip, #16]
    if (dma == 1U)
 8004f4e:	2a01      	cmp	r2, #1
        USBx_OUTEP(epnum)->DOEPTSIZ |= (USB_OTG_DOEPTSIZ_PKTCNT & (1U << 19));
 8004f50:	f444 2400 	orr.w	r4, r4, #524288	@ 0x80000
 8004f54:	f8cc 4010 	str.w	r4, [ip, #16]
    if (dma == 1U)
 8004f58:	d033      	beq.n	8004fc2 <USB_EPStartXfer+0xc2>
    if (ep->type == EP_TYPE_ISOC)
 8004f5a:	f1be 0f01 	cmp.w	lr, #1
 8004f5e:	d10c      	bne.n	8004f7a <USB_EPStartXfer+0x7a>
      if ((USBx_DEVICE->DSTS & (1U << 8)) == 0U)
 8004f60:	f8d0 2808 	ldr.w	r2, [r0, #2056]	@ 0x808
 8004f64:	f412 7f80 	tst.w	r2, #256	@ 0x100
        USBx_OUTEP(epnum)->DOEPCTL |= USB_OTG_DOEPCTL_SODDFRM;
 8004f68:	f8d3 2b00 	ldr.w	r2, [r3, #2816]	@ 0xb00
 8004f6c:	bf0c      	ite	eq
 8004f6e:	f042 5200 	orreq.w	r2, r2, #536870912	@ 0x20000000
        USBx_OUTEP(epnum)->DOEPCTL |= USB_OTG_DOEPCTL_SD0PID_SEVNFRM;
 8004f72:	f042 5280 	orrne.w	r2, r2, #268435456	@ 0x10000000
 8004f76:	f8c3 2b00 	str.w	r2, [r3, #2816]	@ 0xb00
    USBx_OUTEP(epnum)->DOEPCTL |= (USB_OTG_DOEPCTL_CNAK | USB_OTG_DOEPCTL_EPENA);
 8004f7a:	f8d3 2b00 	ldr.w	r2, [r3, #2816]	@ 0xb00
 8004f7e:	f042 4204 	orr.w	r2, r2, #2214592512	@ 0x84000000
 8004f82:	f8c3 2b00 	str.w	r2, [r3, #2816]	@ 0xb00
}
 8004f86:	2000      	movs	r0, #0
 8004f88:	e8bd 83f0 	ldmia.w	sp!, {r4, r5, r6, r7, r8, r9, pc}
      if (ep->xfer_len == 0U)
 8004f8c:	2d00      	cmp	r5, #0
 8004f8e:	d0d5      	beq.n	8004f3c <USB_EPStartXfer+0x3c>
        USBx_OUTEP(epnum)->DOEPTSIZ |= USB_OTG_DOEPTSIZ_PKTCNT & ((uint32_t)pktcnt << 19);
 8004f90:	4e65      	ldr	r6, [pc, #404]	@ (8005128 <USB_EPStartXfer+0x228>)
        pktcnt = (uint16_t)((ep->xfer_len + ep->maxpacket - 1U) / ep->maxpacket);
 8004f92:	4425      	add	r5, r4
 8004f94:	3d01      	subs	r5, #1
 8004f96:	fbb5 f5f4 	udiv	r5, r5, r4
 8004f9a:	b2ad      	uxth	r5, r5
        ep->xfer_size = ep->maxpacket * pktcnt;
 8004f9c:	fb05 f404 	mul.w	r4, r5, r4
        USBx_OUTEP(epnum)->DOEPTSIZ |= USB_OTG_DOEPTSIZ_PKTCNT & ((uint32_t)pktcnt << 19);
 8004fa0:	ea06 45c5 	and.w	r5, r6, r5, lsl #19
 8004fa4:	f8dc 6010 	ldr.w	r6, [ip, #16]
        ep->xfer_size = ep->maxpacket * pktcnt;
 8004fa8:	620c      	str	r4, [r1, #32]
        USBx_OUTEP(epnum)->DOEPTSIZ |= USB_OTG_DOEPTSIZ_PKTCNT & ((uint32_t)pktcnt << 19);
 8004faa:	4335      	orrs	r5, r6
 8004fac:	f8cc 5010 	str.w	r5, [ip, #16]
        USBx_OUTEP(epnum)->DOEPTSIZ |= USB_OTG_DOEPTSIZ_XFRSIZ & ep->xfer_size;
 8004fb0:	f8dc 5010 	ldr.w	r5, [ip, #16]
 8004fb4:	f3c4 0412 	ubfx	r4, r4, #0, #19
 8004fb8:	432c      	orrs	r4, r5
    if (dma == 1U)
 8004fba:	2a01      	cmp	r2, #1
        USBx_OUTEP(epnum)->DOEPTSIZ |= USB_OTG_DOEPTSIZ_XFRSIZ & ep->xfer_size;
 8004fbc:	f8cc 4010 	str.w	r4, [ip, #16]
    if (dma == 1U)
 8004fc0:	d1cb      	bne.n	8004f5a <USB_EPStartXfer+0x5a>
      if ((uint32_t)ep->xfer_buff != 0U)
 8004fc2:	68ca      	ldr	r2, [r1, #12]
 8004fc4:	2a00      	cmp	r2, #0
 8004fc6:	d0c8      	beq.n	8004f5a <USB_EPStartXfer+0x5a>
        USBx_OUTEP(epnum)->DOEPDMA = (uint32_t)(ep->xfer_buff);
 8004fc8:	f8cc 2014 	str.w	r2, [ip, #20]
 8004fcc:	e7c5      	b.n	8004f5a <USB_EPStartXfer+0x5a>
      USBx_INEP(epnum)->DIEPTSIZ &= ~(USB_OTG_DIEPTSIZ_PKTCNT);
 8004fce:	f503 6410 	add.w	r4, r3, #2304	@ 0x900
 8004fd2:	6927      	ldr	r7, [r4, #16]
    if (ep->xfer_len == 0U)
 8004fd4:	b38d      	cbz	r5, 800503a <USB_EPStartXfer+0x13a>
      USBx_INEP(epnum)->DIEPTSIZ &= ~(USB_OTG_DIEPTSIZ_XFRSIZ);
 8004fd6:	f36f 0712 	bfc	r7, #0, #19
 8004fda:	6127      	str	r7, [r4, #16]
      USBx_INEP(epnum)->DIEPTSIZ &= ~(USB_OTG_DIEPTSIZ_PKTCNT);
 8004fdc:	6927      	ldr	r7, [r4, #16]
        if (ep->xfer_len > ep->maxpacket)
 8004fde:	f8d1 9008 	ldr.w	r9, [r1, #8]
      USBx_INEP(epnum)->DIEPTSIZ &= ~(USB_OTG_DIEPTSIZ_PKTCNT);
 8004fe2:	f36f 47dc 	bfc	r7, #19, #10
 8004fe6:	6127      	str	r7, [r4, #16]
      if (epnum == 0U)
 8004fe8:	2e00      	cmp	r6, #0
 8004fea:	d179      	bne.n	80050e0 <USB_EPStartXfer+0x1e0>
        USBx_INEP(epnum)->DIEPTSIZ |= (USB_OTG_DIEPTSIZ_PKTCNT & (1U << 19));
 8004fec:	6927      	ldr	r7, [r4, #16]
        if (ep->xfer_len > ep->maxpacket)
 8004fee:	45a9      	cmp	r9, r5
        USBx_INEP(epnum)->DIEPTSIZ |= (USB_OTG_DIEPTSIZ_PKTCNT & (1U << 19));
 8004ff0:	f447 2700 	orr.w	r7, r7, #524288	@ 0x80000
          ep->xfer_len = ep->maxpacket;
 8004ff4:	bf3c      	itt	cc
 8004ff6:	f8c1 9010 	strcc.w	r9, [r1, #16]
 8004ffa:	464d      	movcc	r5, r9
        USBx_INEP(epnum)->DIEPTSIZ |= (USB_OTG_DIEPTSIZ_PKTCNT & (1U << 19));
 8004ffc:	6127      	str	r7, [r4, #16]
      USBx_INEP(epnum)->DIEPTSIZ |= (USB_OTG_DIEPTSIZ_XFRSIZ & ep->xfer_len);
 8004ffe:	f8d4 c010 	ldr.w	ip, [r4, #16]
 8005002:	f3c5 0712 	ubfx	r7, r5, #0, #19
 8005006:	ea47 070c 	orr.w	r7, r7, ip
    if (dma == 1U)
 800500a:	2a01      	cmp	r2, #1
      USBx_INEP(epnum)->DIEPTSIZ |= (USB_OTG_DIEPTSIZ_XFRSIZ & ep->xfer_len);
 800500c:	6127      	str	r7, [r4, #16]
    if (dma == 1U)
 800500e:	d04b      	beq.n	80050a8 <USB_EPStartXfer+0x1a8>
      USBx_INEP(epnum)->DIEPCTL |= (USB_OTG_DIEPCTL_CNAK | USB_OTG_DIEPCTL_EPENA);
 8005010:	f8d3 4900 	ldr.w	r4, [r3, #2304]	@ 0x900
      if (ep->type != EP_TYPE_ISOC)
 8005014:	f1be 0f01 	cmp.w	lr, #1
      USBx_INEP(epnum)->DIEPCTL |= (USB_OTG_DIEPCTL_CNAK | USB_OTG_DIEPCTL_EPENA);
 8005018:	f044 4404 	orr.w	r4, r4, #2214592512	@ 0x84000000
 800501c:	f8c3 4900 	str.w	r4, [r3, #2304]	@ 0x900
      if (ep->type != EP_TYPE_ISOC)
 8005020:	d021      	beq.n	8005066 <USB_EPStartXfer+0x166>
        if (ep->xfer_len > 0U)
 8005022:	2d00      	cmp	r5, #0
 8005024:	d0af      	beq.n	8004f86 <USB_EPStartXfer+0x86>
          USBx_DEVICE->DIEPEMPMSK |= 1UL << (ep->num & EP_ADDR_MSK);
 8005026:	f8d0 2834 	ldr.w	r2, [r0, #2100]	@ 0x834
 800502a:	f006 060f 	and.w	r6, r6, #15
 800502e:	2301      	movs	r3, #1
 8005030:	40b3      	lsls	r3, r6
 8005032:	4313      	orrs	r3, r2
 8005034:	f8c0 3834 	str.w	r3, [r0, #2100]	@ 0x834
 8005038:	e7a5      	b.n	8004f86 <USB_EPStartXfer+0x86>
      USBx_INEP(epnum)->DIEPTSIZ &= ~(USB_OTG_DIEPTSIZ_PKTCNT);
 800503a:	f36f 47dc 	bfc	r7, #19, #10
 800503e:	6127      	str	r7, [r4, #16]
      USBx_INEP(epnum)->DIEPTSIZ |= (USB_OTG_DIEPTSIZ_PKTCNT & (1U << 19));
 8005040:	6927      	ldr	r7, [r4, #16]
 8005042:	f447 2700 	orr.w	r7, r7, #524288	@ 0x80000
 8005046:	6127      	str	r7, [r4, #16]
      USBx_INEP(epnum)->DIEPTSIZ &= ~(USB_OTG_DIEPTSIZ_XFRSIZ);
 8005048:	6927      	ldr	r7, [r4, #16]
    if (dma == 1U)
 800504a:	2a01      	cmp	r2, #1
      USBx_INEP(epnum)->DIEPTSIZ &= ~(USB_OTG_DIEPTSIZ_XFRSIZ);
 800504c:	f36f 0712 	bfc	r7, #0, #19
 8005050:	6127      	str	r7, [r4, #16]
    if (dma == 1U)
 8005052:	d029      	beq.n	80050a8 <USB_EPStartXfer+0x1a8>
      USBx_INEP(epnum)->DIEPCTL |= (USB_OTG_DIEPCTL_CNAK | USB_OTG_DIEPCTL_EPENA);
 8005054:	f8d3 4900 	ldr.w	r4, [r3, #2304]	@ 0x900
      if (ep->type != EP_TYPE_ISOC)
 8005058:	f1be 0f01 	cmp.w	lr, #1
      USBx_INEP(epnum)->DIEPCTL |= (USB_OTG_DIEPCTL_CNAK | USB_OTG_DIEPCTL_EPENA);
 800505c:	f044 4404 	orr.w	r4, r4, #2214592512	@ 0x84000000
 8005060:	f8c3 4900 	str.w	r4, [r3, #2304]	@ 0x900
      if (ep->type != EP_TYPE_ISOC)
 8005064:	d18f      	bne.n	8004f86 <USB_EPStartXfer+0x86>
        if ((USBx_DEVICE->DSTS & (1U << 8)) == 0U)
 8005066:	f8d0 4808 	ldr.w	r4, [r0, #2056]	@ 0x808
 800506a:	f414 7f80 	tst.w	r4, #256	@ 0x100
          USBx_INEP(epnum)->DIEPCTL |= USB_OTG_DIEPCTL_SODDFRM;
 800506e:	f8d3 4900 	ldr.w	r4, [r3, #2304]	@ 0x900
 8005072:	bf0c      	ite	eq
 8005074:	f044 5400 	orreq.w	r4, r4, #536870912	@ 0x20000000
          USBx_INEP(epnum)->DIEPCTL |= USB_OTG_DIEPCTL_SD0PID_SEVNFRM;
 8005078:	f044 5480 	orrne.w	r4, r4, #268435456	@ 0x10000000
 800507c:	f8c3 4900 	str.w	r4, [r3, #2304]	@ 0x900
  if (dma == 0U)
 8005080:	2a00      	cmp	r2, #0
 8005082:	d180      	bne.n	8004f86 <USB_EPStartXfer+0x86>
    count32b = ((uint32_t)len + 3U) / 4U;
 8005084:	b2ad      	uxth	r5, r5
 8005086:	3503      	adds	r5, #3
    for (i = 0U; i < count32b; i++)
 8005088:	08ad      	lsrs	r5, r5, #2
 800508a:	f43f af7c 	beq.w	8004f86 <USB_EPStartXfer+0x86>
        (void)USB_WritePacket(USBx, ep->xfer_buff, ep->num, (uint16_t)ep->xfer_len, dma);
 800508e:	68cb      	ldr	r3, [r1, #12]
      USBx_DFIFO((uint32_t)ch_ep_num) = __UNALIGNED_UINT32_READ(pSrc);
 8005090:	eb00 3606 	add.w	r6, r0, r6, lsl #12
 8005094:	f506 5680 	add.w	r6, r6, #4096	@ 0x1000
 8005098:	eb03 0185 	add.w	r1, r3, r5, lsl #2
 800509c:	f853 2b04 	ldr.w	r2, [r3], #4
 80050a0:	6032      	str	r2, [r6, #0]
    for (i = 0U; i < count32b; i++)
 80050a2:	4299      	cmp	r1, r3
 80050a4:	d1fa      	bne.n	800509c <USB_EPStartXfer+0x19c>
 80050a6:	e76e      	b.n	8004f86 <USB_EPStartXfer+0x86>
      if ((uint32_t)ep->dma_addr != 0U)
 80050a8:	69ca      	ldr	r2, [r1, #28]
 80050aa:	b102      	cbz	r2, 80050ae <USB_EPStartXfer+0x1ae>
        USBx_INEP(epnum)->DIEPDMA = (uint32_t)(ep->dma_addr);
 80050ac:	6162      	str	r2, [r4, #20]
      if (ep->type == EP_TYPE_ISOC)
 80050ae:	f1be 0f01 	cmp.w	lr, #1
 80050b2:	d10c      	bne.n	80050ce <USB_EPStartXfer+0x1ce>
        if ((USBx_DEVICE->DSTS & (1U << 8)) == 0U)
 80050b4:	f8d0 2808 	ldr.w	r2, [r0, #2056]	@ 0x808
 80050b8:	f412 7f80 	tst.w	r2, #256	@ 0x100
          USBx_INEP(epnum)->DIEPCTL |= USB_OTG_DIEPCTL_SODDFRM;
 80050bc:	f8d3 2900 	ldr.w	r2, [r3, #2304]	@ 0x900
 80050c0:	bf0c      	ite	eq
 80050c2:	f042 5200 	orreq.w	r2, r2, #536870912	@ 0x20000000
          USBx_INEP(epnum)->DIEPCTL |= USB_OTG_DIEPCTL_SD0PID_SEVNFRM;
 80050c6:	f042 5280 	orrne.w	r2, r2, #268435456	@ 0x10000000
 80050ca:	f8c3 2900 	str.w	r2, [r3, #2304]	@ 0x900
      USBx_INEP(epnum)->DIEPCTL |= (USB_OTG_DIEPCTL_CNAK | USB_OTG_DIEPCTL_EPENA);
 80050ce:	f8d3 2900 	ldr.w	r2, [r3, #2304]	@ 0x900
 80050d2:	f042 4204 	orr.w	r2, r2, #2214592512	@ 0x84000000
 80050d6:	f8c3 2900 	str.w	r2, [r3, #2304]	@ 0x900
}
 80050da:	2000      	movs	r0, #0
 80050dc:	e8bd 83f0 	ldmia.w	sp!, {r4, r5, r6, r7, r8, r9, pc}
        USBx_INEP(epnum)->DIEPTSIZ |= (USB_OTG_DIEPTSIZ_PKTCNT & ((uint32_t)pktcnt << 19));
 80050e0:	4f11      	ldr	r7, [pc, #68]	@ (8005128 <USB_EPStartXfer+0x228>)
 80050e2:	f8d4 8010 	ldr.w	r8, [r4, #16]
        pktcnt = (uint16_t)((ep->xfer_len + ep->maxpacket - 1U) / ep->maxpacket);
 80050e6:	eb09 0c05 	add.w	ip, r9, r5
 80050ea:	f10c 3cff 	add.w	ip, ip, #4294967295
 80050ee:	fbbc fcf9 	udiv	ip, ip, r9
        USBx_INEP(epnum)->DIEPTSIZ |= (USB_OTG_DIEPTSIZ_PKTCNT & ((uint32_t)pktcnt << 19));
 80050f2:	ea07 47cc 	and.w	r7, r7, ip, lsl #19
 80050f6:	ea47 0708 	orr.w	r7, r7, r8
        if (ep->type == EP_TYPE_ISOC)
 80050fa:	f1be 0f01 	cmp.w	lr, #1
        USBx_INEP(epnum)->DIEPTSIZ |= (USB_OTG_DIEPTSIZ_PKTCNT & ((uint32_t)pktcnt << 19));
 80050fe:	6127      	str	r7, [r4, #16]
        if (ep->type == EP_TYPE_ISOC)
 8005100:	fa1f fc8c 	uxth.w	ip, ip
 8005104:	f47f af7b 	bne.w	8004ffe <USB_EPStartXfer+0xfe>
          USBx_INEP(epnum)->DIEPTSIZ |= (USB_OTG_DIEPTSIZ_MULCNT & ((uint32_t)pktcnt << 29));
 8005108:	ea4f 7c4c 	mov.w	ip, ip, lsl #29
 800510c:	f00c 47c0 	and.w	r7, ip, #1610612736	@ 0x60000000
          USBx_INEP(epnum)->DIEPTSIZ &= ~(USB_OTG_DIEPTSIZ_MULCNT);
 8005110:	f8d4 c010 	ldr.w	ip, [r4, #16]
 8005114:	f02c 4cc0 	bic.w	ip, ip, #1610612736	@ 0x60000000
 8005118:	f8c4 c010 	str.w	ip, [r4, #16]
          USBx_INEP(epnum)->DIEPTSIZ |= (USB_OTG_DIEPTSIZ_MULCNT & ((uint32_t)pktcnt << 29));
 800511c:	f8d4 c010 	ldr.w	ip, [r4, #16]
 8005120:	ea47 070c 	orr.w	r7, r7, ip
 8005124:	6127      	str	r7, [r4, #16]
 8005126:	e76a      	b.n	8004ffe <USB_EPStartXfer+0xfe>
 8005128:	1ff80000 	.word	0x1ff80000

0800512c <USB_EPStopXfer>:
{
 800512c:	b410      	push	{r4}
  if (ep->is_in == 1U)
 800512e:	784a      	ldrb	r2, [r1, #1]
    if (((USBx_INEP(ep->num)->DIEPCTL) & USB_OTG_DIEPCTL_EPENA) == USB_OTG_DIEPCTL_EPENA)
 8005130:	780b      	ldrb	r3, [r1, #0]
{
 8005132:	b083      	sub	sp, #12
  __IO uint32_t count = 0U;
 8005134:	2100      	movs	r1, #0
  if (ep->is_in == 1U)
 8005136:	2a01      	cmp	r2, #1
  __IO uint32_t count = 0U;
 8005138:	9101      	str	r1, [sp, #4]
    if (((USBx_INEP(ep->num)->DIEPCTL) & USB_OTG_DIEPCTL_EPENA) == USB_OTG_DIEPCTL_EPENA)
 800513a:	ea4f 1343 	mov.w	r3, r3, lsl #5
  if (ep->is_in == 1U)
 800513e:	d023      	beq.n	8005188 <USB_EPStopXfer+0x5c>
    if (((USBx_OUTEP(ep->num)->DOEPCTL) & USB_OTG_DOEPCTL_EPENA) == USB_OTG_DOEPCTL_EPENA)
 8005140:	f500 6030 	add.w	r0, r0, #2816	@ 0xb00
 8005144:	18c2      	adds	r2, r0, r3
 8005146:	58c1      	ldr	r1, [r0, r3]
 8005148:	2900      	cmp	r1, #0
 800514a:	db04      	blt.n	8005156 <USB_EPStopXfer+0x2a>
  HAL_StatusTypeDef ret = HAL_OK;
 800514c:	2000      	movs	r0, #0
}
 800514e:	b003      	add	sp, #12
 8005150:	f85d 4b04 	ldr.w	r4, [sp], #4
 8005154:	4770      	bx	lr
      USBx_OUTEP(ep->num)->DOEPCTL |= (USB_OTG_DOEPCTL_SNAK);
 8005156:	58c4      	ldr	r4, [r0, r3]
 8005158:	f044 6400 	orr.w	r4, r4, #134217728	@ 0x8000000
 800515c:	50c4      	str	r4, [r0, r3]
      USBx_OUTEP(ep->num)->DOEPCTL |= (USB_OTG_DOEPCTL_EPDIS);
 800515e:	58c4      	ldr	r4, [r0, r3]
 8005160:	f044 4480 	orr.w	r4, r4, #1073741824	@ 0x40000000
 8005164:	50c4      	str	r4, [r0, r3]
        if (count > 10000U)
 8005166:	f242 7110 	movw	r1, #10000	@ 0x2710
 800516a:	e002      	b.n	8005172 <USB_EPStopXfer+0x46>
      } while (((USBx_OUTEP(ep->num)->DOEPCTL) & USB_OTG_DOEPCTL_EPENA) ==  USB_OTG_DOEPCTL_EPENA);
 800516c:	6813      	ldr	r3, [r2, #0]
 800516e:	2b00      	cmp	r3, #0
 8005170:	daec      	bge.n	800514c <USB_EPStopXfer+0x20>
        count++;
 8005172:	9b01      	ldr	r3, [sp, #4]
 8005174:	3301      	adds	r3, #1
 8005176:	9301      	str	r3, [sp, #4]
        if (count > 10000U)
 8005178:	9b01      	ldr	r3, [sp, #4]
 800517a:	428b      	cmp	r3, r1
 800517c:	d9f6      	bls.n	800516c <USB_EPStopXfer+0x40>
          ret = HAL_ERROR;
 800517e:	2001      	movs	r0, #1
}
 8005180:	b003      	add	sp, #12
 8005182:	f85d 4b04 	ldr.w	r4, [sp], #4
 8005186:	4770      	bx	lr
    if (((USBx_INEP(ep->num)->DIEPCTL) & USB_OTG_DIEPCTL_EPENA) == USB_OTG_DIEPCTL_EPENA)
 8005188:	f500 6010 	add.w	r0, r0, #2304	@ 0x900
 800518c:	18c2      	adds	r2, r0, r3
 800518e:	58c1      	ldr	r1, [r0, r3]
 8005190:	2900      	cmp	r1, #0
 8005192:	dadb      	bge.n	800514c <USB_EPStopXfer+0x20>
      USBx_INEP(ep->num)->DIEPCTL |= (USB_OTG_DIEPCTL_SNAK);
 8005194:	58c4      	ldr	r4, [r0, r3]
 8005196:	f044 6400 	orr.w	r4, r4, #134217728	@ 0x8000000
 800519a:	50c4      	str	r4, [r0, r3]
      USBx_INEP(ep->num)->DIEPCTL |= (USB_OTG_DIEPCTL_EPDIS);
 800519c:	58c4      	ldr	r4, [r0, r3]
 800519e:	f044 4480 	orr.w	r4, r4, #1073741824	@ 0x40000000
 80051a2:	50c4      	str	r4, [r0, r3]
        if (count > 10000U)
 80051a4:	f242 7110 	movw	r1, #10000	@ 0x2710
 80051a8:	e002      	b.n	80051b0 <USB_EPStopXfer+0x84>
      } while (((USBx_INEP(ep->num)->DIEPCTL) & USB_OTG_DIEPCTL_EPENA) ==  USB_OTG_DIEPCTL_EPENA);
 80051aa:	6813      	ldr	r3, [r2, #0]
 80051ac:	2b00      	cmp	r3, #0
 80051ae:	dacd      	bge.n	800514c <USB_EPStopXfer+0x20>
        count++;
 80051b0:	9b01      	ldr	r3, [sp, #4]
 80051b2:	3301      	adds	r3, #1
 80051b4:	9301      	str	r3, [sp, #4]
        if (count > 10000U)
 80051b6:	9b01      	ldr	r3, [sp, #4]
 80051b8:	428b      	cmp	r3, r1
 80051ba:	d9f6      	bls.n	80051aa <USB_EPStopXfer+0x7e>
 80051bc:	e7df      	b.n	800517e <USB_EPStopXfer+0x52>
 80051be:	bf00      	nop

080051c0 <USB_WritePacket>:
{
 80051c0:	b410      	push	{r4}
 80051c2:	f89d 4004 	ldrb.w	r4, [sp, #4]
  if (dma == 0U)
 80051c6:	b964      	cbnz	r4, 80051e2 <USB_WritePacket+0x22>
    count32b = ((uint32_t)len + 3U) / 4U;
 80051c8:	3303      	adds	r3, #3
    for (i = 0U; i < count32b; i++)
 80051ca:	089b      	lsrs	r3, r3, #2
 80051cc:	d009      	beq.n	80051e2 <USB_WritePacket+0x22>
      USBx_DFIFO((uint32_t)ch_ep_num) = __UNALIGNED_UINT32_READ(pSrc);
 80051ce:	3201      	adds	r2, #1
 80051d0:	eb00 3002 	add.w	r0, r0, r2, lsl #12
 80051d4:	eb01 0383 	add.w	r3, r1, r3, lsl #2
 80051d8:	f851 2b04 	ldr.w	r2, [r1], #4
 80051dc:	6002      	str	r2, [r0, #0]
    for (i = 0U; i < count32b; i++)
 80051de:	428b      	cmp	r3, r1
 80051e0:	d1fa      	bne.n	80051d8 <USB_WritePacket+0x18>
}
 80051e2:	2000      	movs	r0, #0
 80051e4:	f85d 4b04 	ldr.w	r4, [sp], #4
 80051e8:	4770      	bx	lr
 80051ea:	bf00      	nop

080051ec <USB_ReadPacket>:
{
 80051ec:	b570      	push	{r4, r5, r6, lr}
  for (i = 0U; i < count32b; i++)
 80051ee:	ea5f 0e92 	movs.w	lr, r2, lsr #2
{
 80051f2:	4605      	mov	r5, r0
  uint16_t remaining_bytes = len % 4U;
 80051f4:	f002 0603 	and.w	r6, r2, #3
  for (i = 0U; i < count32b; i++)
 80051f8:	d01c      	beq.n	8005234 <USB_ReadPacket+0x48>
    __UNALIGNED_UINT32_WRITE(&pData, USBx_DFIFO(0U));
 80051fa:	f500 5480 	add.w	r4, r0, #4096	@ 0x1000
  uint8_t *pDest = dest;
 80051fe:	468c      	mov	ip, r1
  for (i = 0U; i < count32b; i++)
 8005200:	2300      	movs	r3, #0
 8005202:	3301      	adds	r3, #1
    __UNALIGNED_UINT32_WRITE(pDest, USBx_DFIFO(0U));
 8005204:	6822      	ldr	r2, [r4, #0]
 8005206:	f84c 2b04 	str.w	r2, [ip], #4
  for (i = 0U; i < count32b; i++)
 800520a:	459e      	cmp	lr, r3
 800520c:	d1f9      	bne.n	8005202 <USB_ReadPacket+0x16>
 800520e:	eb01 008e 	add.w	r0, r1, lr, lsl #2
  if (remaining_bytes != 0U)
 8005212:	b176      	cbz	r6, 8005232 <USB_ReadPacket+0x46>
    __UNALIGNED_UINT32_WRITE(&pData, USBx_DFIFO(0U));
 8005214:	f505 5580 	add.w	r5, r5, #4096	@ 0x1000
    } while (remaining_bytes != 0U);
 8005218:	2e01      	cmp	r6, #1
    __UNALIGNED_UINT32_WRITE(&pData, USBx_DFIFO(0U));
 800521a:	682b      	ldr	r3, [r5, #0]
      *(uint8_t *)pDest = (uint8_t)(pData >> (8U * (uint8_t)(i)));
 800521c:	7003      	strb	r3, [r0, #0]
    } while (remaining_bytes != 0U);
 800521e:	d007      	beq.n	8005230 <USB_ReadPacket+0x44>
 8005220:	2e02      	cmp	r6, #2
      *(uint8_t *)pDest = (uint8_t)(pData >> (8U * (uint8_t)(i)));
 8005222:	ea4f 2213 	mov.w	r2, r3, lsr #8
 8005226:	bf18      	it	ne
 8005228:	0c1b      	lsrne	r3, r3, #16
 800522a:	7042      	strb	r2, [r0, #1]
 800522c:	bf18      	it	ne
 800522e:	7083      	strbne	r3, [r0, #2]
    } while (remaining_bytes != 0U);
 8005230:	4430      	add	r0, r6
}
 8005232:	bd70      	pop	{r4, r5, r6, pc}
  uint8_t *pDest = dest;
 8005234:	4608      	mov	r0, r1
 8005236:	e7ec      	b.n	8005212 <USB_ReadPacket+0x26>

08005238 <USB_EPSetStall>:
  if (ep->is_in == 1U)
 8005238:	784a      	ldrb	r2, [r1, #1]
  uint32_t epnum = (uint32_t)ep->num;
 800523a:	780b      	ldrb	r3, [r1, #0]
  if (ep->is_in == 1U)
 800523c:	2a01      	cmp	r2, #1
    if (((USBx_INEP(epnum)->DIEPCTL & USB_OTG_DIEPCTL_EPENA) == 0U) && (epnum != 0U))
 800523e:	eb00 1043 	add.w	r0, r0, r3, lsl #5
  if (ep->is_in == 1U)
 8005242:	d00c      	beq.n	800525e <USB_EPSetStall+0x26>
    if (((USBx_OUTEP(epnum)->DOEPCTL & USB_OTG_DOEPCTL_EPENA) == 0U) && (epnum != 0U))
 8005244:	f8d0 2b00 	ldr.w	r2, [r0, #2816]	@ 0xb00
 8005248:	2a00      	cmp	r2, #0
 800524a:	db00      	blt.n	800524e <USB_EPSetStall+0x16>
 800524c:	b9d3      	cbnz	r3, 8005284 <USB_EPSetStall+0x4c>
    USBx_OUTEP(epnum)->DOEPCTL |= USB_OTG_DOEPCTL_STALL;
 800524e:	f8d0 3b00 	ldr.w	r3, [r0, #2816]	@ 0xb00
 8005252:	f443 1300 	orr.w	r3, r3, #2097152	@ 0x200000
 8005256:	f8c0 3b00 	str.w	r3, [r0, #2816]	@ 0xb00
}
 800525a:	2000      	movs	r0, #0
 800525c:	4770      	bx	lr
    if (((USBx_INEP(epnum)->DIEPCTL & USB_OTG_DIEPCTL_EPENA) == 0U) && (epnum != 0U))
 800525e:	f8d0 2900 	ldr.w	r2, [r0, #2304]	@ 0x900
 8005262:	2a00      	cmp	r2, #0
 8005264:	db06      	blt.n	8005274 <USB_EPSetStall+0x3c>
 8005266:	b12b      	cbz	r3, 8005274 <USB_EPSetStall+0x3c>
      USBx_INEP(epnum)->DIEPCTL &= ~(USB_OTG_DIEPCTL_EPDIS);
 8005268:	f8d0 3900 	ldr.w	r3, [r0, #2304]	@ 0x900
 800526c:	f023 4380 	bic.w	r3, r3, #1073741824	@ 0x40000000
 8005270:	f8c0 3900 	str.w	r3, [r0, #2304]	@ 0x900
    USBx_INEP(epnum)->DIEPCTL |= USB_OTG_DIEPCTL_STALL;
 8005274:	f8d0 3900 	ldr.w	r3, [r0, #2304]	@ 0x900
 8005278:	f443 1300 	orr.w	r3, r3, #2097152	@ 0x200000
 800527c:	f8c0 3900 	str.w	r3, [r0, #2304]	@ 0x900
}
 8005280:	2000      	movs	r0, #0
 8005282:	4770      	bx	lr
      USBx_OUTEP(epnum)->DOEPCTL &= ~(USB_OTG_DOEPCTL_EPDIS);
 8005284:	f8d0 3b00 	ldr.w	r3, [r0, #2816]	@ 0xb00
 8005288:	f023 4380 	bic.w	r3, r3, #1073741824	@ 0x40000000
 800528c:	f8c0 3b00 	str.w	r3, [r0, #2816]	@ 0xb00
 8005290:	e7dd      	b.n	800524e <USB_EPSetStall+0x16>
 8005292:	bf00      	nop

08005294 <USB_EPClearStall>:
    if ((ep->type == EP_TYPE_INTR) || (ep->type == EP_TYPE_BULK))
 8005294:	790b      	ldrb	r3, [r1, #4]
  if (ep->is_in == 1U)
 8005296:	784a      	ldrb	r2, [r1, #1]
    USBx_INEP(epnum)->DIEPCTL &= ~USB_OTG_DIEPCTL_STALL;
 8005298:	f891 c000 	ldrb.w	ip, [r1]
    if ((ep->type == EP_TYPE_INTR) || (ep->type == EP_TYPE_BULK))
 800529c:	3b02      	subs	r3, #2
  if (ep->is_in == 1U)
 800529e:	2a01      	cmp	r2, #1
    USBx_INEP(epnum)->DIEPCTL &= ~USB_OTG_DIEPCTL_STALL;
 80052a0:	eb00 104c 	add.w	r0, r0, ip, lsl #5
    if ((ep->type == EP_TYPE_INTR) || (ep->type == EP_TYPE_BULK))
 80052a4:	b2db      	uxtb	r3, r3
  if (ep->is_in == 1U)
 80052a6:	d011      	beq.n	80052cc <USB_EPClearStall+0x38>
    USBx_OUTEP(epnum)->DOEPCTL &= ~USB_OTG_DOEPCTL_STALL;
 80052a8:	f8d0 2b00 	ldr.w	r2, [r0, #2816]	@ 0xb00
    if ((ep->type == EP_TYPE_INTR) || (ep->type == EP_TYPE_BULK))
 80052ac:	2b01      	cmp	r3, #1
    USBx_OUTEP(epnum)->DOEPCTL &= ~USB_OTG_DOEPCTL_STALL;
 80052ae:	f422 1200 	bic.w	r2, r2, #2097152	@ 0x200000
 80052b2:	f8c0 2b00 	str.w	r2, [r0, #2816]	@ 0xb00
    if ((ep->type == EP_TYPE_INTR) || (ep->type == EP_TYPE_BULK))
 80052b6:	d901      	bls.n	80052bc <USB_EPClearStall+0x28>
}
 80052b8:	2000      	movs	r0, #0
 80052ba:	4770      	bx	lr
      USBx_OUTEP(epnum)->DOEPCTL |= USB_OTG_DOEPCTL_SD0PID_SEVNFRM; /* DATA0 */
 80052bc:	f8d0 3b00 	ldr.w	r3, [r0, #2816]	@ 0xb00
 80052c0:	f043 5380 	orr.w	r3, r3, #268435456	@ 0x10000000
 80052c4:	f8c0 3b00 	str.w	r3, [r0, #2816]	@ 0xb00
}
 80052c8:	2000      	movs	r0, #0
 80052ca:	4770      	bx	lr
    USBx_INEP(epnum)->DIEPCTL &= ~USB_OTG_DIEPCTL_STALL;
 80052cc:	f8d0 2900 	ldr.w	r2, [r0, #2304]	@ 0x900
    if ((ep->type == EP_TYPE_INTR) || (ep->type == EP_TYPE_BULK))
 80052d0:	2b01      	cmp	r3, #1
    USBx_INEP(epnum)->DIEPCTL &= ~USB_OTG_DIEPCTL_STALL;
 80052d2:	f422 1200 	bic.w	r2, r2, #2097152	@ 0x200000
 80052d6:	f8c0 2900 	str.w	r2, [r0, #2304]	@ 0x900
    if ((ep->type == EP_TYPE_INTR) || (ep->type == EP_TYPE_BULK))
 80052da:	d8ed      	bhi.n	80052b8 <USB_EPClearStall+0x24>
      USBx_INEP(epnum)->DIEPCTL |= USB_OTG_DIEPCTL_SD0PID_SEVNFRM; /* DATA0 */
 80052dc:	f8d0 3900 	ldr.w	r3, [r0, #2304]	@ 0x900
 80052e0:	f043 5380 	orr.w	r3, r3, #268435456	@ 0x10000000
 80052e4:	f8c0 3900 	str.w	r3, [r0, #2304]	@ 0x900
}
 80052e8:	2000      	movs	r0, #0
 80052ea:	4770      	bx	lr

080052ec <USB_SetDevAddress>:
  USBx_DEVICE->DCFG &= ~(USB_OTG_DCFG_DAD);
 80052ec:	f8d0 3800 	ldr.w	r3, [r0, #2048]	@ 0x800
 80052f0:	f423 63fe 	bic.w	r3, r3, #2032	@ 0x7f0
 80052f4:	f8c0 3800 	str.w	r3, [r0, #2048]	@ 0x800
  USBx_DEVICE->DCFG |= ((uint32_t)address << 4) & USB_OTG_DCFG_DAD;
 80052f8:	f8d0 3800 	ldr.w	r3, [r0, #2048]	@ 0x800
 80052fc:	0109      	lsls	r1, r1, #4
 80052fe:	f401 61fe 	and.w	r1, r1, #2032	@ 0x7f0
 8005302:	4319      	orrs	r1, r3
 8005304:	f8c0 1800 	str.w	r1, [r0, #2048]	@ 0x800
}
 8005308:	2000      	movs	r0, #0
 800530a:	4770      	bx	lr

0800530c <USB_DevConnect>:
  USBx_PCGCCTL &= ~(USB_OTG_PCGCCTL_STOPCLK | USB_OTG_PCGCCTL_GATECLK);
 800530c:	f8d0 2e00 	ldr.w	r2, [r0, #3584]	@ 0xe00
{
 8005310:	4603      	mov	r3, r0
  USBx_PCGCCTL &= ~(USB_OTG_PCGCCTL_STOPCLK | USB_OTG_PCGCCTL_GATECLK);
 8005312:	f022 0203 	bic.w	r2, r2, #3
 8005316:	f8c3 2e00 	str.w	r2, [r3, #3584]	@ 0xe00
  USBx_DEVICE->DCTL &= ~USB_OTG_DCTL_SDIS;
 800531a:	f8d3 3804 	ldr.w	r3, [r3, #2052]	@ 0x804
 800531e:	f500 6100 	add.w	r1, r0, #2048	@ 0x800
 8005322:	f023 0302 	bic.w	r3, r3, #2
}
 8005326:	2000      	movs	r0, #0
  USBx_DEVICE->DCTL &= ~USB_OTG_DCTL_SDIS;
 8005328:	604b      	str	r3, [r1, #4]
}
 800532a:	4770      	bx	lr

0800532c <USB_DevDisconnect>:
  USBx_PCGCCTL &= ~(USB_OTG_PCGCCTL_STOPCLK | USB_OTG_PCGCCTL_GATECLK);
 800532c:	f8d0 2e00 	ldr.w	r2, [r0, #3584]	@ 0xe00
{
 8005330:	4603      	mov	r3, r0
  USBx_PCGCCTL &= ~(USB_OTG_PCGCCTL_STOPCLK | USB_OTG_PCGCCTL_GATECLK);
 8005332:	f022 0203 	bic.w	r2, r2, #3
 8005336:	f8c3 2e00 	str.w	r2, [r3, #3584]	@ 0xe00
  USBx_DEVICE->DCTL |= USB_OTG_DCTL_SDIS;
 800533a:	f8d3 3804 	ldr.w	r3, [r3, #2052]	@ 0x804
 800533e:	f500 6100 	add.w	r1, r0, #2048	@ 0x800
 8005342:	f043 0302 	orr.w	r3, r3, #2
}
 8005346:	2000      	movs	r0, #0
  USBx_DEVICE->DCTL |= USB_OTG_DCTL_SDIS;
 8005348:	604b      	str	r3, [r1, #4]
}
 800534a:	4770      	bx	lr

0800534c <USB_ReadInterrupts>:
  tmpreg = USBx->GINTSTS;
 800534c:	6942      	ldr	r2, [r0, #20]
  tmpreg &= USBx->GINTMSK;
 800534e:	6980      	ldr	r0, [r0, #24]
}
 8005350:	4010      	ands	r0, r2
 8005352:	4770      	bx	lr

08005354 <USB_ReadDevAllOutEpInterrupt>:
  tmpreg  = USBx_DEVICE->DAINT;
 8005354:	f8d0 3818 	ldr.w	r3, [r0, #2072]	@ 0x818
 8005358:	f500 6000 	add.w	r0, r0, #2048	@ 0x800
  tmpreg &= USBx_DEVICE->DAINTMSK;
 800535c:	69c0      	ldr	r0, [r0, #28]
 800535e:	4018      	ands	r0, r3
}
 8005360:	0c00      	lsrs	r0, r0, #16
 8005362:	4770      	bx	lr

08005364 <USB_ReadDevAllInEpInterrupt>:
  tmpreg  = USBx_DEVICE->DAINT;
 8005364:	f8d0 3818 	ldr.w	r3, [r0, #2072]	@ 0x818
 8005368:	f500 6000 	add.w	r0, r0, #2048	@ 0x800
  tmpreg &= USBx_DEVICE->DAINTMSK;
 800536c:	69c0      	ldr	r0, [r0, #28]
 800536e:	4018      	ands	r0, r3
}
 8005370:	b280      	uxth	r0, r0
 8005372:	4770      	bx	lr

08005374 <USB_ReadDevOutEPInterrupt>:
  tmpreg  = USBx_OUTEP((uint32_t)epnum)->DOEPINT;
 8005374:	eb00 1141 	add.w	r1, r0, r1, lsl #5
  tmpreg &= USBx_DEVICE->DOEPMSK;
 8005378:	f500 6000 	add.w	r0, r0, #2048	@ 0x800
  tmpreg  = USBx_OUTEP((uint32_t)epnum)->DOEPINT;
 800537c:	f8d1 2b08 	ldr.w	r2, [r1, #2824]	@ 0xb08
  tmpreg &= USBx_DEVICE->DOEPMSK;
 8005380:	6940      	ldr	r0, [r0, #20]
}
 8005382:	4010      	ands	r0, r2
 8005384:	4770      	bx	lr
 8005386:	bf00      	nop

08005388 <USB_ReadDevInEPInterrupt>:
  msk = USBx_DEVICE->DIEPMSK;
 8005388:	f8d0 2810 	ldr.w	r2, [r0, #2064]	@ 0x810
  emp = USBx_DEVICE->DIEPEMPMSK;
 800538c:	f8d0 3834 	ldr.w	r3, [r0, #2100]	@ 0x834
  tmpreg = USBx_INEP((uint32_t)epnum)->DIEPINT & msk;
 8005390:	eb00 1041 	add.w	r0, r0, r1, lsl #5
  msk |= ((emp >> (epnum & EP_ADDR_MSK)) & 0x1U) << 7;
 8005394:	f001 010f 	and.w	r1, r1, #15
 8005398:	40cb      	lsrs	r3, r1
 800539a:	01db      	lsls	r3, r3, #7
  tmpreg = USBx_INEP((uint32_t)epnum)->DIEPINT & msk;
 800539c:	f8d0 0908 	ldr.w	r0, [r0, #2312]	@ 0x908
  msk |= ((emp >> (epnum & EP_ADDR_MSK)) & 0x1U) << 7;
 80053a0:	b2db      	uxtb	r3, r3
 80053a2:	4313      	orrs	r3, r2
}
 80053a4:	4018      	ands	r0, r3
 80053a6:	4770      	bx	lr

080053a8 <USB_GetMode>:
  return ((USBx->GINTSTS) & 0x1U);
 80053a8:	6940      	ldr	r0, [r0, #20]
}
 80053aa:	f000 0001 	and.w	r0, r0, #1
 80053ae:	4770      	bx	lr

080053b0 <USB_ActivateSetup>:
  USBx_INEP(0U)->DIEPCTL &= ~USB_OTG_DIEPCTL_MPSIZ;
 80053b0:	f8d0 2900 	ldr.w	r2, [r0, #2304]	@ 0x900
{
 80053b4:	4603      	mov	r3, r0
  USBx_INEP(0U)->DIEPCTL &= ~USB_OTG_DIEPCTL_MPSIZ;
 80053b6:	f36f 020a 	bfc	r2, #0, #11
 80053ba:	f8c3 2900 	str.w	r2, [r3, #2304]	@ 0x900
  USBx_DEVICE->DCTL |= USB_OTG_DCTL_CGINAK;
 80053be:	f8d3 3804 	ldr.w	r3, [r3, #2052]	@ 0x804
 80053c2:	f500 6100 	add.w	r1, r0, #2048	@ 0x800
 80053c6:	f443 7380 	orr.w	r3, r3, #256	@ 0x100
}
 80053ca:	2000      	movs	r0, #0
  USBx_DEVICE->DCTL |= USB_OTG_DCTL_CGINAK;
 80053cc:	604b      	str	r3, [r1, #4]
}
 80053ce:	4770      	bx	lr

080053d0 <USB_EP0_OutStart>:
{
 80053d0:	b430      	push	{r4, r5}
  uint32_t gSNPSiD = *(__IO const uint32_t *)(&USBx->CID + 0x1U);
 80053d2:	6c05      	ldr	r5, [r0, #64]	@ 0x40
  if (gSNPSiD > USB_OTG_CORE_ID_300A)
 80053d4:	4c11      	ldr	r4, [pc, #68]	@ (800541c <USB_EP0_OutStart+0x4c>)
 80053d6:	42a5      	cmp	r5, r4
    if ((USBx_OUTEP(0U)->DOEPCTL & USB_OTG_DOEPCTL_EPENA) == USB_OTG_DOEPCTL_EPENA)
 80053d8:	f500 6330 	add.w	r3, r0, #2816	@ 0xb00
  if (gSNPSiD > USB_OTG_CORE_ID_300A)
 80053dc:	d903      	bls.n	80053e6 <USB_EP0_OutStart+0x16>
    if ((USBx_OUTEP(0U)->DOEPCTL & USB_OTG_DOEPCTL_EPENA) == USB_OTG_DOEPCTL_EPENA)
 80053de:	f8d0 4b00 	ldr.w	r4, [r0, #2816]	@ 0xb00
 80053e2:	2c00      	cmp	r4, #0
 80053e4:	db16      	blt.n	8005414 <USB_EP0_OutStart+0x44>
  USBx_OUTEP(0U)->DOEPTSIZ = 0U;
 80053e6:	2400      	movs	r4, #0
 80053e8:	611c      	str	r4, [r3, #16]
  USBx_OUTEP(0U)->DOEPTSIZ |= (USB_OTG_DOEPTSIZ_PKTCNT & (1U << 19));
 80053ea:	691c      	ldr	r4, [r3, #16]
 80053ec:	f444 2400 	orr.w	r4, r4, #524288	@ 0x80000
 80053f0:	611c      	str	r4, [r3, #16]
  USBx_OUTEP(0U)->DOEPTSIZ |= (3U * 8U);
 80053f2:	691c      	ldr	r4, [r3, #16]
 80053f4:	f044 0418 	orr.w	r4, r4, #24
 80053f8:	611c      	str	r4, [r3, #16]
  USBx_OUTEP(0U)->DOEPTSIZ |=  USB_OTG_DOEPTSIZ_STUPCNT;
 80053fa:	691c      	ldr	r4, [r3, #16]
  if (dma == 1U)
 80053fc:	2901      	cmp	r1, #1
  USBx_OUTEP(0U)->DOEPTSIZ |=  USB_OTG_DOEPTSIZ_STUPCNT;
 80053fe:	f044 44c0 	orr.w	r4, r4, #1610612736	@ 0x60000000
 8005402:	611c      	str	r4, [r3, #16]
  if (dma == 1U)
 8005404:	d106      	bne.n	8005414 <USB_EP0_OutStart+0x44>
    USBx_OUTEP(0U)->DOEPDMA = (uint32_t)psetup;
 8005406:	615a      	str	r2, [r3, #20]
    USBx_OUTEP(0U)->DOEPCTL |= USB_OTG_DOEPCTL_EPENA | USB_OTG_DOEPCTL_USBAEP;
 8005408:	f8d0 3b00 	ldr.w	r3, [r0, #2816]	@ 0xb00
 800540c:	f043 2380 	orr.w	r3, r3, #2147516416	@ 0x80008000
 8005410:	f8c0 3b00 	str.w	r3, [r0, #2816]	@ 0xb00
}
 8005414:	2000      	movs	r0, #0
 8005416:	bc30      	pop	{r4, r5}
 8005418:	4770      	bx	lr
 800541a:	bf00      	nop
 800541c:	4f54300a 	.word	0x4f54300a

08005420 <USBD_AUDIO_GetCfgDesc>:
  * @param  length : pointer data length
  * @retval pointer to descriptor buffer
  */
static uint8_t *USBD_AUDIO_GetCfgDesc(uint16_t *length)
{
  *length = (uint16_t)sizeof(USBD_AUDIO_CfgDesc);
 8005420:	236d      	movs	r3, #109	@ 0x6d
 8005422:	8003      	strh	r3, [r0, #0]

  return USBD_AUDIO_CfgDesc;
}
 8005424:	4800      	ldr	r0, [pc, #0]	@ (8005428 <USBD_AUDIO_GetCfgDesc+0x8>)
 8005426:	4770      	bx	lr
 8005428:	20000020 	.word	0x20000020

0800542c <USBD_AUDIO_DataIn>:
  UNUSED(pdev);
  UNUSED(epnum);

  /* Only OUT data are processed */
  return (uint8_t)USBD_OK;
}
 800542c:	2000      	movs	r0, #0
 800542e:	4770      	bx	lr

08005430 <USBD_AUDIO_EP0_RxReady>:
  * @retval status
  */
static uint8_t USBD_AUDIO_EP0_RxReady(USBD_HandleTypeDef *pdev)
{
  USBD_AUDIO_HandleTypeDef *haudio;
  haudio = (USBD_AUDIO_HandleTypeDef *)pdev->pClassDataCmsit[pdev->classId];
 8005430:	f8d0 32d4 	ldr.w	r3, [r0, #724]	@ 0x2d4
 8005434:	eb00 0083 	add.w	r0, r0, r3, lsl #2
{
 8005438:	b510      	push	{r4, lr}
  haudio = (USBD_AUDIO_HandleTypeDef *)pdev->pClassDataCmsit[pdev->classId];
 800543a:	f8d0 42c0 	ldr.w	r4, [r0, #704]	@ 0x2c0

  if (haudio == NULL)
 800543e:	b1bc      	cbz	r4, 8005470 <USBD_AUDIO_EP0_RxReady+0x40>
  {
    return (uint8_t)USBD_FAIL;
  }

  if (haudio->control.cmd == AUDIO_REQ_SET_CUR)
 8005440:	f504 5440 	add.w	r4, r4, #12288	@ 0x3000
 8005444:	f894 3c0a 	ldrb.w	r3, [r4, #3082]	@ 0xc0a
 8005448:	2b01      	cmp	r3, #1
 800544a:	d001      	beq.n	8005450 <USBD_AUDIO_EP0_RxReady+0x20>
      haudio->control.cmd = 0U;
      haudio->control.len = 0U;
    }
  }

  return (uint8_t)USBD_OK;
 800544c:	2000      	movs	r0, #0
}
 800544e:	bd10      	pop	{r4, pc}
    if (haudio->control.unit == AUDIO_OUT_STREAMING_CTRL)
 8005450:	f894 3c4c 	ldrb.w	r3, [r4, #3148]	@ 0xc4c
 8005454:	2b02      	cmp	r3, #2
 8005456:	d1f9      	bne.n	800544c <USBD_AUDIO_EP0_RxReady+0x1c>
      ((USBD_AUDIO_ItfTypeDef *)pdev->pUserData[pdev->classId])->MuteCtl(haudio->control.data[0]);
 8005458:	f8d0 32c4 	ldr.w	r3, [r0, #708]	@ 0x2c4
 800545c:	f894 0c0b 	ldrb.w	r0, [r4, #3083]	@ 0xc0b
 8005460:	691b      	ldr	r3, [r3, #16]
 8005462:	4798      	blx	r3
      haudio->control.cmd = 0U;
 8005464:	2300      	movs	r3, #0
 8005466:	f884 3c0a 	strb.w	r3, [r4, #3082]	@ 0xc0a
      haudio->control.len = 0U;
 800546a:	f884 3c4b 	strb.w	r3, [r4, #3147]	@ 0xc4b
 800546e:	e7ed      	b.n	800544c <USBD_AUDIO_EP0_RxReady+0x1c>
    return (uint8_t)USBD_FAIL;
 8005470:	2003      	movs	r0, #3
}
 8005472:	bd10      	pop	{r4, pc}

08005474 <USBD_AUDIO_EP0_TxReady>:
{
  UNUSED(pdev);

  /* Only OUT control data are processed */
  return (uint8_t)USBD_OK;
}
 8005474:	2000      	movs	r0, #0
 8005476:	4770      	bx	lr

08005478 <USBD_AUDIO_GetDeviceQualifierDesc>:
  * @param  length : pointer data length
  * @retval pointer to descriptor buffer
  */
static uint8_t *USBD_AUDIO_GetDeviceQualifierDesc(uint16_t *length)
{
  *length = (uint16_t)sizeof(USBD_AUDIO_DeviceQualifierDesc);
 8005478:	230a      	movs	r3, #10
 800547a:	8003      	strh	r3, [r0, #0]

  return USBD_AUDIO_DeviceQualifierDesc;
}
 800547c:	4800      	ldr	r0, [pc, #0]	@ (8005480 <USBD_AUDIO_GetDeviceQualifierDesc+0x8>)
 800547e:	4770      	bx	lr
 8005480:	20000014 	.word	0x20000014

08005484 <USBD_AUDIO_IsoOutIncomplete>:
  if (pdev->pClassDataCmsit[pdev->classId] == NULL)
 8005484:	f8d0 22d4 	ldr.w	r2, [r0, #724]	@ 0x2d4
 8005488:	32b0      	adds	r2, #176	@ 0xb0
{
 800548a:	b510      	push	{r4, lr}
  if (pdev->pClassDataCmsit[pdev->classId] == NULL)
 800548c:	f850 4022 	ldr.w	r4, [r0, r2, lsl #2]
 8005490:	b154      	cbz	r4, 80054a8 <USBD_AUDIO_IsoOutIncomplete+0x24>
                               &haudio->buffer[haudio->wr_ptr],
 8005492:	f504 5240 	add.w	r2, r4, #12288	@ 0x3000
  (void)USBD_LL_PrepareReceive(pdev, epnum,
 8005496:	23c0      	movs	r3, #192	@ 0xc0
 8005498:	f8b2 2c08 	ldrh.w	r2, [r2, #3080]	@ 0xc08
 800549c:	3204      	adds	r2, #4
 800549e:	4422      	add	r2, r4
 80054a0:	f001 f956 	bl	8006750 <USBD_LL_PrepareReceive>
  return (uint8_t)USBD_OK;
 80054a4:	2000      	movs	r0, #0
}
 80054a6:	bd10      	pop	{r4, pc}
    return (uint8_t)USBD_FAIL;
 80054a8:	2003      	movs	r0, #3
}
 80054aa:	bd10      	pop	{r4, pc}

080054ac <USBD_AUDIO_DataOut>:
  haudio = (USBD_AUDIO_HandleTypeDef *)pdev->pClassDataCmsit[pdev->classId];
 80054ac:	f8d0 32d4 	ldr.w	r3, [r0, #724]	@ 0x2d4
 80054b0:	33b0      	adds	r3, #176	@ 0xb0
{
 80054b2:	e92d 41f0 	stmdb	sp!, {r4, r5, r6, r7, r8, lr}
  haudio = (USBD_AUDIO_HandleTypeDef *)pdev->pClassDataCmsit[pdev->classId];
 80054b6:	f850 6023 	ldr.w	r6, [r0, r3, lsl #2]
  if (haudio == NULL)
 80054ba:	b3b6      	cbz	r6, 800552a <USBD_AUDIO_DataOut+0x7e>
  if (epnum == AUDIOOutEpAdd)
 80054bc:	2901      	cmp	r1, #1
 80054be:	460d      	mov	r5, r1
 80054c0:	d002      	beq.n	80054c8 <USBD_AUDIO_DataOut+0x1c>
  return (uint8_t)USBD_OK;
 80054c2:	2000      	movs	r0, #0
}
 80054c4:	e8bd 81f0 	ldmia.w	sp!, {r4, r5, r6, r7, r8, pc}
    PacketSize = (uint16_t)USBD_LL_GetRxDataSize(pdev, epnum);
 80054c8:	4604      	mov	r4, r0
 80054ca:	f001 f94d 	bl	8006768 <USBD_LL_GetRxDataSize>
    ((USBD_AUDIO_ItfTypeDef *)pdev->pUserData[pdev->classId])->PeriodicTC(&haudio->buffer[haudio->wr_ptr],
 80054ce:	f8d4 32d4 	ldr.w	r3, [r4, #724]	@ 0x2d4
 80054d2:	f506 5840 	add.w	r8, r6, #12288	@ 0x3000
 80054d6:	eb04 0383 	add.w	r3, r4, r3, lsl #2
    PacketSize = (uint16_t)USBD_LL_GetRxDataSize(pdev, epnum);
 80054da:	4607      	mov	r7, r0
    ((USBD_AUDIO_ItfTypeDef *)pdev->pUserData[pdev->classId])->PeriodicTC(&haudio->buffer[haudio->wr_ptr],
 80054dc:	f8b8 0c08 	ldrh.w	r0, [r8, #3080]	@ 0xc08
 80054e0:	f8d3 32c4 	ldr.w	r3, [r3, #708]	@ 0x2c4
 80054e4:	3004      	adds	r0, #4
 80054e6:	695b      	ldr	r3, [r3, #20]
 80054e8:	462a      	mov	r2, r5
 80054ea:	4430      	add	r0, r6
 80054ec:	b2b9      	uxth	r1, r7
 80054ee:	4798      	blx	r3
    haudio->wr_ptr += PacketSize;
 80054f0:	f8b8 3c08 	ldrh.w	r3, [r8, #3080]	@ 0xc08
 80054f4:	18fa      	adds	r2, r7, r3
 80054f6:	b292      	uxth	r2, r2
    if (haudio->wr_ptr >= AUDIO_TOTAL_BUF_SIZE)
 80054f8:	f5b2 5f70 	cmp.w	r2, #15360	@ 0x3c00
 80054fc:	d218      	bcs.n	8005530 <USBD_AUDIO_DataOut+0x84>
    haudio->wr_ptr += PacketSize;
 80054fe:	f8a8 2c08 	strh.w	r2, [r8, #3080]	@ 0xc08
    if (haudio->rd_enable == 0U)
 8005502:	f898 3c05 	ldrb.w	r3, [r8, #3077]	@ 0xc05
 8005506:	b943      	cbnz	r3, 800551a <USBD_AUDIO_DataOut+0x6e>
      if (haudio->wr_ptr == (AUDIO_TOTAL_BUF_SIZE / 2U))
 8005508:	f5b2 5ff0 	cmp.w	r2, #7680	@ 0x1e00
 800550c:	d105      	bne.n	800551a <USBD_AUDIO_DataOut+0x6e>
        haudio->rd_enable = 1U;
 800550e:	2301      	movs	r3, #1
 8005510:	f888 3c05 	strb.w	r3, [r8, #3077]	@ 0xc05
 8005514:	f641 6204 	movw	r2, #7684	@ 0x1e04
 8005518:	e000      	b.n	800551c <USBD_AUDIO_DataOut+0x70>
 800551a:	3204      	adds	r2, #4
    (void)USBD_LL_PrepareReceive(pdev, AUDIOOutEpAdd,
 800551c:	23c0      	movs	r3, #192	@ 0xc0
 800551e:	4432      	add	r2, r6
 8005520:	2101      	movs	r1, #1
 8005522:	4620      	mov	r0, r4
 8005524:	f001 f914 	bl	8006750 <USBD_LL_PrepareReceive>
 8005528:	e7cb      	b.n	80054c2 <USBD_AUDIO_DataOut+0x16>
    return (uint8_t)USBD_FAIL;
 800552a:	2003      	movs	r0, #3
}
 800552c:	e8bd 81f0 	ldmia.w	sp!, {r4, r5, r6, r7, r8, pc}
      if (haudio->offset == AUDIO_OFFSET_UNKNOWN)
 8005530:	f898 3c04 	ldrb.w	r3, [r8, #3076]	@ 0xc04
      haudio->wr_ptr = 0U;
 8005534:	2700      	movs	r7, #0
      if (haudio->offset == AUDIO_OFFSET_UNKNOWN)
 8005536:	2b03      	cmp	r3, #3
      haudio->wr_ptr = 0U;
 8005538:	f8a8 7c08 	strh.w	r7, [r8, #3080]	@ 0xc08
      if (haudio->offset == AUDIO_OFFSET_UNKNOWN)
 800553c:	d001      	beq.n	8005542 <USBD_AUDIO_DataOut+0x96>
 800553e:	2204      	movs	r2, #4
 8005540:	e7ec      	b.n	800551c <USBD_AUDIO_DataOut+0x70>
        ((USBD_AUDIO_ItfTypeDef *)pdev->pUserData[pdev->classId])->AudioCmd(&haudio->buffer[0],
 8005542:	f8d4 32d4 	ldr.w	r3, [r4, #724]	@ 0x2d4
 8005546:	eb04 0383 	add.w	r3, r4, r3, lsl #2
 800554a:	462a      	mov	r2, r5
 800554c:	f8d3 32c4 	ldr.w	r3, [r3, #708]	@ 0x2c4
 8005550:	f44f 51f0 	mov.w	r1, #7680	@ 0x1e00
 8005554:	689b      	ldr	r3, [r3, #8]
 8005556:	1d30      	adds	r0, r6, #4
 8005558:	4798      	blx	r3
      if (haudio->wr_ptr == (AUDIO_TOTAL_BUF_SIZE / 2U))
 800555a:	f8b8 2c08 	ldrh.w	r2, [r8, #3080]	@ 0xc08
        haudio->offset = AUDIO_OFFSET_NONE;
 800555e:	f888 7c04 	strb.w	r7, [r8, #3076]	@ 0xc04
 8005562:	e7ce      	b.n	8005502 <USBD_AUDIO_DataOut+0x56>

08005564 <USBD_AUDIO_Setup>:
{
 8005564:	b570      	push	{r4, r5, r6, lr}
  haudio = (USBD_AUDIO_HandleTypeDef *)pdev->pClassDataCmsit[pdev->classId];
 8005566:	f8d0 32d4 	ldr.w	r3, [r0, #724]	@ 0x2d4
 800556a:	33b0      	adds	r3, #176	@ 0xb0
{
 800556c:	b082      	sub	sp, #8
 800556e:	460d      	mov	r5, r1
  haudio = (USBD_AUDIO_HandleTypeDef *)pdev->pClassDataCmsit[pdev->classId];
 8005570:	f850 1023 	ldr.w	r1, [r0, r3, lsl #2]
  uint16_t status_info = 0U;
 8005574:	f04f 0c00 	mov.w	ip, #0
 8005578:	f8ad c004 	strh.w	ip, [sp, #4]
  if (haudio == NULL)
 800557c:	b151      	cbz	r1, 8005594 <USBD_AUDIO_Setup+0x30>
  switch (req->bmRequest & USB_REQ_TYPE_MASK)
 800557e:	782b      	ldrb	r3, [r5, #0]
 8005580:	f013 0360 	ands.w	r3, r3, #96	@ 0x60
 8005584:	4604      	mov	r4, r0
 8005586:	d01f      	beq.n	80055c8 <USBD_AUDIO_Setup+0x64>
 8005588:	2b20      	cmp	r3, #32
 800558a:	d006      	beq.n	800559a <USBD_AUDIO_Setup+0x36>
            USBD_CtlError(pdev, req);
 800558c:	4629      	mov	r1, r5
 800558e:	4620      	mov	r0, r4
 8005590:	f000 fdb4 	bl	80060fc <USBD_CtlError>
    return (uint8_t)USBD_FAIL;
 8005594:	2003      	movs	r0, #3
}
 8005596:	b002      	add	sp, #8
 8005598:	bd70      	pop	{r4, r5, r6, pc}
      switch (req->bRequest)
 800559a:	786b      	ldrb	r3, [r5, #1]
 800559c:	2b01      	cmp	r3, #1
 800559e:	d031      	beq.n	8005604 <USBD_AUDIO_Setup+0xa0>
 80055a0:	2b81      	cmp	r3, #129	@ 0x81
 80055a2:	d1f3      	bne.n	800558c <USBD_AUDIO_Setup+0x28>
  (void)USBD_memset(haudio->control.data, 0, USB_MAX_EP0_SIZE);
 80055a4:	f501 5670 	add.w	r6, r1, #15360	@ 0x3c00
 80055a8:	360b      	adds	r6, #11
 80055aa:	2240      	movs	r2, #64	@ 0x40
 80055ac:	4661      	mov	r1, ip
 80055ae:	4630      	mov	r0, r6
 80055b0:	f001 f8e4 	bl	800677c <memset>
                         MIN(req->wLength, USB_MAX_EP0_SIZE));
 80055b4:	88ea      	ldrh	r2, [r5, #6]
  (void)USBD_CtlSendData(pdev, haudio->control.data,
 80055b6:	2a40      	cmp	r2, #64	@ 0x40
 80055b8:	4631      	mov	r1, r6
 80055ba:	bf28      	it	cs
 80055bc:	2240      	movcs	r2, #64	@ 0x40
 80055be:	4620      	mov	r0, r4
 80055c0:	f000 fdd4 	bl	800616c <USBD_CtlSendData>
  USBD_StatusTypeDef ret = USBD_OK;
 80055c4:	2000      	movs	r0, #0
 80055c6:	e7e6      	b.n	8005596 <USBD_AUDIO_Setup+0x32>
      switch (req->bRequest)
 80055c8:	786b      	ldrb	r3, [r5, #1]
 80055ca:	2b0b      	cmp	r3, #11
 80055cc:	d8de      	bhi.n	800558c <USBD_AUDIO_Setup+0x28>
 80055ce:	a201      	add	r2, pc, #4	@ (adr r2, 80055d4 <USBD_AUDIO_Setup+0x70>)
 80055d0:	f852 f023 	ldr.w	pc, [r2, r3, lsl #2]
 80055d4:	080056a3 	.word	0x080056a3
 80055d8:	080055c5 	.word	0x080055c5
 80055dc:	0800558d 	.word	0x0800558d
 80055e0:	0800558d 	.word	0x0800558d
 80055e4:	0800558d 	.word	0x0800558d
 80055e8:	0800558d 	.word	0x0800558d
 80055ec:	08005631 	.word	0x08005631
 80055f0:	0800558d 	.word	0x0800558d
 80055f4:	0800558d 	.word	0x0800558d
 80055f8:	0800558d 	.word	0x0800558d
 80055fc:	0800567d 	.word	0x0800567d
 8005600:	0800568d 	.word	0x0800568d
  if (req->wLength != 0U)
 8005604:	88ea      	ldrh	r2, [r5, #6]
 8005606:	2a00      	cmp	r2, #0
 8005608:	d0dc      	beq.n	80055c4 <USBD_AUDIO_Setup+0x60>
    haudio->control.cmd = AUDIO_REQ_SET_CUR;     /* Set the request value */
 800560a:	f501 5440 	add.w	r4, r1, #12288	@ 0x3000
    haudio->control.len = (uint8_t)MIN(req->wLength, USB_MAX_EP0_SIZE);  /* Set the request data length */
 800560e:	2a40      	cmp	r2, #64	@ 0x40
 8005610:	bf28      	it	cs
 8005612:	2240      	movcs	r2, #64	@ 0x40
    haudio->control.cmd = AUDIO_REQ_SET_CUR;     /* Set the request value */
 8005614:	f884 3c0a 	strb.w	r3, [r4, #3082]	@ 0xc0a
    haudio->control.len = (uint8_t)MIN(req->wLength, USB_MAX_EP0_SIZE);  /* Set the request data length */
 8005618:	f884 2c4b 	strb.w	r2, [r4, #3147]	@ 0xc4b
    haudio->control.unit = HIBYTE(req->wIndex);  /* Set the request target unit */
 800561c:	88ab      	ldrh	r3, [r5, #4]
    (void)USBD_CtlPrepareRx(pdev, haudio->control.data, haudio->control.len);
 800561e:	f501 5170 	add.w	r1, r1, #15360	@ 0x3c00
    haudio->control.unit = HIBYTE(req->wIndex);  /* Set the request target unit */
 8005622:	0a1b      	lsrs	r3, r3, #8
 8005624:	f884 3c4c 	strb.w	r3, [r4, #3148]	@ 0xc4c
    (void)USBD_CtlPrepareRx(pdev, haudio->control.data, haudio->control.len);
 8005628:	310b      	adds	r1, #11
 800562a:	f000 fdb5 	bl	8006198 <USBD_CtlPrepareRx>
 800562e:	e7c9      	b.n	80055c4 <USBD_AUDIO_Setup+0x60>
          if ((req->wValue >> 8) == AUDIO_DESCRIPTOR_TYPE)
 8005630:	886b      	ldrh	r3, [r5, #2]
 8005632:	0a1b      	lsrs	r3, r3, #8
 8005634:	2b21      	cmp	r3, #33	@ 0x21
 8005636:	d1c5      	bne.n	80055c4 <USBD_AUDIO_Setup+0x60>
            pbuf = (uint8_t *)USBD_AUDIO_GetAudioHeaderDesc(pdev->pConfDesc);
 8005638:	f8d0 62d0 	ldr.w	r6, [r0, #720]	@ 0x2d0
  USBD_ConfigDescTypeDef *desc = (USBD_ConfigDescTypeDef *)(void *)pConfDesc;
  USBD_DescHeaderTypeDef *pdesc = (USBD_DescHeaderTypeDef *)(void *)pConfDesc;
  uint8_t *pAudioDesc =  NULL;
  uint16_t ptr;

  if (desc->wTotalLength > desc->bLength)
 800563c:	7833      	ldrb	r3, [r6, #0]
 800563e:	8872      	ldrh	r2, [r6, #2]
 8005640:	429a      	cmp	r2, r3
 8005642:	d9a3      	bls.n	800558c <USBD_AUDIO_Setup+0x28>
  {
    ptr = desc->bLength;
 8005644:	f8ad 3006 	strh.w	r3, [sp, #6]
  USBD_DescHeaderTypeDef *pdesc = (USBD_DescHeaderTypeDef *)(void *)pConfDesc;
 8005648:	4630      	mov	r0, r6
 800564a:	e004      	b.n	8005656 <USBD_AUDIO_Setup+0xf2>

    while (ptr < desc->wTotalLength)
 800564c:	8872      	ldrh	r2, [r6, #2]
 800564e:	f8bd 3006 	ldrh.w	r3, [sp, #6]
 8005652:	429a      	cmp	r2, r3
 8005654:	d99a      	bls.n	800558c <USBD_AUDIO_Setup+0x28>
    {
      pdesc = USBD_GetNextDesc((uint8_t *)pdesc, &ptr);
 8005656:	f10d 0106 	add.w	r1, sp, #6
 800565a:	f000 fa9f 	bl	8005b9c <USBD_GetNextDesc>
      if ((pdesc->bDescriptorType == AUDIO_INTERFACE_DESCRIPTOR_TYPE) &&
 800565e:	7843      	ldrb	r3, [r0, #1]
 8005660:	2b24      	cmp	r3, #36	@ 0x24
 8005662:	d1f3      	bne.n	800564c <USBD_AUDIO_Setup+0xe8>
 8005664:	7883      	ldrb	r3, [r0, #2]
 8005666:	2b01      	cmp	r3, #1
 8005668:	d1f0      	bne.n	800564c <USBD_AUDIO_Setup+0xe8>
              len = MIN(USB_AUDIO_DESC_SIZ, req->wLength);
 800566a:	88ea      	ldrh	r2, [r5, #6]
              (void)USBD_CtlSendData(pdev, pbuf, len);
 800566c:	2a09      	cmp	r2, #9
 800566e:	4601      	mov	r1, r0
 8005670:	bf28      	it	cs
 8005672:	2209      	movcs	r2, #9
 8005674:	4620      	mov	r0, r4
 8005676:	f000 fd79 	bl	800616c <USBD_CtlSendData>
 800567a:	e7a3      	b.n	80055c4 <USBD_AUDIO_Setup+0x60>
          if (pdev->dev_state == USBD_STATE_CONFIGURED)
 800567c:	f890 329c 	ldrb.w	r3, [r0, #668]	@ 0x29c
 8005680:	2b03      	cmp	r3, #3
 8005682:	d183      	bne.n	800558c <USBD_AUDIO_Setup+0x28>
            (void)USBD_CtlSendData(pdev, (uint8_t *)&haudio->alt_setting, 1U);
 8005684:	2201      	movs	r2, #1
 8005686:	f000 fd71 	bl	800616c <USBD_CtlSendData>
 800568a:	e79b      	b.n	80055c4 <USBD_AUDIO_Setup+0x60>
          if (pdev->dev_state == USBD_STATE_CONFIGURED)
 800568c:	f890 329c 	ldrb.w	r3, [r0, #668]	@ 0x29c
 8005690:	2b03      	cmp	r3, #3
 8005692:	f47f af7b 	bne.w	800558c <USBD_AUDIO_Setup+0x28>
            if ((uint8_t)(req->wValue) <= USBD_MAX_NUM_INTERFACES)
 8005696:	78ab      	ldrb	r3, [r5, #2]
 8005698:	2b01      	cmp	r3, #1
 800569a:	f63f af77 	bhi.w	800558c <USBD_AUDIO_Setup+0x28>
              haudio->alt_setting = (uint8_t)(req->wValue);
 800569e:	600b      	str	r3, [r1, #0]
 80056a0:	e790      	b.n	80055c4 <USBD_AUDIO_Setup+0x60>
          if (pdev->dev_state == USBD_STATE_CONFIGURED)
 80056a2:	f890 329c 	ldrb.w	r3, [r0, #668]	@ 0x29c
 80056a6:	2b03      	cmp	r3, #3
 80056a8:	f47f af70 	bne.w	800558c <USBD_AUDIO_Setup+0x28>
            (void)USBD_CtlSendData(pdev, (uint8_t *)&status_info, 2U);
 80056ac:	2202      	movs	r2, #2
 80056ae:	a901      	add	r1, sp, #4
 80056b0:	f000 fd5c 	bl	800616c <USBD_CtlSendData>
 80056b4:	e786      	b.n	80055c4 <USBD_AUDIO_Setup+0x60>
 80056b6:	bf00      	nop

080056b8 <USBD_AUDIO_DeInit>:
{
 80056b8:	b538      	push	{r3, r4, r5, lr}
 80056ba:	4604      	mov	r4, r0
  (void)USBD_LL_CloseEP(pdev, AUDIOOutEpAdd);
 80056bc:	2101      	movs	r1, #1
 80056be:	f000 fff7 	bl	80066b0 <USBD_LL_CloseEP>
  pdev->ep_out[AUDIOOutEpAdd & 0xFU].is_used = 0U;
 80056c2:	f8d4 32d4 	ldr.w	r3, [r4, #724]	@ 0x2d4
 80056c6:	2500      	movs	r5, #0
 80056c8:	eb04 0383 	add.w	r3, r4, r3, lsl #2
 80056cc:	f884 5177 	strb.w	r5, [r4, #375]	@ 0x177
  pdev->ep_out[AUDIOOutEpAdd & 0xFU].bInterval = 0U;
 80056d0:	f8c4 5170 	str.w	r5, [r4, #368]	@ 0x170
  if (pdev->pClassDataCmsit[pdev->classId] != NULL)
 80056d4:	f8d3 22c0 	ldr.w	r2, [r3, #704]	@ 0x2c0
 80056d8:	b192      	cbz	r2, 8005700 <USBD_AUDIO_DeInit+0x48>
    ((USBD_AUDIO_ItfTypeDef *)pdev->pUserData[pdev->classId])->DeInit(0U);
 80056da:	f8d3 32c4 	ldr.w	r3, [r3, #708]	@ 0x2c4
 80056de:	4628      	mov	r0, r5
 80056e0:	685b      	ldr	r3, [r3, #4]
 80056e2:	4798      	blx	r3
    (void)USBD_free(pdev->pClassDataCmsit[pdev->classId]);
 80056e4:	f8d4 32d4 	ldr.w	r3, [r4, #724]	@ 0x2d4
 80056e8:	33b0      	adds	r3, #176	@ 0xb0
 80056ea:	f854 0023 	ldr.w	r0, [r4, r3, lsl #2]
 80056ee:	f001 f843 	bl	8006778 <USBD_static_free>
    pdev->pClassDataCmsit[pdev->classId] = NULL;
 80056f2:	f8d4 32d4 	ldr.w	r3, [r4, #724]	@ 0x2d4
 80056f6:	33b0      	adds	r3, #176	@ 0xb0
 80056f8:	f844 5023 	str.w	r5, [r4, r3, lsl #2]
    pdev->pClassData = NULL;
 80056fc:	f8c4 52bc 	str.w	r5, [r4, #700]	@ 0x2bc
}
 8005700:	2000      	movs	r0, #0
 8005702:	bd38      	pop	{r3, r4, r5, pc}

08005704 <USBD_AUDIO_Init>:
{
 8005704:	e92d 41f0 	stmdb	sp!, {r4, r5, r6, r7, r8, lr}
 8005708:	4604      	mov	r4, r0
  haudio = (USBD_AUDIO_HandleTypeDef *)USBD_malloc(sizeof(USBD_AUDIO_HandleTypeDef));
 800570a:	f643 4050 	movw	r0, #15440	@ 0x3c50
 800570e:	f001 f82f 	bl	8006770 <USBD_static_malloc>
    pdev->pClassDataCmsit[pdev->classId] = NULL;
 8005712:	f8d4 32d4 	ldr.w	r3, [r4, #724]	@ 0x2d4
  if (haudio == NULL)
 8005716:	4605      	mov	r5, r0
 8005718:	b398      	cbz	r0, 8005782 <USBD_AUDIO_Init+0x7e>
  pdev->pClassDataCmsit[pdev->classId] = (void *)haudio;
 800571a:	f103 02b0 	add.w	r2, r3, #176	@ 0xb0
 800571e:	2701      	movs	r7, #1
 8005720:	f844 0022 	str.w	r0, [r4, r2, lsl #2]
  (void)USBD_LL_OpenEP(pdev, AUDIOOutEpAdd, USBD_EP_TYPE_ISOC, AUDIO_OUT_PACKET);
 8005724:	23c0      	movs	r3, #192	@ 0xc0
  pdev->pClassData = pdev->pClassDataCmsit[pdev->classId];
 8005726:	f8c4 02bc 	str.w	r0, [r4, #700]	@ 0x2bc
  (void)USBD_LL_OpenEP(pdev, AUDIOOutEpAdd, USBD_EP_TYPE_ISOC, AUDIO_OUT_PACKET);
 800572a:	463a      	mov	r2, r7
 800572c:	4639      	mov	r1, r7
 800572e:	f8c4 7170 	str.w	r7, [r4, #368]	@ 0x170
 8005732:	4620      	mov	r0, r4
 8005734:	f000 ffae 	bl	8006694 <USBD_LL_OpenEP>
  haudio->rd_ptr = 0U;
 8005738:	f505 5340 	add.w	r3, r5, #12288	@ 0x3000
  haudio->alt_setting = 0U;
 800573c:	2200      	movs	r2, #0
  haudio->offset = AUDIO_OFFSET_UNKNOWN;
 800573e:	f04f 0803 	mov.w	r8, #3
  pdev->ep_out[AUDIOOutEpAdd & 0xFU].is_used = 1U;
 8005742:	f884 7177 	strb.w	r7, [r4, #375]	@ 0x177
  haudio->alt_setting = 0U;
 8005746:	602a      	str	r2, [r5, #0]
  haudio->offset = AUDIO_OFFSET_UNKNOWN;
 8005748:	f8a3 8c04 	strh.w	r8, [r3, #3076]	@ 0xc04
  haudio->rd_ptr = 0U;
 800574c:	f8c3 2c06 	str.w	r2, [r3, #3078]	@ 0xc06
  if (((USBD_AUDIO_ItfTypeDef *)pdev->pUserData[pdev->classId])->Init(USBD_AUDIO_FREQ,
 8005750:	f8d4 32d4 	ldr.w	r3, [r4, #724]	@ 0x2d4
 8005754:	eb04 0383 	add.w	r3, r4, r3, lsl #2
 8005758:	2146      	movs	r1, #70	@ 0x46
 800575a:	f8d3 32c4 	ldr.w	r3, [r3, #708]	@ 0x2c4
 800575e:	f64b 3080 	movw	r0, #48000	@ 0xbb80
 8005762:	681b      	ldr	r3, [r3, #0]
 8005764:	4798      	blx	r3
 8005766:	4606      	mov	r6, r0
 8005768:	b940      	cbnz	r0, 800577c <USBD_AUDIO_Init+0x78>
  (void)USBD_LL_PrepareReceive(pdev, AUDIOOutEpAdd, haudio->buffer,
 800576a:	23c0      	movs	r3, #192	@ 0xc0
 800576c:	1d2a      	adds	r2, r5, #4
 800576e:	4639      	mov	r1, r7
 8005770:	4620      	mov	r0, r4
 8005772:	f000 ffed 	bl	8006750 <USBD_LL_PrepareReceive>
  return (uint8_t)USBD_OK;
 8005776:	4630      	mov	r0, r6
}
 8005778:	e8bd 81f0 	ldmia.w	sp!, {r4, r5, r6, r7, r8, pc}
    return (uint8_t)USBD_FAIL;
 800577c:	4640      	mov	r0, r8
}
 800577e:	e8bd 81f0 	ldmia.w	sp!, {r4, r5, r6, r7, r8, pc}
    pdev->pClassDataCmsit[pdev->classId] = NULL;
 8005782:	33b0      	adds	r3, #176	@ 0xb0
    return (uint8_t)USBD_EMEM;
 8005784:	2002      	movs	r0, #2
    pdev->pClassDataCmsit[pdev->classId] = NULL;
 8005786:	f844 5023 	str.w	r5, [r4, r3, lsl #2]
}
 800578a:	e8bd 81f0 	ldmia.w	sp!, {r4, r5, r6, r7, r8, pc}
 800578e:	bf00      	nop

08005790 <USBD_AUDIO_SOF>:
static uint8_t USBD_AUDIO_SOF(USBD_HandleTypeDef *pdev)
 8005790:	2000      	movs	r0, #0
 8005792:	4770      	bx	lr

08005794 <USBD_AUDIO_IsoINIncomplete>:
static uint8_t USBD_AUDIO_IsoINIncomplete(USBD_HandleTypeDef *pdev, uint8_t epnum)
 8005794:	2000      	movs	r0, #0
 8005796:	4770      	bx	lr

08005798 <USBD_AUDIO_Sync>:
{
 8005798:	b538      	push	{r3, r4, r5, lr}
 800579a:	f8d0 32d4 	ldr.w	r3, [r0, #724]	@ 0x2d4
 800579e:	eb00 0083 	add.w	r0, r0, r3, lsl #2
  if (pdev->pClassDataCmsit[pdev->classId] == NULL)
 80057a2:	f8d0 42c0 	ldr.w	r4, [r0, #704]	@ 0x2c0
 80057a6:	b1d4      	cbz	r4, 80057de <USBD_AUDIO_Sync+0x46>
  haudio->offset = offset;
 80057a8:	f504 5540 	add.w	r5, r4, #12288	@ 0x3000
 80057ac:	460a      	mov	r2, r1
  if (haudio->rd_enable == 1U)
 80057ae:	f895 cc05 	ldrb.w	ip, [r5, #3077]	@ 0xc05
  haudio->offset = offset;
 80057b2:	f885 1c04 	strb.w	r1, [r5, #3076]	@ 0xc04
  if (haudio->rd_enable == 1U)
 80057b6:	f1bc 0f01 	cmp.w	ip, #1
    haudio->rd_ptr += (uint16_t)BufferSize;
 80057ba:	f8b5 3c06 	ldrh.w	r3, [r5, #3078]	@ 0xc06
  if (haudio->rd_ptr > haudio->wr_ptr)
 80057be:	f8b5 1c08 	ldrh.w	r1, [r5, #3080]	@ 0xc08
  if (haudio->rd_enable == 1U)
 80057c2:	d00d      	beq.n	80057e0 <USBD_AUDIO_Sync+0x48>
  if (haudio->rd_ptr > haudio->wr_ptr)
 80057c4:	428b      	cmp	r3, r1
    if ((haudio->rd_ptr - haudio->wr_ptr) < AUDIO_OUT_PACKET)
 80057c6:	469c      	mov	ip, r3
  if (haudio->rd_ptr > haudio->wr_ptr)
 80057c8:	d914      	bls.n	80057f4 <USBD_AUDIO_Sync+0x5c>
    if ((haudio->rd_ptr - haudio->wr_ptr) < AUDIO_OUT_PACKET)
 80057ca:	1a5b      	subs	r3, r3, r1
 80057cc:	2bbf      	cmp	r3, #191	@ 0xbf
 80057ce:	dd18      	ble.n	8005802 <USBD_AUDIO_Sync+0x6a>
      if ((haudio->rd_ptr - haudio->wr_ptr) > (AUDIO_TOTAL_BUF_SIZE - AUDIO_OUT_PACKET))
 80057d0:	f5b3 5f6d 	cmp.w	r3, #15168	@ 0x3b40
 80057d4:	dd22      	ble.n	800581c <USBD_AUDIO_Sync+0x84>
  if (haudio->offset == AUDIO_OFFSET_FULL)
 80057d6:	2a02      	cmp	r2, #2
      BufferSize -= 4U;
 80057d8:	f641 51fc 	movw	r1, #7676	@ 0x1dfc
  if (haudio->offset == AUDIO_OFFSET_FULL)
 80057dc:	d015      	beq.n	800580a <USBD_AUDIO_Sync+0x72>
}
 80057de:	bd38      	pop	{r3, r4, r5, pc}
    haudio->rd_ptr += (uint16_t)BufferSize;
 80057e0:	f503 53f0 	add.w	r3, r3, #7680	@ 0x1e00
 80057e4:	b29b      	uxth	r3, r3
    if (haudio->rd_ptr == AUDIO_TOTAL_BUF_SIZE)
 80057e6:	f5b3 5f70 	cmp.w	r3, #15360	@ 0x3c00
 80057ea:	d11a      	bne.n	8005822 <USBD_AUDIO_Sync+0x8a>
      haudio->rd_ptr = 0U;
 80057ec:	f04f 0c00 	mov.w	ip, #0
 80057f0:	f8a5 cc06 	strh.w	ip, [r5, #3078]	@ 0xc06
    if ((haudio->wr_ptr - haudio->rd_ptr) < AUDIO_OUT_PACKET)
 80057f4:	eba1 010c 	sub.w	r1, r1, ip
 80057f8:	29bf      	cmp	r1, #191	@ 0xbf
 80057fa:	ddec      	ble.n	80057d6 <USBD_AUDIO_Sync+0x3e>
      if ((haudio->wr_ptr - haudio->rd_ptr) > (AUDIO_TOTAL_BUF_SIZE - AUDIO_OUT_PACKET))
 80057fc:	f5b1 5f6d 	cmp.w	r1, #15168	@ 0x3b40
 8005800:	dd0c      	ble.n	800581c <USBD_AUDIO_Sync+0x84>
        BufferSize += 4U;
 8005802:	f641 6104 	movw	r1, #7684	@ 0x1e04
  if (haudio->offset == AUDIO_OFFSET_FULL)
 8005806:	2a02      	cmp	r2, #2
 8005808:	d1e9      	bne.n	80057de <USBD_AUDIO_Sync+0x46>
    ((USBD_AUDIO_ItfTypeDef *)pdev->pUserData[pdev->classId])->AudioCmd(&haudio->buffer[0],
 800580a:	f8d0 32c4 	ldr.w	r3, [r0, #708]	@ 0x2c4
 800580e:	1d20      	adds	r0, r4, #4
 8005810:	689b      	ldr	r3, [r3, #8]
 8005812:	4798      	blx	r3
    haudio->offset = AUDIO_OFFSET_NONE;
 8005814:	2300      	movs	r3, #0
 8005816:	f885 3c04 	strb.w	r3, [r5, #3076]	@ 0xc04
}
 800581a:	bd38      	pop	{r3, r4, r5, pc}
  uint32_t BufferSize = AUDIO_TOTAL_BUF_SIZE / 2U;
 800581c:	f44f 51f0 	mov.w	r1, #7680	@ 0x1e00
 8005820:	e7f1      	b.n	8005806 <USBD_AUDIO_Sync+0x6e>
    haudio->rd_ptr += (uint16_t)BufferSize;
 8005822:	f8a5 3c06 	strh.w	r3, [r5, #3078]	@ 0xc06
 8005826:	e7cd      	b.n	80057c4 <USBD_AUDIO_Sync+0x2c>

08005828 <USBD_AUDIO_RegisterInterface>:
{
 8005828:	4603      	mov	r3, r0
  if (fops == NULL)
 800582a:	b139      	cbz	r1, 800583c <USBD_AUDIO_RegisterInterface+0x14>
  pdev->pUserData[pdev->classId] = fops;
 800582c:	f8d0 22d4 	ldr.w	r2, [r0, #724]	@ 0x2d4
 8005830:	eb03 0382 	add.w	r3, r3, r2, lsl #2
  return (uint8_t)USBD_OK;
 8005834:	2000      	movs	r0, #0
  pdev->pUserData[pdev->classId] = fops;
 8005836:	f8c3 12c4 	str.w	r1, [r3, #708]	@ 0x2c4
  return (uint8_t)USBD_OK;
 800583a:	4770      	bx	lr
    return (uint8_t)USBD_FAIL;
 800583c:	2003      	movs	r0, #3
}
 800583e:	4770      	bx	lr

08005840 <USBD_Init>:
                             USBD_DescriptorsTypeDef *pdesc, uint8_t id)
{
  USBD_StatusTypeDef ret;

  /* Check whether the USB Host handle is valid */
  if (pdev == NULL)
 8005840:	b178      	cbz	r0, 8005862 <USBD_Init+0x22>
    pdev->NumClasses = 0;
    pdev->classId = 0;
  }
#else
  /* Unlink previous class*/
  pdev->pClass[0] = NULL;
 8005842:	2300      	movs	r3, #0
 8005844:	f8c0 32b8 	str.w	r3, [r0, #696]	@ 0x2b8
  pdev->pUserData[0] = NULL;
 8005848:	f8c0 32c4 	str.w	r3, [r0, #708]	@ 0x2c4
#endif /* USE_USBD_COMPOSITE */

  pdev->pConfDesc = NULL;
 800584c:	f8c0 32d0 	str.w	r3, [r0, #720]	@ 0x2d0

  /* Assign USBD Descriptors */
  if (pdesc != NULL)
 8005850:	b109      	cbz	r1, 8005856 <USBD_Init+0x16>
  {
    pdev->pDesc = pdesc;
 8005852:	f8c0 12b4 	str.w	r1, [r0, #692]	@ 0x2b4
  }

  /* Set Device initial State */
  pdev->dev_state = USBD_STATE_DEFAULT;
 8005856:	2301      	movs	r3, #1
 8005858:	f880 329c 	strb.w	r3, [r0, #668]	@ 0x29c
  pdev->id = id;
 800585c:	7002      	strb	r2, [r0, #0]

  /* Initialize low level driver */
  ret = USBD_LL_Init(pdev);
 800585e:	f000 bedb 	b.w	8006618 <USBD_LL_Init>

  return ret;
}
 8005862:	2003      	movs	r0, #3
 8005864:	4770      	bx	lr
 8005866:	bf00      	nop

08005868 <USBD_RegisterClass>:
  * @param  pdev: Device Handle
  * @param  pclass: Class handle
  * @retval USBD Status
  */
USBD_StatusTypeDef USBD_RegisterClass(USBD_HandleTypeDef *pdev, USBD_ClassTypeDef *pclass)
{
 8005868:	b510      	push	{r4, lr}
 800586a:	b082      	sub	sp, #8
  uint16_t len = 0U;
 800586c:	2300      	movs	r3, #0
 800586e:	f8ad 3006 	strh.w	r3, [sp, #6]

  if (pclass == NULL)
 8005872:	b189      	cbz	r1, 8005898 <USBD_RegisterClass+0x30>
  if (pdev->pClass[pdev->classId]->GetHSConfigDescriptor != NULL)
  {
    pdev->pConfDesc = (void *)pdev->pClass[pdev->classId]->GetHSConfigDescriptor(&len);
  }
#else /* Default USE_USB_FS */
  if (pdev->pClass[pdev->classId]->GetFSConfigDescriptor != NULL)
 8005874:	6acb      	ldr	r3, [r1, #44]	@ 0x2c
  pdev->pClass[0] = pclass;
 8005876:	f8c0 12b8 	str.w	r1, [r0, #696]	@ 0x2b8
  if (pdev->pClass[pdev->classId]->GetFSConfigDescriptor != NULL)
 800587a:	4604      	mov	r4, r0
 800587c:	b123      	cbz	r3, 8005888 <USBD_RegisterClass+0x20>
  {
    pdev->pConfDesc = (void *)pdev->pClass[pdev->classId]->GetFSConfigDescriptor(&len);
 800587e:	f10d 0006 	add.w	r0, sp, #6
 8005882:	4798      	blx	r3
 8005884:	f8c4 02d0 	str.w	r0, [r4, #720]	@ 0x2d0
  }
#endif /* USE_USB_FS */

  /* Increment the NumClasses */
  pdev->NumClasses++;
 8005888:	f8d4 32d8 	ldr.w	r3, [r4, #728]	@ 0x2d8

  return USBD_OK;
 800588c:	2000      	movs	r0, #0
  pdev->NumClasses++;
 800588e:	3301      	adds	r3, #1
 8005890:	f8c4 32d8 	str.w	r3, [r4, #728]	@ 0x2d8
}
 8005894:	b002      	add	sp, #8
 8005896:	bd10      	pop	{r4, pc}
    return USBD_FAIL;
 8005898:	2003      	movs	r0, #3
}
 800589a:	b002      	add	sp, #8
 800589c:	bd10      	pop	{r4, pc}
 800589e:	bf00      	nop

080058a0 <USBD_Start>:
#ifdef USE_USBD_COMPOSITE
  pdev->classId = 0U;
#endif /* USE_USBD_COMPOSITE */

  /* Start the low level driver  */
  return USBD_LL_Start(pdev);
 80058a0:	f000 beec 	b.w	800667c <USBD_LL_Start>

080058a4 <USBD_SetClassConfig>:
        }
      }
    }
  }
#else
  if (pdev->pClass[0] != NULL)
 80058a4:	f8d0 32b8 	ldr.w	r3, [r0, #696]	@ 0x2b8
 80058a8:	b10b      	cbz	r3, 80058ae <USBD_SetClassConfig+0xa>
  {
    /* Set configuration and Start the Class */
    ret = (USBD_StatusTypeDef)pdev->pClass[0]->Init(pdev, cfgidx);
 80058aa:	681b      	ldr	r3, [r3, #0]
 80058ac:	4718      	bx	r3
  }
#endif /* USE_USBD_COMPOSITE */

  return ret;
}
 80058ae:	4618      	mov	r0, r3
 80058b0:	4770      	bx	lr
 80058b2:	bf00      	nop

080058b4 <USBD_ClrClassConfig>:
  * @param  pdev: device instance
  * @param  cfgidx: configuration index
  * @retval status
  */
USBD_StatusTypeDef USBD_ClrClassConfig(USBD_HandleTypeDef *pdev, uint8_t cfgidx)
{
 80058b4:	b508      	push	{r3, lr}
      }
    }
  }
#else
  /* Clear configuration  and De-initialize the Class process */
  if (pdev->pClass[0]->DeInit(pdev, cfgidx) != 0U)
 80058b6:	f8d0 32b8 	ldr.w	r3, [r0, #696]	@ 0x2b8
 80058ba:	685b      	ldr	r3, [r3, #4]
 80058bc:	4798      	blx	r3
  {
    ret = USBD_FAIL;
 80058be:	2800      	cmp	r0, #0
  }
#endif /* USE_USBD_COMPOSITE */

  return ret;
}
 80058c0:	bf18      	it	ne
 80058c2:	2003      	movne	r0, #3
 80058c4:	bd08      	pop	{r3, pc}
 80058c6:	bf00      	nop

080058c8 <USBD_LL_SetupStage>:
  * @param  pdev: device instance
  * @param  psetup: setup packet buffer pointer
  * @retval status
  */
USBD_StatusTypeDef USBD_LL_SetupStage(USBD_HandleTypeDef *pdev, uint8_t *psetup)
{
 80058c8:	b538      	push	{r3, r4, r5, lr}
 80058ca:	4604      	mov	r4, r0
  USBD_StatusTypeDef ret;

  USBD_ParseSetupRequest(&pdev->request, psetup);
 80058cc:	f200 25aa 	addw	r5, r0, #682	@ 0x2aa
 80058d0:	4628      	mov	r0, r5
 80058d2:	f000 fc07 	bl	80060e4 <USBD_ParseSetupRequest>

  pdev->ep0_state = USBD_EP0_SETUP;

  pdev->ep0_data_len = pdev->request.wLength;

  switch (pdev->request.bmRequest & 0x1FU)
 80058d6:	f894 12aa 	ldrb.w	r1, [r4, #682]	@ 0x2aa
  pdev->ep0_data_len = pdev->request.wLength;
 80058da:	f8b4 22b0 	ldrh.w	r2, [r4, #688]	@ 0x2b0
 80058de:	f8c4 2298 	str.w	r2, [r4, #664]	@ 0x298
  pdev->ep0_state = USBD_EP0_SETUP;
 80058e2:	2301      	movs	r3, #1
 80058e4:	f8c4 3294 	str.w	r3, [r4, #660]	@ 0x294
  switch (pdev->request.bmRequest & 0x1FU)
 80058e8:	f001 031f 	and.w	r3, r1, #31
 80058ec:	2b01      	cmp	r3, #1
 80058ee:	d00e      	beq.n	800590e <USBD_LL_SetupStage+0x46>
 80058f0:	2b02      	cmp	r3, #2
 80058f2:	d006      	beq.n	8005902 <USBD_LL_SetupStage+0x3a>
 80058f4:	b98b      	cbnz	r3, 800591a <USBD_LL_SetupStage+0x52>
  {
    case USB_REQ_RECIPIENT_DEVICE:
      ret = USBD_StdDevReq(pdev, &pdev->request);
 80058f6:	4629      	mov	r1, r5
 80058f8:	4620      	mov	r0, r4
      ret = USBD_LL_StallEP(pdev, (pdev->request.bmRequest & 0x80U));
      break;
  }

  return ret;
}
 80058fa:	e8bd 4038 	ldmia.w	sp!, {r3, r4, r5, lr}
      ret = USBD_StdDevReq(pdev, &pdev->request);
 80058fe:	f000 b953 	b.w	8005ba8 <USBD_StdDevReq>
      ret = USBD_StdEPReq(pdev, &pdev->request);
 8005902:	4629      	mov	r1, r5
 8005904:	4620      	mov	r0, r4
}
 8005906:	e8bd 4038 	ldmia.w	sp!, {r3, r4, r5, lr}
      ret = USBD_StdEPReq(pdev, &pdev->request);
 800590a:	f000 bb39 	b.w	8005f80 <USBD_StdEPReq>
      ret = USBD_StdItfReq(pdev, &pdev->request);
 800590e:	4629      	mov	r1, r5
 8005910:	4620      	mov	r0, r4
}
 8005912:	e8bd 4038 	ldmia.w	sp!, {r3, r4, r5, lr}
      ret = USBD_StdItfReq(pdev, &pdev->request);
 8005916:	f000 baf3 	b.w	8005f00 <USBD_StdItfReq>
      ret = USBD_LL_StallEP(pdev, (pdev->request.bmRequest & 0x80U));
 800591a:	4620      	mov	r0, r4
 800591c:	f001 0180 	and.w	r1, r1, #128	@ 0x80
}
 8005920:	e8bd 4038 	ldmia.w	sp!, {r3, r4, r5, lr}
      ret = USBD_LL_StallEP(pdev, (pdev->request.bmRequest & 0x80U));
 8005924:	f000 bed0 	b.w	80066c8 <USBD_LL_StallEP>

08005928 <USBD_LL_DataOutStage>:
  * @param  pdata: data pointer
  * @retval status
  */
USBD_StatusTypeDef USBD_LL_DataOutStage(USBD_HandleTypeDef *pdev,
                                        uint8_t epnum, uint8_t *pdata)
{
 8005928:	b510      	push	{r4, lr}
 800592a:	4604      	mov	r4, r0
  USBD_StatusTypeDef ret = USBD_OK;
  uint8_t idx;

  UNUSED(pdata);

  if (epnum == 0U)
 800592c:	b929      	cbnz	r1, 800593a <USBD_LL_DataOutStage+0x12>
  {
    pep = &pdev->ep_out[0];

    if (pdev->ep0_state == USBD_EP0_DATA_OUT)
 800592e:	f8d0 2294 	ldr.w	r2, [r0, #660]	@ 0x294
 8005932:	2a03      	cmp	r2, #3
 8005934:	d010      	beq.n	8005958 <USBD_LL_DataOutStage+0x30>
      }
    }
  }

  return USBD_OK;
}
 8005936:	2000      	movs	r0, #0
 8005938:	bd10      	pop	{r4, pc}
      if (pdev->dev_state == USBD_STATE_CONFIGURED)
 800593a:	f890 329c 	ldrb.w	r3, [r0, #668]	@ 0x29c
 800593e:	2b03      	cmp	r3, #3
 8005940:	d1f9      	bne.n	8005936 <USBD_LL_DataOutStage+0xe>
        if (pdev->pClass[idx]->DataOut != NULL)
 8005942:	f8d0 32b8 	ldr.w	r3, [r0, #696]	@ 0x2b8
 8005946:	699b      	ldr	r3, [r3, #24]
 8005948:	2b00      	cmp	r3, #0
 800594a:	d0f4      	beq.n	8005936 <USBD_LL_DataOutStage+0xe>
          pdev->classId = idx;
 800594c:	2200      	movs	r2, #0
}
 800594e:	e8bd 4010 	ldmia.w	sp!, {r4, lr}
          pdev->classId = idx;
 8005952:	f8c0 22d4 	str.w	r2, [r0, #724]	@ 0x2d4
          ret = (USBD_StatusTypeDef)pdev->pClass[idx]->DataOut(pdev, epnum);
 8005956:	4718      	bx	r3
      if (pep->rem_length > pep->maxpacket)
 8005958:	f8b0 2160 	ldrh.w	r2, [r0, #352]	@ 0x160
 800595c:	460b      	mov	r3, r1
 800595e:	f8d0 1158 	ldr.w	r1, [r0, #344]	@ 0x158
 8005962:	4291      	cmp	r1, r2
 8005964:	d808      	bhi.n	8005978 <USBD_LL_DataOutStage+0x50>
          if (pdev->dev_state == USBD_STATE_CONFIGURED)
 8005966:	f890 229c 	ldrb.w	r2, [r0, #668]	@ 0x29c
 800596a:	2a03      	cmp	r2, #3
 800596c:	d012      	beq.n	8005994 <USBD_LL_DataOutStage+0x6c>
        (void)USBD_CtlSendStatus(pdev);
 800596e:	4620      	mov	r0, r4
 8005970:	f000 fc2a 	bl	80061c8 <USBD_CtlSendStatus>
}
 8005974:	2000      	movs	r0, #0
 8005976:	bd10      	pop	{r4, pc}
        pep->rem_length -= pep->maxpacket;
 8005978:	1a8b      	subs	r3, r1, r2
        pep->pbuffer += pep->maxpacket;
 800597a:	f8d0 1164 	ldr.w	r1, [r0, #356]	@ 0x164
        pep->rem_length -= pep->maxpacket;
 800597e:	f8c0 3158 	str.w	r3, [r0, #344]	@ 0x158
        pep->pbuffer += pep->maxpacket;
 8005982:	4411      	add	r1, r2
        (void)USBD_CtlContinueRx(pdev, pep->pbuffer, MAX(pep->rem_length, pep->maxpacket));
 8005984:	429a      	cmp	r2, r3
        pep->pbuffer += pep->maxpacket;
 8005986:	f8c0 1164 	str.w	r1, [r0, #356]	@ 0x164
        (void)USBD_CtlContinueRx(pdev, pep->pbuffer, MAX(pep->rem_length, pep->maxpacket));
 800598a:	bf38      	it	cc
 800598c:	461a      	movcc	r2, r3
 800598e:	f000 fc13 	bl	80061b8 <USBD_CtlContinueRx>
 8005992:	e7d0      	b.n	8005936 <USBD_LL_DataOutStage+0xe>
            if (pdev->pClass[idx]->EP0_RxReady != NULL)
 8005994:	f8d0 22b8 	ldr.w	r2, [r0, #696]	@ 0x2b8
 8005998:	6912      	ldr	r2, [r2, #16]
 800599a:	2a00      	cmp	r2, #0
 800599c:	d0e7      	beq.n	800596e <USBD_LL_DataOutStage+0x46>
              pdev->classId = idx;
 800599e:	f8c0 32d4 	str.w	r3, [r0, #724]	@ 0x2d4
              pdev->pClass[idx]->EP0_RxReady(pdev);
 80059a2:	4790      	blx	r2
 80059a4:	e7e3      	b.n	800596e <USBD_LL_DataOutStage+0x46>
 80059a6:	bf00      	nop

080059a8 <USBD_LL_DataInStage>:
  * @param  pdata: data pointer
  * @retval status
  */
USBD_StatusTypeDef USBD_LL_DataInStage(USBD_HandleTypeDef *pdev,
                                       uint8_t epnum, uint8_t *pdata)
{
 80059a8:	b570      	push	{r4, r5, r6, lr}
 80059aa:	4604      	mov	r4, r0
  USBD_StatusTypeDef ret;
  uint8_t idx;

  UNUSED(pdata);

  if (epnum == 0U)
 80059ac:	b959      	cbnz	r1, 80059c6 <USBD_LL_DataInStage+0x1e>
  {
    pep = &pdev->ep_in[0];

    if (pdev->ep0_state == USBD_EP0_DATA_IN)
 80059ae:	f8d0 3294 	ldr.w	r3, [r0, #660]	@ 0x294
 80059b2:	2b02      	cmp	r3, #2
 80059b4:	d016      	beq.n	80059e4 <USBD_LL_DataInStage+0x3c>
          (void)USBD_CtlReceiveStatus(pdev);
        }
      }
    }

    if (pdev->dev_test_mode != 0U)
 80059b6:	f894 32a0 	ldrb.w	r3, [r4, #672]	@ 0x2a0
 80059ba:	b113      	cbz	r3, 80059c2 <USBD_LL_DataInStage+0x1a>
    {
      (void)USBD_RunTestMode(pdev);
      pdev->dev_test_mode = 0U;
 80059bc:	2300      	movs	r3, #0
 80059be:	f884 32a0 	strb.w	r3, [r4, #672]	@ 0x2a0
      }
    }
  }

  return USBD_OK;
}
 80059c2:	2000      	movs	r0, #0
 80059c4:	bd70      	pop	{r4, r5, r6, pc}
      if (pdev->dev_state == USBD_STATE_CONFIGURED)
 80059c6:	f890 329c 	ldrb.w	r3, [r0, #668]	@ 0x29c
 80059ca:	2b03      	cmp	r3, #3
 80059cc:	d1f9      	bne.n	80059c2 <USBD_LL_DataInStage+0x1a>
        if (pdev->pClass[idx]->DataIn != NULL)
 80059ce:	f8d0 32b8 	ldr.w	r3, [r0, #696]	@ 0x2b8
 80059d2:	695b      	ldr	r3, [r3, #20]
 80059d4:	2b00      	cmp	r3, #0
 80059d6:	d0f4      	beq.n	80059c2 <USBD_LL_DataInStage+0x1a>
          pdev->classId = idx;
 80059d8:	2200      	movs	r2, #0
}
 80059da:	e8bd 4070 	ldmia.w	sp!, {r4, r5, r6, lr}
          pdev->classId = idx;
 80059de:	f8c0 22d4 	str.w	r2, [r0, #724]	@ 0x2d4
          ret = (USBD_StatusTypeDef)pdev->pClass[idx]->DataIn(pdev, epnum);
 80059e2:	4718      	bx	r3
      if (pep->rem_length > pep->maxpacket)
 80059e4:	6982      	ldr	r2, [r0, #24]
 80059e6:	8c03      	ldrh	r3, [r0, #32]
 80059e8:	429a      	cmp	r2, r3
 80059ea:	460d      	mov	r5, r1
 80059ec:	d810      	bhi.n	8005a10 <USBD_LL_DataInStage+0x68>
        if ((pep->maxpacket == pep->rem_length) &&
 80059ee:	d01d      	beq.n	8005a2c <USBD_LL_DataInStage+0x84>
          if (pdev->dev_state == USBD_STATE_CONFIGURED)
 80059f0:	f894 329c 	ldrb.w	r3, [r4, #668]	@ 0x29c
 80059f4:	2b03      	cmp	r3, #3
 80059f6:	d026      	beq.n	8005a46 <USBD_LL_DataInStage+0x9e>
          (void)USBD_LL_StallEP(pdev, 0x80U);
 80059f8:	2180      	movs	r1, #128	@ 0x80
 80059fa:	4620      	mov	r0, r4
 80059fc:	f000 fe64 	bl	80066c8 <USBD_LL_StallEP>
          (void)USBD_CtlReceiveStatus(pdev);
 8005a00:	4620      	mov	r0, r4
 8005a02:	f000 fbed 	bl	80061e0 <USBD_CtlReceiveStatus>
    if (pdev->dev_test_mode != 0U)
 8005a06:	f894 32a0 	ldrb.w	r3, [r4, #672]	@ 0x2a0
 8005a0a:	2b00      	cmp	r3, #0
 8005a0c:	d0d9      	beq.n	80059c2 <USBD_LL_DataInStage+0x1a>
 8005a0e:	e7d5      	b.n	80059bc <USBD_LL_DataInStage+0x14>
        pep->pbuffer += pep->maxpacket;
 8005a10:	6a41      	ldr	r1, [r0, #36]	@ 0x24
        pep->rem_length -= pep->maxpacket;
 8005a12:	1ad2      	subs	r2, r2, r3
        pep->pbuffer += pep->maxpacket;
 8005a14:	4419      	add	r1, r3
        pep->rem_length -= pep->maxpacket;
 8005a16:	6182      	str	r2, [r0, #24]
        pep->pbuffer += pep->maxpacket;
 8005a18:	6241      	str	r1, [r0, #36]	@ 0x24
        (void)USBD_CtlContinueSendData(pdev, pep->pbuffer, pep->rem_length);
 8005a1a:	f000 fbb5 	bl	8006188 <USBD_CtlContinueSendData>
          (void)USBD_LL_PrepareReceive(pdev, 0U, NULL, 0U);
 8005a1e:	462b      	mov	r3, r5
 8005a20:	462a      	mov	r2, r5
 8005a22:	4629      	mov	r1, r5
 8005a24:	4620      	mov	r0, r4
 8005a26:	f000 fe93 	bl	8006750 <USBD_LL_PrepareReceive>
 8005a2a:	e7c4      	b.n	80059b6 <USBD_LL_DataInStage+0xe>
            (pep->total_length >= pep->maxpacket) &&
 8005a2c:	6943      	ldr	r3, [r0, #20]
        if ((pep->maxpacket == pep->rem_length) &&
 8005a2e:	429a      	cmp	r2, r3
 8005a30:	d8de      	bhi.n	80059f0 <USBD_LL_DataInStage+0x48>
            (pep->total_length >= pep->maxpacket) &&
 8005a32:	f8d0 2298 	ldr.w	r2, [r0, #664]	@ 0x298
 8005a36:	4293      	cmp	r3, r2
 8005a38:	d2da      	bcs.n	80059f0 <USBD_LL_DataInStage+0x48>
          (void)USBD_CtlContinueSendData(pdev, NULL, 0U);
 8005a3a:	460a      	mov	r2, r1
 8005a3c:	f000 fba4 	bl	8006188 <USBD_CtlContinueSendData>
          pdev->ep0_data_len = 0U;
 8005a40:	f8c4 5298 	str.w	r5, [r4, #664]	@ 0x298
 8005a44:	e7eb      	b.n	8005a1e <USBD_LL_DataInStage+0x76>
            if (pdev->pClass[0]->EP0_TxSent != NULL)
 8005a46:	f8d4 32b8 	ldr.w	r3, [r4, #696]	@ 0x2b8
 8005a4a:	68db      	ldr	r3, [r3, #12]
 8005a4c:	2b00      	cmp	r3, #0
 8005a4e:	d0d3      	beq.n	80059f8 <USBD_LL_DataInStage+0x50>
              pdev->classId = 0U;
 8005a50:	2200      	movs	r2, #0
 8005a52:	f8c4 22d4 	str.w	r2, [r4, #724]	@ 0x2d4
              pdev->pClass[0]->EP0_TxSent(pdev);
 8005a56:	4620      	mov	r0, r4
 8005a58:	4798      	blx	r3
 8005a5a:	e7cd      	b.n	80059f8 <USBD_LL_DataInStage+0x50>

08005a5c <USBD_LL_Reset>:
  *         Handle Reset event
  * @param  pdev: device instance
  * @retval status
  */
USBD_StatusTypeDef USBD_LL_Reset(USBD_HandleTypeDef *pdev)
{
 8005a5c:	b5f8      	push	{r3, r4, r5, r6, r7, lr}
      }
    }
  }
#else

  if (pdev->pClass[0] != NULL)
 8005a5e:	f8d0 32b8 	ldr.w	r3, [r0, #696]	@ 0x2b8
  pdev->ep0_state = USBD_EP0_IDLE;
 8005a62:	2100      	movs	r1, #0
  pdev->dev_state = USBD_STATE_DEFAULT;
 8005a64:	2201      	movs	r2, #1
 8005a66:	f880 229c 	strb.w	r2, [r0, #668]	@ 0x29c
{
 8005a6a:	4604      	mov	r4, r0
  pdev->dev_config = 0U;
 8005a6c:	6041      	str	r1, [r0, #4]
  pdev->ep0_state = USBD_EP0_IDLE;
 8005a6e:	f8c0 1294 	str.w	r1, [r0, #660]	@ 0x294
  pdev->dev_remote_wakeup = 0U;
 8005a72:	f8c0 12a4 	str.w	r1, [r0, #676]	@ 0x2a4
  pdev->dev_test_mode = 0U;
 8005a76:	f880 12a0 	strb.w	r1, [r0, #672]	@ 0x2a0
  if (pdev->pClass[0] != NULL)
 8005a7a:	b11b      	cbz	r3, 8005a84 <USBD_LL_Reset+0x28>
  {
    if (pdev->pClass[0]->DeInit != NULL)
 8005a7c:	685b      	ldr	r3, [r3, #4]
 8005a7e:	b10b      	cbz	r3, 8005a84 <USBD_LL_Reset+0x28>
    {
      if (pdev->pClass[0]->DeInit(pdev, (uint8_t)pdev->dev_config) != USBD_OK)
 8005a80:	4798      	blx	r3
 8005a82:	b9b8      	cbnz	r0, 8005ab4 <USBD_LL_Reset+0x58>
  USBD_StatusTypeDef ret = USBD_OK;
 8005a84:	2700      	movs	r7, #0
    }
  }
#endif /* USE_USBD_COMPOSITE */

  /* Open EP0 OUT */
  (void)USBD_LL_OpenEP(pdev, 0x00U, USBD_EP_TYPE_CTRL, USB_MAX_EP0_SIZE);
 8005a86:	2200      	movs	r2, #0
  pdev->ep_out[0x00U & 0xFU].is_used = 1U;

  pdev->ep_out[0].maxpacket = USB_MAX_EP0_SIZE;
 8005a88:	2540      	movs	r5, #64	@ 0x40
  (void)USBD_LL_OpenEP(pdev, 0x00U, USBD_EP_TYPE_CTRL, USB_MAX_EP0_SIZE);
 8005a8a:	4611      	mov	r1, r2
  pdev->ep_out[0x00U & 0xFU].is_used = 1U;
 8005a8c:	2601      	movs	r6, #1
  (void)USBD_LL_OpenEP(pdev, 0x00U, USBD_EP_TYPE_CTRL, USB_MAX_EP0_SIZE);
 8005a8e:	2340      	movs	r3, #64	@ 0x40
 8005a90:	4620      	mov	r0, r4
 8005a92:	f000 fdff 	bl	8006694 <USBD_LL_OpenEP>
  pdev->ep_out[0x00U & 0xFU].is_used = 1U;
 8005a96:	f884 6163 	strb.w	r6, [r4, #355]	@ 0x163
  pdev->ep_out[0].maxpacket = USB_MAX_EP0_SIZE;
 8005a9a:	f8a4 5160 	strh.w	r5, [r4, #352]	@ 0x160

  /* Open EP0 IN */
  (void)USBD_LL_OpenEP(pdev, 0x80U, USBD_EP_TYPE_CTRL, USB_MAX_EP0_SIZE);
 8005a9e:	462b      	mov	r3, r5
 8005aa0:	2200      	movs	r2, #0
 8005aa2:	2180      	movs	r1, #128	@ 0x80
 8005aa4:	4620      	mov	r0, r4
 8005aa6:	f000 fdf5 	bl	8006694 <USBD_LL_OpenEP>
  pdev->ep_in[0x80U & 0xFU].is_used = 1U;
 8005aaa:	f884 6023 	strb.w	r6, [r4, #35]	@ 0x23

  pdev->ep_in[0].maxpacket = USB_MAX_EP0_SIZE;
 8005aae:	8425      	strh	r5, [r4, #32]

  return ret;
}
 8005ab0:	4638      	mov	r0, r7
 8005ab2:	bdf8      	pop	{r3, r4, r5, r6, r7, pc}
        ret = USBD_FAIL;
 8005ab4:	2703      	movs	r7, #3
 8005ab6:	e7e6      	b.n	8005a86 <USBD_LL_Reset+0x2a>

08005ab8 <USBD_LL_SetSpeed>:
  * @retval status
  */
USBD_StatusTypeDef USBD_LL_SetSpeed(USBD_HandleTypeDef *pdev,
                                    USBD_SpeedTypeDef speed)
{
  pdev->dev_speed = speed;
 8005ab8:	7401      	strb	r1, [r0, #16]

  return USBD_OK;
}
 8005aba:	2000      	movs	r0, #0
 8005abc:	4770      	bx	lr
 8005abe:	bf00      	nop

08005ac0 <USBD_LL_Suspend>:
  * @param  pdev: device instance
  * @retval status
  */
USBD_StatusTypeDef USBD_LL_Suspend(USBD_HandleTypeDef *pdev)
{
  if (pdev->dev_state != USBD_STATE_SUSPENDED)
 8005ac0:	f890 329c 	ldrb.w	r3, [r0, #668]	@ 0x29c
 8005ac4:	2b04      	cmp	r3, #4
 8005ac6:	d004      	beq.n	8005ad2 <USBD_LL_Suspend+0x12>
  {
    pdev->dev_old_state = pdev->dev_state;
 8005ac8:	f890 329c 	ldrb.w	r3, [r0, #668]	@ 0x29c
 8005acc:	b2db      	uxtb	r3, r3
 8005ace:	f880 329d 	strb.w	r3, [r0, #669]	@ 0x29d
  }

  pdev->dev_state = USBD_STATE_SUSPENDED;
 8005ad2:	2304      	movs	r3, #4
 8005ad4:	f880 329c 	strb.w	r3, [r0, #668]	@ 0x29c

  return USBD_OK;
}
 8005ad8:	2000      	movs	r0, #0
 8005ada:	4770      	bx	lr

08005adc <USBD_LL_Resume>:
  * @param  pdev: device instance
  * @retval status
  */
USBD_StatusTypeDef USBD_LL_Resume(USBD_HandleTypeDef *pdev)
{
  if (pdev->dev_state == USBD_STATE_SUSPENDED)
 8005adc:	f890 329c 	ldrb.w	r3, [r0, #668]	@ 0x29c
 8005ae0:	2b04      	cmp	r3, #4
 8005ae2:	d104      	bne.n	8005aee <USBD_LL_Resume+0x12>
  {
    pdev->dev_state = pdev->dev_old_state;
 8005ae4:	f890 329d 	ldrb.w	r3, [r0, #669]	@ 0x29d
 8005ae8:	b2db      	uxtb	r3, r3
 8005aea:	f880 329c 	strb.w	r3, [r0, #668]	@ 0x29c
  }

  return USBD_OK;
}
 8005aee:	2000      	movs	r0, #0
 8005af0:	4770      	bx	lr
 8005af2:	bf00      	nop

08005af4 <USBD_LL_SOF>:
  * @retval status
  */
USBD_StatusTypeDef USBD_LL_SOF(USBD_HandleTypeDef *pdev)
{
  /* The SOF event can be distributed for all classes that support it */
  if (pdev->dev_state == USBD_STATE_CONFIGURED)
 8005af4:	f890 229c 	ldrb.w	r2, [r0, #668]	@ 0x29c
 8005af8:	2a03      	cmp	r2, #3
 8005afa:	d001      	beq.n	8005b00 <USBD_LL_SOF+0xc>
    }
#endif /* USE_USBD_COMPOSITE */
  }

  return USBD_OK;
}
 8005afc:	2000      	movs	r0, #0
 8005afe:	4770      	bx	lr
{
 8005b00:	b508      	push	{r3, lr}
    if (pdev->pClass[0] != NULL)
 8005b02:	f8d0 32b8 	ldr.w	r3, [r0, #696]	@ 0x2b8
 8005b06:	b113      	cbz	r3, 8005b0e <USBD_LL_SOF+0x1a>
      if (pdev->pClass[0]->SOF != NULL)
 8005b08:	69db      	ldr	r3, [r3, #28]
 8005b0a:	b103      	cbz	r3, 8005b0e <USBD_LL_SOF+0x1a>
        (void)pdev->pClass[0]->SOF(pdev);
 8005b0c:	4798      	blx	r3
}
 8005b0e:	2000      	movs	r0, #0
 8005b10:	bd08      	pop	{r3, pc}
 8005b12:	bf00      	nop

08005b14 <USBD_LL_IsoINIncomplete>:
  * @retval status
  */
USBD_StatusTypeDef USBD_LL_IsoINIncomplete(USBD_HandleTypeDef *pdev,
                                           uint8_t epnum)
{
  if (pdev->pClass[pdev->classId] == NULL)
 8005b14:	f8d0 22d4 	ldr.w	r2, [r0, #724]	@ 0x2d4
 8005b18:	32ae      	adds	r2, #174	@ 0xae
 8005b1a:	f850 2022 	ldr.w	r2, [r0, r2, lsl #2]
 8005b1e:	b162      	cbz	r2, 8005b3a <USBD_LL_IsoINIncomplete+0x26>
{
 8005b20:	b508      	push	{r3, lr}
  {
    return USBD_FAIL;
  }

  if (pdev->dev_state == USBD_STATE_CONFIGURED)
 8005b22:	f890 329c 	ldrb.w	r3, [r0, #668]	@ 0x29c
 8005b26:	2b03      	cmp	r3, #3
 8005b28:	d001      	beq.n	8005b2e <USBD_LL_IsoINIncomplete+0x1a>
    {
      (void)pdev->pClass[pdev->classId]->IsoINIncomplete(pdev, epnum);
    }
  }

  return USBD_OK;
 8005b2a:	2000      	movs	r0, #0
}
 8005b2c:	bd08      	pop	{r3, pc}
    if (pdev->pClass[pdev->classId]->IsoINIncomplete != NULL)
 8005b2e:	6a13      	ldr	r3, [r2, #32]
 8005b30:	2b00      	cmp	r3, #0
 8005b32:	d0fa      	beq.n	8005b2a <USBD_LL_IsoINIncomplete+0x16>
      (void)pdev->pClass[pdev->classId]->IsoINIncomplete(pdev, epnum);
 8005b34:	4798      	blx	r3
  return USBD_OK;
 8005b36:	2000      	movs	r0, #0
}
 8005b38:	bd08      	pop	{r3, pc}
    return USBD_FAIL;
 8005b3a:	2003      	movs	r0, #3
}
 8005b3c:	4770      	bx	lr
 8005b3e:	bf00      	nop

08005b40 <USBD_LL_IsoOUTIncomplete>:
  * @retval status
  */
USBD_StatusTypeDef USBD_LL_IsoOUTIncomplete(USBD_HandleTypeDef *pdev,
                                            uint8_t epnum)
{
  if (pdev->pClass[pdev->classId] == NULL)
 8005b40:	f8d0 22d4 	ldr.w	r2, [r0, #724]	@ 0x2d4
 8005b44:	32ae      	adds	r2, #174	@ 0xae
 8005b46:	f850 2022 	ldr.w	r2, [r0, r2, lsl #2]
 8005b4a:	b162      	cbz	r2, 8005b66 <USBD_LL_IsoOUTIncomplete+0x26>
{
 8005b4c:	b508      	push	{r3, lr}
  {
    return USBD_FAIL;
  }

  if (pdev->dev_state == USBD_STATE_CONFIGURED)
 8005b4e:	f890 329c 	ldrb.w	r3, [r0, #668]	@ 0x29c
 8005b52:	2b03      	cmp	r3, #3
 8005b54:	d001      	beq.n	8005b5a <USBD_LL_IsoOUTIncomplete+0x1a>
    {
      (void)pdev->pClass[pdev->classId]->IsoOUTIncomplete(pdev, epnum);
    }
  }

  return USBD_OK;
 8005b56:	2000      	movs	r0, #0
}
 8005b58:	bd08      	pop	{r3, pc}
    if (pdev->pClass[pdev->classId]->IsoOUTIncomplete != NULL)
 8005b5a:	6a53      	ldr	r3, [r2, #36]	@ 0x24
 8005b5c:	2b00      	cmp	r3, #0
 8005b5e:	d0fa      	beq.n	8005b56 <USBD_LL_IsoOUTIncomplete+0x16>
      (void)pdev->pClass[pdev->classId]->IsoOUTIncomplete(pdev, epnum);
 8005b60:	4798      	blx	r3
  return USBD_OK;
 8005b62:	2000      	movs	r0, #0
}
 8005b64:	bd08      	pop	{r3, pc}
    return USBD_FAIL;
 8005b66:	2003      	movs	r0, #3
}
 8005b68:	4770      	bx	lr
 8005b6a:	bf00      	nop

08005b6c <USBD_LL_DevConnected>:
  * @brief  USBD_LL_DevConnected
  *         Handle device connection event
  * @param  pdev: device instance
  * @retval status
  */
USBD_StatusTypeDef USBD_LL_DevConnected(USBD_HandleTypeDef *pdev)
 8005b6c:	2000      	movs	r0, #0
 8005b6e:	4770      	bx	lr

08005b70 <USBD_LL_DevDisconnected>:
        }
      }
    }
  }
#else
  if (pdev->pClass[0] != NULL)
 8005b70:	f8d0 22b8 	ldr.w	r2, [r0, #696]	@ 0x2b8
  pdev->dev_state = USBD_STATE_DEFAULT;
 8005b74:	2101      	movs	r1, #1
 8005b76:	f880 129c 	strb.w	r1, [r0, #668]	@ 0x29c
  if (pdev->pClass[0] != NULL)
 8005b7a:	b142      	cbz	r2, 8005b8e <USBD_LL_DevDisconnected+0x1e>
{
 8005b7c:	b508      	push	{r3, lr}
  {
    if (pdev->pClass[0]->DeInit(pdev, (uint8_t)pdev->dev_config) != 0U)
 8005b7e:	6852      	ldr	r2, [r2, #4]
 8005b80:	7901      	ldrb	r1, [r0, #4]
 8005b82:	4790      	blx	r2
 8005b84:	b908      	cbnz	r0, 8005b8a <USBD_LL_DevDisconnected+0x1a>
  USBD_StatusTypeDef   ret = USBD_OK;
 8005b86:	2000      	movs	r0, #0
    }
  }
#endif /* USE_USBD_COMPOSITE */

  return ret;
}
 8005b88:	bd08      	pop	{r3, pc}
      ret = USBD_FAIL;
 8005b8a:	2003      	movs	r0, #3
}
 8005b8c:	bd08      	pop	{r3, pc}
  USBD_StatusTypeDef   ret = USBD_OK;
 8005b8e:	2000      	movs	r0, #0
}
 8005b90:	4770      	bx	lr
 8005b92:	bf00      	nop

08005b94 <USBD_CoreFindIF>:
  UNUSED(pdev);
  UNUSED(index);

  return 0x00U;
#endif /* USE_USBD_COMPOSITE */
}
 8005b94:	2000      	movs	r0, #0
 8005b96:	4770      	bx	lr

08005b98 <USBD_CoreFindEP>:
  *         return the class index relative to the selected endpoint
  * @param  pdev: device instance
  * @param  index : selected endpoint number
  * @retval index of the class using the selected endpoint number. 0xFF if no class found.
  */
uint8_t USBD_CoreFindEP(USBD_HandleTypeDef *pdev, uint8_t index)
 8005b98:	2000      	movs	r0, #0
 8005b9a:	4770      	bx	lr

08005b9c <USBD_GetNextDesc>:
  */
USBD_DescHeaderTypeDef *USBD_GetNextDesc(uint8_t *pbuf, uint16_t *ptr)
{
  USBD_DescHeaderTypeDef *pnext = (USBD_DescHeaderTypeDef *)(void *)pbuf;

  *ptr += pnext->bLength;
 8005b9c:	7803      	ldrb	r3, [r0, #0]
 8005b9e:	880a      	ldrh	r2, [r1, #0]
  pnext = (USBD_DescHeaderTypeDef *)(void *)(pbuf + pnext->bLength);

  return (pnext);
}
 8005ba0:	4418      	add	r0, r3
  *ptr += pnext->bLength;
 8005ba2:	4413      	add	r3, r2
 8005ba4:	800b      	strh	r3, [r1, #0]
}
 8005ba6:	4770      	bx	lr

08005ba8 <USBD_StdDevReq>:
  * @param  pdev: device instance
  * @param  req: usb request
  * @retval status
  */
USBD_StatusTypeDef USBD_StdDevReq(USBD_HandleTypeDef *pdev, USBD_SetupReqTypedef *req)
{
 8005ba8:	b570      	push	{r4, r5, r6, lr}
 8005baa:	780b      	ldrb	r3, [r1, #0]
 8005bac:	f003 0360 	and.w	r3, r3, #96	@ 0x60
  USBD_StatusTypeDef ret = USBD_OK;

  switch (req->bmRequest & USB_REQ_TYPE_MASK)
 8005bb0:	2b20      	cmp	r3, #32
{
 8005bb2:	b082      	sub	sp, #8
 8005bb4:	460d      	mov	r5, r1
 8005bb6:	4604      	mov	r4, r0
  switch (req->bmRequest & USB_REQ_TYPE_MASK)
 8005bb8:	d028      	beq.n	8005c0c <USBD_StdDevReq+0x64>
 8005bba:	2b40      	cmp	r3, #64	@ 0x40
 8005bbc:	d026      	beq.n	8005c0c <USBD_StdDevReq+0x64>
 8005bbe:	b15b      	cbz	r3, 8005bd8 <USBD_StdDevReq+0x30>
  */
void USBD_CtlError(USBD_HandleTypeDef *pdev, USBD_SetupReqTypedef *req)
{
  UNUSED(req);

  (void)USBD_LL_StallEP(pdev, 0x80U);
 8005bc0:	2180      	movs	r1, #128	@ 0x80
 8005bc2:	4620      	mov	r0, r4
 8005bc4:	f000 fd80 	bl	80066c8 <USBD_LL_StallEP>
  (void)USBD_LL_StallEP(pdev, 0U);
 8005bc8:	2100      	movs	r1, #0
 8005bca:	4620      	mov	r0, r4
 8005bcc:	f000 fd7c 	bl	80066c8 <USBD_LL_StallEP>
  USBD_StatusTypeDef ret = USBD_OK;
 8005bd0:	2500      	movs	r5, #0
}
 8005bd2:	4628      	mov	r0, r5
 8005bd4:	b002      	add	sp, #8
 8005bd6:	bd70      	pop	{r4, r5, r6, pc}
      switch (req->bRequest)
 8005bd8:	784b      	ldrb	r3, [r1, #1]
 8005bda:	2b09      	cmp	r3, #9
 8005bdc:	d8f0      	bhi.n	8005bc0 <USBD_StdDevReq+0x18>
 8005bde:	a201      	add	r2, pc, #4	@ (adr r2, 8005be4 <USBD_StdDevReq+0x3c>)
 8005be0:	f852 f023 	ldr.w	pc, [r2, r3, lsl #2]
 8005be4:	08005c5d 	.word	0x08005c5d
 8005be8:	08005c85 	.word	0x08005c85
 8005bec:	08005bc1 	.word	0x08005bc1
 8005bf0:	08005ca3 	.word	0x08005ca3
 8005bf4:	08005bc1 	.word	0x08005bc1
 8005bf8:	08005cbb 	.word	0x08005cbb
 8005bfc:	08005cfd 	.word	0x08005cfd
 8005c00:	08005bc1 	.word	0x08005bc1
 8005c04:	08005d31 	.word	0x08005d31
 8005c08:	08005c25 	.word	0x08005c25
      ret = (USBD_StatusTypeDef)pdev->pClass[pdev->classId]->Setup(pdev, req);
 8005c0c:	f8d4 32d4 	ldr.w	r3, [r4, #724]	@ 0x2d4
 8005c10:	33ae      	adds	r3, #174	@ 0xae
 8005c12:	4629      	mov	r1, r5
 8005c14:	f854 3023 	ldr.w	r3, [r4, r3, lsl #2]
 8005c18:	689b      	ldr	r3, [r3, #8]
 8005c1a:	4620      	mov	r0, r4
}
 8005c1c:	b002      	add	sp, #8
 8005c1e:	e8bd 4070 	ldmia.w	sp!, {r4, r5, r6, lr}
      ret = (USBD_StatusTypeDef)pdev->pClass[pdev->classId]->Setup(pdev, req);
 8005c22:	4718      	bx	r3
  cfgidx = (uint8_t)(req->wValue);
 8005c24:	7889      	ldrb	r1, [r1, #2]
 8005c26:	4db5      	ldr	r5, [pc, #724]	@ (8005efc <USBD_StdDevReq+0x354>)
  if (cfgidx > USBD_MAX_NUM_CONFIGURATION)
 8005c28:	2901      	cmp	r1, #1
  cfgidx = (uint8_t)(req->wValue);
 8005c2a:	7029      	strb	r1, [r5, #0]
  if (cfgidx > USBD_MAX_NUM_CONFIGURATION)
 8005c2c:	f200 8141 	bhi.w	8005eb2 <USBD_StdDevReq+0x30a>
  switch (pdev->dev_state)
 8005c30:	f890 329c 	ldrb.w	r3, [r0, #668]	@ 0x29c
 8005c34:	2b02      	cmp	r3, #2
 8005c36:	b2de      	uxtb	r6, r3
 8005c38:	f000 8120 	beq.w	8005e7c <USBD_StdDevReq+0x2d4>
 8005c3c:	2e03      	cmp	r6, #3
 8005c3e:	f000 80fb 	beq.w	8005e38 <USBD_StdDevReq+0x290>
  (void)USBD_LL_StallEP(pdev, 0x80U);
 8005c42:	2180      	movs	r1, #128	@ 0x80
 8005c44:	f000 fd40 	bl	80066c8 <USBD_LL_StallEP>
  (void)USBD_LL_StallEP(pdev, 0U);
 8005c48:	2100      	movs	r1, #0
 8005c4a:	4620      	mov	r0, r4
 8005c4c:	f000 fd3c 	bl	80066c8 <USBD_LL_StallEP>
      (void)USBD_ClrClassConfig(pdev, cfgidx);
 8005c50:	7829      	ldrb	r1, [r5, #0]
 8005c52:	4620      	mov	r0, r4
 8005c54:	f7ff fe2e 	bl	80058b4 <USBD_ClrClassConfig>
    return USBD_FAIL;
 8005c58:	2503      	movs	r5, #3
 8005c5a:	e7ba      	b.n	8005bd2 <USBD_StdDevReq+0x2a>
  switch (pdev->dev_state)
 8005c5c:	f890 329c 	ldrb.w	r3, [r0, #668]	@ 0x29c
 8005c60:	3b01      	subs	r3, #1
 8005c62:	2b02      	cmp	r3, #2
 8005c64:	d8ac      	bhi.n	8005bc0 <USBD_StdDevReq+0x18>
      if (req->wLength != 0x2U)
 8005c66:	88ca      	ldrh	r2, [r1, #6]
 8005c68:	2a02      	cmp	r2, #2
 8005c6a:	d1a9      	bne.n	8005bc0 <USBD_StdDevReq+0x18>
      if (pdev->dev_remote_wakeup != 0U)
 8005c6c:	f8d0 32a4 	ldr.w	r3, [r0, #676]	@ 0x2a4
 8005c70:	4601      	mov	r1, r0
        pdev->dev_config_status |= USB_CONFIG_REMOTE_WAKEUP;
 8005c72:	2b00      	cmp	r3, #0
 8005c74:	bf0c      	ite	eq
 8005c76:	2301      	moveq	r3, #1
 8005c78:	2303      	movne	r3, #3
 8005c7a:	f841 3f0c 	str.w	r3, [r1, #12]!
      (void)USBD_CtlSendData(pdev, (uint8_t *)&pdev->dev_config_status, 2U);
 8005c7e:	f000 fa75 	bl	800616c <USBD_CtlSendData>
      break;
 8005c82:	e7a5      	b.n	8005bd0 <USBD_StdDevReq+0x28>
  switch (pdev->dev_state)
 8005c84:	f890 329c 	ldrb.w	r3, [r0, #668]	@ 0x29c
 8005c88:	3b01      	subs	r3, #1
 8005c8a:	2b02      	cmp	r3, #2
 8005c8c:	d898      	bhi.n	8005bc0 <USBD_StdDevReq+0x18>
      if (req->wValue == USB_FEATURE_REMOTE_WAKEUP)
 8005c8e:	884b      	ldrh	r3, [r1, #2]
 8005c90:	2b01      	cmp	r3, #1
 8005c92:	d19d      	bne.n	8005bd0 <USBD_StdDevReq+0x28>
        pdev->dev_remote_wakeup = 0U;
 8005c94:	2300      	movs	r3, #0
 8005c96:	f8c4 32a4 	str.w	r3, [r4, #676]	@ 0x2a4
        (void)USBD_CtlSendStatus(pdev);
 8005c9a:	4620      	mov	r0, r4
 8005c9c:	f000 fa94 	bl	80061c8 <USBD_CtlSendStatus>
 8005ca0:	e796      	b.n	8005bd0 <USBD_StdDevReq+0x28>
  if (req->wValue == USB_FEATURE_REMOTE_WAKEUP)
 8005ca2:	884b      	ldrh	r3, [r1, #2]
 8005ca4:	2b01      	cmp	r3, #1
 8005ca6:	d0f6      	beq.n	8005c96 <USBD_StdDevReq+0xee>
  else if (req->wValue == USB_FEATURE_TEST_MODE)
 8005ca8:	2b02      	cmp	r3, #2
 8005caa:	d189      	bne.n	8005bc0 <USBD_StdDevReq+0x18>
    pdev->dev_test_mode = (uint8_t)(req->wIndex >> 8);
 8005cac:	888b      	ldrh	r3, [r1, #4]
 8005cae:	0a1b      	lsrs	r3, r3, #8
 8005cb0:	f880 32a0 	strb.w	r3, [r0, #672]	@ 0x2a0
    (void)USBD_CtlSendStatus(pdev);
 8005cb4:	f000 fa88 	bl	80061c8 <USBD_CtlSendStatus>
 8005cb8:	e78a      	b.n	8005bd0 <USBD_StdDevReq+0x28>
  if ((req->wIndex == 0U) && (req->wLength == 0U) && (req->wValue < 128U))
 8005cba:	888b      	ldrh	r3, [r1, #4]
 8005cbc:	2b00      	cmp	r3, #0
 8005cbe:	f47f af7f 	bne.w	8005bc0 <USBD_StdDevReq+0x18>
 8005cc2:	88cb      	ldrh	r3, [r1, #6]
 8005cc4:	2b00      	cmp	r3, #0
 8005cc6:	f47f af7b 	bne.w	8005bc0 <USBD_StdDevReq+0x18>
 8005cca:	884b      	ldrh	r3, [r1, #2]
 8005ccc:	2b7f      	cmp	r3, #127	@ 0x7f
 8005cce:	f63f af77 	bhi.w	8005bc0 <USBD_StdDevReq+0x18>
    if (pdev->dev_state == USBD_STATE_CONFIGURED)
 8005cd2:	f890 229c 	ldrb.w	r2, [r0, #668]	@ 0x29c
 8005cd6:	2a03      	cmp	r2, #3
 8005cd8:	f43f af72 	beq.w	8005bc0 <USBD_StdDevReq+0x18>
    dev_addr = (uint8_t)(req->wValue) & 0x7FU;
 8005cdc:	b2dd      	uxtb	r5, r3
      pdev->dev_address = dev_addr;
 8005cde:	f880 529e 	strb.w	r5, [r0, #670]	@ 0x29e
      (void)USBD_LL_SetUSBAddress(pdev, dev_addr);
 8005ce2:	4629      	mov	r1, r5
 8005ce4:	f000 fd1c 	bl	8006720 <USBD_LL_SetUSBAddress>
      (void)USBD_CtlSendStatus(pdev);
 8005ce8:	4620      	mov	r0, r4
 8005cea:	f000 fa6d 	bl	80061c8 <USBD_CtlSendStatus>
      if (dev_addr != 0U)
 8005cee:	2d00      	cmp	r5, #0
 8005cf0:	f000 80ff 	beq.w	8005ef2 <USBD_StdDevReq+0x34a>
        pdev->dev_state = USBD_STATE_ADDRESSED;
 8005cf4:	2302      	movs	r3, #2
 8005cf6:	f884 329c 	strb.w	r3, [r4, #668]	@ 0x29c
 8005cfa:	e769      	b.n	8005bd0 <USBD_StdDevReq+0x28>
  switch (req->wValue >> 8)
 8005cfc:	884a      	ldrh	r2, [r1, #2]
 8005cfe:	0a13      	lsrs	r3, r2, #8
  uint16_t len = 0U;
 8005d00:	2100      	movs	r1, #0
  switch (req->wValue >> 8)
 8005d02:	3b01      	subs	r3, #1
  uint16_t len = 0U;
 8005d04:	f8ad 1006 	strh.w	r1, [sp, #6]
  switch (req->wValue >> 8)
 8005d08:	2b06      	cmp	r3, #6
 8005d0a:	f63f af59 	bhi.w	8005bc0 <USBD_StdDevReq+0x18>
 8005d0e:	a101      	add	r1, pc, #4	@ (adr r1, 8005d14 <USBD_StdDevReq+0x16c>)
 8005d10:	f851 f023 	ldr.w	pc, [r1, r3, lsl #2]
 8005d14:	08005dd7 	.word	0x08005dd7
 8005d18:	08005dbd 	.word	0x08005dbd
 8005d1c:	08005dab 	.word	0x08005dab
 8005d20:	08005bc1 	.word	0x08005bc1
 8005d24:	08005bc1 	.word	0x08005bc1
 8005d28:	08005d95 	.word	0x08005d95
 8005d2c:	08005d59 	.word	0x08005d59
  if (req->wLength != 1U)
 8005d30:	88ca      	ldrh	r2, [r1, #6]
 8005d32:	2a01      	cmp	r2, #1
 8005d34:	f47f af44 	bne.w	8005bc0 <USBD_StdDevReq+0x18>
    switch (pdev->dev_state)
 8005d38:	f890 329c 	ldrb.w	r3, [r0, #668]	@ 0x29c
 8005d3c:	2b02      	cmp	r3, #2
 8005d3e:	b2d9      	uxtb	r1, r3
 8005d40:	f200 80b0 	bhi.w	8005ea4 <USBD_StdDevReq+0x2fc>
 8005d44:	2900      	cmp	r1, #0
 8005d46:	f43f af3b 	beq.w	8005bc0 <USBD_StdDevReq+0x18>
        pdev->dev_default_config = 0U;
 8005d4a:	4601      	mov	r1, r0
 8005d4c:	2300      	movs	r3, #0
 8005d4e:	f841 3f08 	str.w	r3, [r1, #8]!
        (void)USBD_CtlSendData(pdev, (uint8_t *)&pdev->dev_default_config, 1U);
 8005d52:	f000 fa0b 	bl	800616c <USBD_CtlSendData>
        break;
 8005d56:	e73b      	b.n	8005bd0 <USBD_StdDevReq+0x28>
      if (pdev->dev_speed == USBD_SPEED_HIGH)
 8005d58:	7c03      	ldrb	r3, [r0, #16]
 8005d5a:	2b00      	cmp	r3, #0
 8005d5c:	f47f af30 	bne.w	8005bc0 <USBD_StdDevReq+0x18>
          pbuf = (uint8_t *)pdev->pClass[0]->GetOtherSpeedConfigDescriptor(&len);
 8005d60:	f8d0 32b8 	ldr.w	r3, [r0, #696]	@ 0x2b8
 8005d64:	f10d 0006 	add.w	r0, sp, #6
 8005d68:	6b1b      	ldr	r3, [r3, #48]	@ 0x30
 8005d6a:	4798      	blx	r3
        pbuf[1] = USB_DESC_TYPE_OTHER_SPEED_CONFIGURATION;
 8005d6c:	2307      	movs	r3, #7
 8005d6e:	7043      	strb	r3, [r0, #1]
  if (req->wLength != 0U)
 8005d70:	88eb      	ldrh	r3, [r5, #6]
 8005d72:	2b00      	cmp	r3, #0
 8005d74:	d091      	beq.n	8005c9a <USBD_StdDevReq+0xf2>
    if (len != 0U)
 8005d76:	f8bd 2006 	ldrh.w	r2, [sp, #6]
 8005d7a:	2a00      	cmp	r2, #0
 8005d7c:	f43f af20 	beq.w	8005bc0 <USBD_StdDevReq+0x18>
      len = MIN(len, req->wLength);
 8005d80:	429a      	cmp	r2, r3
 8005d82:	bf28      	it	cs
 8005d84:	461a      	movcs	r2, r3
      (void)USBD_CtlSendData(pdev, pbuf, len);
 8005d86:	4601      	mov	r1, r0
 8005d88:	4620      	mov	r0, r4
      len = MIN(len, req->wLength);
 8005d8a:	f8ad 2006 	strh.w	r2, [sp, #6]
      (void)USBD_CtlSendData(pdev, pbuf, len);
 8005d8e:	f000 f9ed 	bl	800616c <USBD_CtlSendData>
 8005d92:	e71d      	b.n	8005bd0 <USBD_StdDevReq+0x28>
      if (pdev->dev_speed == USBD_SPEED_HIGH)
 8005d94:	7c03      	ldrb	r3, [r0, #16]
 8005d96:	2b00      	cmp	r3, #0
 8005d98:	f47f af12 	bne.w	8005bc0 <USBD_StdDevReq+0x18>
          pbuf = (uint8_t *)pdev->pClass[0]->GetDeviceQualifierDescriptor(&len);
 8005d9c:	f8d0 32b8 	ldr.w	r3, [r0, #696]	@ 0x2b8
 8005da0:	f10d 0006 	add.w	r0, sp, #6
 8005da4:	6b5b      	ldr	r3, [r3, #52]	@ 0x34
 8005da6:	4798      	blx	r3
  if (err != 0U)
 8005da8:	e7e2      	b.n	8005d70 <USBD_StdDevReq+0x1c8>
      switch ((uint8_t)(req->wValue))
 8005daa:	b2d2      	uxtb	r2, r2
 8005dac:	2a05      	cmp	r2, #5
 8005dae:	f63f af07 	bhi.w	8005bc0 <USBD_StdDevReq+0x18>
 8005db2:	e8df f002 	tbb	[pc, r2]
 8005db6:	353b      	.short	0x353b
 8005db8:	1823292f 	.word	0x1823292f
      if (pdev->dev_speed == USBD_SPEED_HIGH)
 8005dbc:	7c02      	ldrb	r2, [r0, #16]
          pbuf = (uint8_t *)pdev->pClass[0]->GetHSConfigDescriptor(&len);
 8005dbe:	f8d0 32b8 	ldr.w	r3, [r0, #696]	@ 0x2b8
      if (pdev->dev_speed == USBD_SPEED_HIGH)
 8005dc2:	2a00      	cmp	r2, #0
 8005dc4:	f040 8087 	bne.w	8005ed6 <USBD_StdDevReq+0x32e>
          pbuf = (uint8_t *)pdev->pClass[0]->GetHSConfigDescriptor(&len);
 8005dc8:	6a9b      	ldr	r3, [r3, #40]	@ 0x28
 8005dca:	f10d 0006 	add.w	r0, sp, #6
 8005dce:	4798      	blx	r3
        pbuf[1] = USB_DESC_TYPE_CONFIGURATION;
 8005dd0:	2302      	movs	r3, #2
 8005dd2:	7043      	strb	r3, [r0, #1]
  if (err != 0U)
 8005dd4:	e7cc      	b.n	8005d70 <USBD_StdDevReq+0x1c8>
      pbuf = pdev->pDesc->GetDeviceDescriptor(pdev->dev_speed, &len);
 8005dd6:	f8d0 32b4 	ldr.w	r3, [r0, #692]	@ 0x2b4
 8005dda:	7c00      	ldrb	r0, [r0, #16]
 8005ddc:	681b      	ldr	r3, [r3, #0]
 8005dde:	f10d 0106 	add.w	r1, sp, #6
 8005de2:	4798      	blx	r3
  if (err != 0U)
 8005de4:	e7c4      	b.n	8005d70 <USBD_StdDevReq+0x1c8>
          if (pdev->pDesc->GetInterfaceStrDescriptor != NULL)
 8005de6:	f8d0 32b4 	ldr.w	r3, [r0, #692]	@ 0x2b4
 8005dea:	699b      	ldr	r3, [r3, #24]
 8005dec:	2b00      	cmp	r3, #0
 8005dee:	f43f aee7 	beq.w	8005bc0 <USBD_StdDevReq+0x18>
            pbuf = pdev->pDesc->GetInterfaceStrDescriptor(pdev->dev_speed, &len);
 8005df2:	7c20      	ldrb	r0, [r4, #16]
 8005df4:	f10d 0106 	add.w	r1, sp, #6
 8005df8:	4798      	blx	r3
  if (err != 0U)
 8005dfa:	e7b9      	b.n	8005d70 <USBD_StdDevReq+0x1c8>
          if (pdev->pDesc->GetConfigurationStrDescriptor != NULL)
 8005dfc:	f8d0 32b4 	ldr.w	r3, [r0, #692]	@ 0x2b4
 8005e00:	695b      	ldr	r3, [r3, #20]
 8005e02:	2b00      	cmp	r3, #0
 8005e04:	d1f5      	bne.n	8005df2 <USBD_StdDevReq+0x24a>
 8005e06:	e6db      	b.n	8005bc0 <USBD_StdDevReq+0x18>
          if (pdev->pDesc->GetSerialStrDescriptor != NULL)
 8005e08:	f8d0 32b4 	ldr.w	r3, [r0, #692]	@ 0x2b4
 8005e0c:	691b      	ldr	r3, [r3, #16]
 8005e0e:	2b00      	cmp	r3, #0
 8005e10:	d1ef      	bne.n	8005df2 <USBD_StdDevReq+0x24a>
 8005e12:	e6d5      	b.n	8005bc0 <USBD_StdDevReq+0x18>
          if (pdev->pDesc->GetProductStrDescriptor != NULL)
 8005e14:	f8d0 32b4 	ldr.w	r3, [r0, #692]	@ 0x2b4
 8005e18:	68db      	ldr	r3, [r3, #12]
 8005e1a:	2b00      	cmp	r3, #0
 8005e1c:	d1e9      	bne.n	8005df2 <USBD_StdDevReq+0x24a>
 8005e1e:	e6cf      	b.n	8005bc0 <USBD_StdDevReq+0x18>
          if (pdev->pDesc->GetManufacturerStrDescriptor != NULL)
 8005e20:	f8d0 32b4 	ldr.w	r3, [r0, #692]	@ 0x2b4
 8005e24:	689b      	ldr	r3, [r3, #8]
 8005e26:	2b00      	cmp	r3, #0
 8005e28:	d1e3      	bne.n	8005df2 <USBD_StdDevReq+0x24a>
 8005e2a:	e6c9      	b.n	8005bc0 <USBD_StdDevReq+0x18>
          if (pdev->pDesc->GetLangIDStrDescriptor != NULL)
 8005e2c:	f8d0 32b4 	ldr.w	r3, [r0, #692]	@ 0x2b4
 8005e30:	685b      	ldr	r3, [r3, #4]
 8005e32:	2b00      	cmp	r3, #0
 8005e34:	d1dd      	bne.n	8005df2 <USBD_StdDevReq+0x24a>
 8005e36:	e6c3      	b.n	8005bc0 <USBD_StdDevReq+0x18>
      if (cfgidx == 0U)
 8005e38:	2900      	cmp	r1, #0
 8005e3a:	d042      	beq.n	8005ec2 <USBD_StdDevReq+0x31a>
      else if (cfgidx != pdev->dev_config)
 8005e3c:	6841      	ldr	r1, [r0, #4]
 8005e3e:	2901      	cmp	r1, #1
 8005e40:	f43f af2b 	beq.w	8005c9a <USBD_StdDevReq+0xf2>
        (void)USBD_ClrClassConfig(pdev, (uint8_t)pdev->dev_config);
 8005e44:	b2c9      	uxtb	r1, r1
 8005e46:	f7ff fd35 	bl	80058b4 <USBD_ClrClassConfig>
        pdev->dev_config = cfgidx;
 8005e4a:	7829      	ldrb	r1, [r5, #0]
 8005e4c:	6061      	str	r1, [r4, #4]
        ret = USBD_SetClassConfig(pdev, cfgidx);
 8005e4e:	4620      	mov	r0, r4
 8005e50:	f7ff fd28 	bl	80058a4 <USBD_SetClassConfig>
        if (ret != USBD_OK)
 8005e54:	4605      	mov	r5, r0
 8005e56:	2800      	cmp	r0, #0
 8005e58:	f43f af1f 	beq.w	8005c9a <USBD_StdDevReq+0xf2>
  (void)USBD_LL_StallEP(pdev, 0x80U);
 8005e5c:	2180      	movs	r1, #128	@ 0x80
 8005e5e:	4620      	mov	r0, r4
 8005e60:	f000 fc32 	bl	80066c8 <USBD_LL_StallEP>
  (void)USBD_LL_StallEP(pdev, 0U);
 8005e64:	2100      	movs	r1, #0
 8005e66:	4620      	mov	r0, r4
 8005e68:	f000 fc2e 	bl	80066c8 <USBD_LL_StallEP>
          (void)USBD_ClrClassConfig(pdev, (uint8_t)pdev->dev_config);
 8005e6c:	7921      	ldrb	r1, [r4, #4]
 8005e6e:	4620      	mov	r0, r4
 8005e70:	f7ff fd20 	bl	80058b4 <USBD_ClrClassConfig>
          pdev->dev_state = USBD_STATE_ADDRESSED;
 8005e74:	2302      	movs	r3, #2
 8005e76:	f884 329c 	strb.w	r3, [r4, #668]	@ 0x29c
 8005e7a:	e6aa      	b.n	8005bd2 <USBD_StdDevReq+0x2a>
      if (cfgidx != 0U)
 8005e7c:	2900      	cmp	r1, #0
 8005e7e:	f43f af0c 	beq.w	8005c9a <USBD_StdDevReq+0xf2>
        pdev->dev_config = cfgidx;
 8005e82:	2101      	movs	r1, #1
 8005e84:	6041      	str	r1, [r0, #4]
        ret = USBD_SetClassConfig(pdev, cfgidx);
 8005e86:	f7ff fd0d 	bl	80058a4 <USBD_SetClassConfig>
        if (ret != USBD_OK)
 8005e8a:	4605      	mov	r5, r0
 8005e8c:	b350      	cbz	r0, 8005ee4 <USBD_StdDevReq+0x33c>
  (void)USBD_LL_StallEP(pdev, 0x80U);
 8005e8e:	2180      	movs	r1, #128	@ 0x80
 8005e90:	4620      	mov	r0, r4
 8005e92:	f000 fc19 	bl	80066c8 <USBD_LL_StallEP>
  (void)USBD_LL_StallEP(pdev, 0U);
 8005e96:	2100      	movs	r1, #0
 8005e98:	4620      	mov	r0, r4
 8005e9a:	f000 fc15 	bl	80066c8 <USBD_LL_StallEP>
          pdev->dev_state = USBD_STATE_ADDRESSED;
 8005e9e:	f884 629c 	strb.w	r6, [r4, #668]	@ 0x29c
 8005ea2:	e696      	b.n	8005bd2 <USBD_StdDevReq+0x2a>
    switch (pdev->dev_state)
 8005ea4:	2903      	cmp	r1, #3
 8005ea6:	f47f ae8b 	bne.w	8005bc0 <USBD_StdDevReq+0x18>
        (void)USBD_CtlSendData(pdev, (uint8_t *)&pdev->dev_config, 1U);
 8005eaa:	1d01      	adds	r1, r0, #4
 8005eac:	f000 f95e 	bl	800616c <USBD_CtlSendData>
        break;
 8005eb0:	e68e      	b.n	8005bd0 <USBD_StdDevReq+0x28>
  (void)USBD_LL_StallEP(pdev, 0x80U);
 8005eb2:	2180      	movs	r1, #128	@ 0x80
 8005eb4:	f000 fc08 	bl	80066c8 <USBD_LL_StallEP>
  (void)USBD_LL_StallEP(pdev, 0U);
 8005eb8:	2100      	movs	r1, #0
 8005eba:	4620      	mov	r0, r4
 8005ebc:	f000 fc04 	bl	80066c8 <USBD_LL_StallEP>
    return USBD_FAIL;
 8005ec0:	e6ca      	b.n	8005c58 <USBD_StdDevReq+0xb0>
        pdev->dev_state = USBD_STATE_ADDRESSED;
 8005ec2:	2302      	movs	r3, #2
 8005ec4:	f880 329c 	strb.w	r3, [r0, #668]	@ 0x29c
        pdev->dev_config = cfgidx;
 8005ec8:	6041      	str	r1, [r0, #4]
        (void)USBD_ClrClassConfig(pdev, cfgidx);
 8005eca:	f7ff fcf3 	bl	80058b4 <USBD_ClrClassConfig>
        (void)USBD_CtlSendStatus(pdev);
 8005ece:	4620      	mov	r0, r4
 8005ed0:	f000 f97a 	bl	80061c8 <USBD_CtlSendStatus>
 8005ed4:	e67c      	b.n	8005bd0 <USBD_StdDevReq+0x28>
          pbuf = (uint8_t *)pdev->pClass[0]->GetFSConfigDescriptor(&len);
 8005ed6:	6adb      	ldr	r3, [r3, #44]	@ 0x2c
 8005ed8:	f10d 0006 	add.w	r0, sp, #6
 8005edc:	4798      	blx	r3
        pbuf[1] = USB_DESC_TYPE_CONFIGURATION;
 8005ede:	2302      	movs	r3, #2
 8005ee0:	7043      	strb	r3, [r0, #1]
  if (err != 0U)
 8005ee2:	e745      	b.n	8005d70 <USBD_StdDevReq+0x1c8>
          (void)USBD_CtlSendStatus(pdev);
 8005ee4:	4620      	mov	r0, r4
 8005ee6:	f000 f96f 	bl	80061c8 <USBD_CtlSendStatus>
          pdev->dev_state = USBD_STATE_CONFIGURED;
 8005eea:	2303      	movs	r3, #3
 8005eec:	f884 329c 	strb.w	r3, [r4, #668]	@ 0x29c
 8005ef0:	e66e      	b.n	8005bd0 <USBD_StdDevReq+0x28>
        pdev->dev_state = USBD_STATE_DEFAULT;
 8005ef2:	2301      	movs	r3, #1
 8005ef4:	f884 329c 	strb.w	r3, [r4, #668]	@ 0x29c
 8005ef8:	e66a      	b.n	8005bd0 <USBD_StdDevReq+0x28>
 8005efa:	bf00      	nop
 8005efc:	2001868c 	.word	0x2001868c

08005f00 <USBD_StdItfReq>:
{
 8005f00:	b570      	push	{r4, r5, r6, lr}
  switch (req->bmRequest & USB_REQ_TYPE_MASK)
 8005f02:	780b      	ldrb	r3, [r1, #0]
 8005f04:	065a      	lsls	r2, r3, #25
{
 8005f06:	460d      	mov	r5, r1
 8005f08:	4604      	mov	r4, r0
  switch (req->bmRequest & USB_REQ_TYPE_MASK)
 8005f0a:	d50d      	bpl.n	8005f28 <USBD_StdItfReq+0x28>
 8005f0c:	f003 0260 	and.w	r2, r3, #96	@ 0x60
 8005f10:	2a40      	cmp	r2, #64	@ 0x40
 8005f12:	d009      	beq.n	8005f28 <USBD_StdItfReq+0x28>
  (void)USBD_LL_StallEP(pdev, 0x80U);
 8005f14:	2180      	movs	r1, #128	@ 0x80
 8005f16:	f000 fbd7 	bl	80066c8 <USBD_LL_StallEP>
  (void)USBD_LL_StallEP(pdev, 0U);
 8005f1a:	2100      	movs	r1, #0
 8005f1c:	4620      	mov	r0, r4
 8005f1e:	f000 fbd3 	bl	80066c8 <USBD_LL_StallEP>
  USBD_StatusTypeDef ret = USBD_OK;
 8005f22:	2600      	movs	r6, #0
}
 8005f24:	4630      	mov	r0, r6
 8005f26:	bd70      	pop	{r4, r5, r6, pc}
      switch (pdev->dev_state)
 8005f28:	f894 329c 	ldrb.w	r3, [r4, #668]	@ 0x29c
 8005f2c:	3b01      	subs	r3, #1
 8005f2e:	2b02      	cmp	r3, #2
 8005f30:	d802      	bhi.n	8005f38 <USBD_StdItfReq+0x38>
          if (LOBYTE(req->wIndex) <= USBD_MAX_NUM_INTERFACES)
 8005f32:	7929      	ldrb	r1, [r5, #4]
 8005f34:	2901      	cmp	r1, #1
 8005f36:	d908      	bls.n	8005f4a <USBD_StdItfReq+0x4a>
  (void)USBD_LL_StallEP(pdev, 0x80U);
 8005f38:	2180      	movs	r1, #128	@ 0x80
 8005f3a:	4620      	mov	r0, r4
 8005f3c:	f000 fbc4 	bl	80066c8 <USBD_LL_StallEP>
  (void)USBD_LL_StallEP(pdev, 0U);
 8005f40:	2100      	movs	r1, #0
 8005f42:	4620      	mov	r0, r4
 8005f44:	f000 fbc0 	bl	80066c8 <USBD_LL_StallEP>
}
 8005f48:	e7eb      	b.n	8005f22 <USBD_StdItfReq+0x22>
            idx = USBD_CoreFindIF(pdev, LOBYTE(req->wIndex));
 8005f4a:	4620      	mov	r0, r4
 8005f4c:	f7ff fe22 	bl	8005b94 <USBD_CoreFindIF>
            if (((uint8_t)idx != 0xFFU) && (idx < USBD_MAX_SUPPORTED_CLASS))
 8005f50:	b990      	cbnz	r0, 8005f78 <USBD_StdItfReq+0x78>
              if (pdev->pClass[idx]->Setup != NULL)
 8005f52:	f8d4 32b8 	ldr.w	r3, [r4, #696]	@ 0x2b8
 8005f56:	689b      	ldr	r3, [r3, #8]
 8005f58:	b173      	cbz	r3, 8005f78 <USBD_StdItfReq+0x78>
                pdev->classId = idx;
 8005f5a:	f8c4 02d4 	str.w	r0, [r4, #724]	@ 0x2d4
                ret = (USBD_StatusTypeDef)(pdev->pClass[idx]->Setup(pdev, req));
 8005f5e:	4629      	mov	r1, r5
 8005f60:	4620      	mov	r0, r4
 8005f62:	4798      	blx	r3
            if ((req->wLength == 0U) && (ret == USBD_OK))
 8005f64:	88eb      	ldrh	r3, [r5, #6]
                ret = (USBD_StatusTypeDef)(pdev->pClass[idx]->Setup(pdev, req));
 8005f66:	4606      	mov	r6, r0
            if ((req->wLength == 0U) && (ret == USBD_OK))
 8005f68:	2b00      	cmp	r3, #0
 8005f6a:	d1db      	bne.n	8005f24 <USBD_StdItfReq+0x24>
 8005f6c:	2800      	cmp	r0, #0
 8005f6e:	d1d9      	bne.n	8005f24 <USBD_StdItfReq+0x24>
              (void)USBD_CtlSendStatus(pdev);
 8005f70:	4620      	mov	r0, r4
 8005f72:	f000 f929 	bl	80061c8 <USBD_CtlSendStatus>
 8005f76:	e7d5      	b.n	8005f24 <USBD_StdItfReq+0x24>
                ret = USBD_FAIL;
 8005f78:	2603      	movs	r6, #3
}
 8005f7a:	4630      	mov	r0, r6
 8005f7c:	bd70      	pop	{r4, r5, r6, pc}
 8005f7e:	bf00      	nop

08005f80 <USBD_StdEPReq>:
{
 8005f80:	b530      	push	{r4, r5, lr}
 8005f82:	460c      	mov	r4, r1
  ep_addr = LOBYTE(req->wIndex);
 8005f84:	888a      	ldrh	r2, [r1, #4]
 8005f86:	7823      	ldrb	r3, [r4, #0]
 8005f88:	f003 0360 	and.w	r3, r3, #96	@ 0x60
  switch (req->bmRequest & USB_REQ_TYPE_MASK)
 8005f8c:	2b20      	cmp	r3, #32
{
 8005f8e:	b083      	sub	sp, #12
 8005f90:	4605      	mov	r5, r0
  ep_addr = LOBYTE(req->wIndex);
 8005f92:	b2d1      	uxtb	r1, r2
  switch (req->bmRequest & USB_REQ_TYPE_MASK)
 8005f94:	d04d      	beq.n	8006032 <USBD_StdEPReq+0xb2>
 8005f96:	2b40      	cmp	r3, #64	@ 0x40
 8005f98:	d04b      	beq.n	8006032 <USBD_StdEPReq+0xb2>
 8005f9a:	b153      	cbz	r3, 8005fb2 <USBD_StdEPReq+0x32>
  (void)USBD_LL_StallEP(pdev, 0x80U);
 8005f9c:	2180      	movs	r1, #128	@ 0x80
 8005f9e:	4628      	mov	r0, r5
 8005fa0:	f000 fb92 	bl	80066c8 <USBD_LL_StallEP>
  (void)USBD_LL_StallEP(pdev, 0U);
 8005fa4:	2100      	movs	r1, #0
 8005fa6:	4628      	mov	r0, r5
 8005fa8:	f000 fb8e 	bl	80066c8 <USBD_LL_StallEP>
}
 8005fac:	2000      	movs	r0, #0
 8005fae:	b003      	add	sp, #12
 8005fb0:	bd30      	pop	{r4, r5, pc}
      switch (req->bRequest)
 8005fb2:	7863      	ldrb	r3, [r4, #1]
 8005fb4:	2b01      	cmp	r3, #1
 8005fb6:	d02b      	beq.n	8006010 <USBD_StdEPReq+0x90>
 8005fb8:	2b03      	cmp	r3, #3
 8005fba:	d04c      	beq.n	8006056 <USBD_StdEPReq+0xd6>
 8005fbc:	2b00      	cmp	r3, #0
 8005fbe:	d1ed      	bne.n	8005f9c <USBD_StdEPReq+0x1c>
          switch (pdev->dev_state)
 8005fc0:	f890 329c 	ldrb.w	r3, [r0, #668]	@ 0x29c
 8005fc4:	2b02      	cmp	r3, #2
 8005fc6:	b2d8      	uxtb	r0, r3
 8005fc8:	d05f      	beq.n	800608a <USBD_StdEPReq+0x10a>
 8005fca:	2803      	cmp	r0, #3
 8005fcc:	d1e6      	bne.n	8005f9c <USBD_StdEPReq+0x1c>
                if (pdev->ep_in[ep_addr & 0xFU].is_used == 0U)
 8005fce:	f001 030f 	and.w	r3, r1, #15
 8005fd2:	eb03 0383 	add.w	r3, r3, r3, lsl #2
              if ((ep_addr & 0x80U) == 0x80U)
 8005fd6:	0612      	lsls	r2, r2, #24
                if (pdev->ep_in[ep_addr & 0xFU].is_used == 0U)
 8005fd8:	eb05 0383 	add.w	r3, r5, r3, lsl #2
              if ((ep_addr & 0x80U) == 0x80U)
 8005fdc:	d465      	bmi.n	80060aa <USBD_StdEPReq+0x12a>
                if (pdev->ep_out[ep_addr & 0xFU].is_used == 0U)
 8005fde:	f893 3163 	ldrb.w	r3, [r3, #355]	@ 0x163
 8005fe2:	2b00      	cmp	r3, #0
 8005fe4:	d0da      	beq.n	8005f9c <USBD_StdEPReq+0x1c>
              pep = ((ep_addr & 0x80U) == 0x80U) ? &pdev->ep_in[ep_addr & 0x7FU] : \
 8005fe6:	2414      	movs	r4, #20
 8005fe8:	fb04 5401 	mla	r4, r4, r1, r5
 8005fec:	f504 74aa 	add.w	r4, r4, #340	@ 0x154
              if ((ep_addr == 0x00U) || (ep_addr == 0x80U))
 8005ff0:	2900      	cmp	r1, #0
 8005ff2:	d068      	beq.n	80060c6 <USBD_StdEPReq+0x146>
              else if (USBD_LL_IsStallEP(pdev, ep_addr) != 0U)
 8005ff4:	4628      	mov	r0, r5
 8005ff6:	f000 fb7f 	bl	80066f8 <USBD_LL_IsStallEP>
 8005ffa:	2800      	cmp	r0, #0
 8005ffc:	d06b      	beq.n	80060d6 <USBD_StdEPReq+0x156>
                pep->status = 0x0001U;
 8005ffe:	2301      	movs	r3, #1
 8006000:	73a3      	strb	r3, [r4, #14]
              (void)USBD_CtlSendData(pdev, (uint8_t *)&pep->status, 2U);
 8006002:	2202      	movs	r2, #2
 8006004:	f104 010e 	add.w	r1, r4, #14
 8006008:	4628      	mov	r0, r5
 800600a:	f000 f8af 	bl	800616c <USBD_CtlSendData>
              break;
 800600e:	e7cd      	b.n	8005fac <USBD_StdEPReq+0x2c>
          switch (pdev->dev_state)
 8006010:	f890 329c 	ldrb.w	r3, [r0, #668]	@ 0x29c
 8006014:	2b02      	cmp	r3, #2
 8006016:	b2da      	uxtb	r2, r3
 8006018:	d02e      	beq.n	8006078 <USBD_StdEPReq+0xf8>
 800601a:	2a03      	cmp	r2, #3
 800601c:	d1be      	bne.n	8005f9c <USBD_StdEPReq+0x1c>
              if (req->wValue == USB_FEATURE_EP_HALT)
 800601e:	8863      	ldrh	r3, [r4, #2]
 8006020:	2b00      	cmp	r3, #0
 8006022:	d1c3      	bne.n	8005fac <USBD_StdEPReq+0x2c>
                if ((ep_addr & 0x7FU) != 0x00U)
 8006024:	064b      	lsls	r3, r1, #25
 8006026:	d151      	bne.n	80060cc <USBD_StdEPReq+0x14c>
                (void)USBD_CtlSendStatus(pdev);
 8006028:	4628      	mov	r0, r5
 800602a:	9101      	str	r1, [sp, #4]
 800602c:	f000 f8cc 	bl	80061c8 <USBD_CtlSendStatus>
                idx = USBD_CoreFindEP(pdev, ep_addr);
 8006030:	9901      	ldr	r1, [sp, #4]
 8006032:	4628      	mov	r0, r5
 8006034:	f7ff fdb0 	bl	8005b98 <USBD_CoreFindEP>
                if (((uint8_t)idx != 0xFFU) && (idx < USBD_MAX_SUPPORTED_CLASS))
 8006038:	2800      	cmp	r0, #0
 800603a:	d1b7      	bne.n	8005fac <USBD_StdEPReq+0x2c>
                  if (pdev->pClass[idx]->Setup != NULL)
 800603c:	f8d5 32b8 	ldr.w	r3, [r5, #696]	@ 0x2b8
                  pdev->classId = idx;
 8006040:	f8c5 02d4 	str.w	r0, [r5, #724]	@ 0x2d4
                  if (pdev->pClass[idx]->Setup != NULL)
 8006044:	689b      	ldr	r3, [r3, #8]
 8006046:	2b00      	cmp	r3, #0
 8006048:	d0b0      	beq.n	8005fac <USBD_StdEPReq+0x2c>
                    ret = (USBD_StatusTypeDef)(pdev->pClass[idx]->Setup(pdev, req));
 800604a:	4621      	mov	r1, r4
 800604c:	4628      	mov	r0, r5
}
 800604e:	b003      	add	sp, #12
 8006050:	e8bd 4030 	ldmia.w	sp!, {r4, r5, lr}
                    ret = (USBD_StatusTypeDef)(pdev->pClass[idx]->Setup(pdev, req));
 8006054:	4718      	bx	r3
          switch (pdev->dev_state)
 8006056:	f890 329c 	ldrb.w	r3, [r0, #668]	@ 0x29c
 800605a:	2b02      	cmp	r3, #2
 800605c:	b2da      	uxtb	r2, r3
 800605e:	d00b      	beq.n	8006078 <USBD_StdEPReq+0xf8>
 8006060:	2a03      	cmp	r2, #3
 8006062:	d19b      	bne.n	8005f9c <USBD_StdEPReq+0x1c>
              if (req->wValue == USB_FEATURE_EP_HALT)
 8006064:	8863      	ldrh	r3, [r4, #2]
 8006066:	b91b      	cbnz	r3, 8006070 <USBD_StdEPReq+0xf0>
                if ((ep_addr != 0x00U) && (ep_addr != 0x80U) && (req->wLength == 0x00U))
 8006068:	0648      	lsls	r0, r1, #25
 800606a:	d001      	beq.n	8006070 <USBD_StdEPReq+0xf0>
 800606c:	88e3      	ldrh	r3, [r4, #6]
 800606e:	b3a3      	cbz	r3, 80060da <USBD_StdEPReq+0x15a>
              (void)USBD_CtlSendStatus(pdev);
 8006070:	4628      	mov	r0, r5
 8006072:	f000 f8a9 	bl	80061c8 <USBD_CtlSendStatus>
              break;
 8006076:	e799      	b.n	8005fac <USBD_StdEPReq+0x2c>
              if ((ep_addr != 0x00U) && (ep_addr != 0x80U))
 8006078:	064a      	lsls	r2, r1, #25
 800607a:	d08f      	beq.n	8005f9c <USBD_StdEPReq+0x1c>
                (void)USBD_LL_StallEP(pdev, ep_addr);
 800607c:	f000 fb24 	bl	80066c8 <USBD_LL_StallEP>
                (void)USBD_LL_StallEP(pdev, 0x80U);
 8006080:	2180      	movs	r1, #128	@ 0x80
 8006082:	4628      	mov	r0, r5
 8006084:	f000 fb20 	bl	80066c8 <USBD_LL_StallEP>
 8006088:	e790      	b.n	8005fac <USBD_StdEPReq+0x2c>
              if ((ep_addr != 0x00U) && (ep_addr != 0x80U))
 800608a:	0648      	lsls	r0, r1, #25
 800608c:	d186      	bne.n	8005f9c <USBD_StdEPReq+0x1c>
              pep = ((ep_addr & 0x80U) == 0x80U) ? &pdev->ep_in[ep_addr & 0x7FU] : \
 800608e:	0611      	lsls	r1, r2, #24
 8006090:	bf4c      	ite	mi
 8006092:	f105 0114 	addmi.w	r1, r5, #20
 8006096:	f505 71aa 	addpl.w	r1, r5, #340	@ 0x154
              pep->status = 0x0000U;
 800609a:	2300      	movs	r3, #0
 800609c:	f801 3f0e 	strb.w	r3, [r1, #14]!
              (void)USBD_CtlSendData(pdev, (uint8_t *)&pep->status, 2U);
 80060a0:	2202      	movs	r2, #2
 80060a2:	4628      	mov	r0, r5
 80060a4:	f000 f862 	bl	800616c <USBD_CtlSendData>
              break;
 80060a8:	e780      	b.n	8005fac <USBD_StdEPReq+0x2c>
                if (pdev->ep_in[ep_addr & 0xFU].is_used == 0U)
 80060aa:	f893 3023 	ldrb.w	r3, [r3, #35]	@ 0x23
 80060ae:	2b00      	cmp	r3, #0
 80060b0:	f43f af74 	beq.w	8005f9c <USBD_StdEPReq+0x1c>
              pep = ((ep_addr & 0x80U) == 0x80U) ? &pdev->ep_in[ep_addr & 0x7FU] : \
 80060b4:	f001 047f 	and.w	r4, r1, #127	@ 0x7f
 80060b8:	3401      	adds	r4, #1
 80060ba:	eb04 0484 	add.w	r4, r4, r4, lsl #2
              if ((ep_addr == 0x00U) || (ep_addr == 0x80U))
 80060be:	2980      	cmp	r1, #128	@ 0x80
              pep = ((ep_addr & 0x80U) == 0x80U) ? &pdev->ep_in[ep_addr & 0x7FU] : \
 80060c0:	eb05 0484 	add.w	r4, r5, r4, lsl #2
              if ((ep_addr == 0x00U) || (ep_addr == 0x80U))
 80060c4:	d196      	bne.n	8005ff4 <USBD_StdEPReq+0x74>
                pep->status = 0x0000U;
 80060c6:	2300      	movs	r3, #0
 80060c8:	73a3      	strb	r3, [r4, #14]
 80060ca:	e79a      	b.n	8006002 <USBD_StdEPReq+0x82>
                  (void)USBD_LL_ClearStallEP(pdev, ep_addr);
 80060cc:	9101      	str	r1, [sp, #4]
 80060ce:	f000 fb07 	bl	80066e0 <USBD_LL_ClearStallEP>
 80060d2:	9901      	ldr	r1, [sp, #4]
 80060d4:	e7a8      	b.n	8006028 <USBD_StdEPReq+0xa8>
                pep->status = 0x0000U;
 80060d6:	73a0      	strb	r0, [r4, #14]
 80060d8:	e793      	b.n	8006002 <USBD_StdEPReq+0x82>
                  (void)USBD_LL_StallEP(pdev, ep_addr);
 80060da:	4628      	mov	r0, r5
 80060dc:	f000 faf4 	bl	80066c8 <USBD_LL_StallEP>
 80060e0:	e7c6      	b.n	8006070 <USBD_StdEPReq+0xf0>
 80060e2:	bf00      	nop

080060e4 <USBD_ParseSetupRequest>:
  req->bmRequest = *(uint8_t *)(pbuff);
 80060e4:	780b      	ldrb	r3, [r1, #0]
 80060e6:	7003      	strb	r3, [r0, #0]
  req->bRequest = *(uint8_t *)(pbuff);
 80060e8:	784b      	ldrb	r3, [r1, #1]
 80060ea:	7043      	strb	r3, [r0, #1]
  req->wValue = SWAPBYTE(pbuff);
 80060ec:	884b      	ldrh	r3, [r1, #2]
 80060ee:	8043      	strh	r3, [r0, #2]
  req->wIndex = SWAPBYTE(pbuff);
 80060f0:	888b      	ldrh	r3, [r1, #4]
 80060f2:	8083      	strh	r3, [r0, #4]
  req->wLength = SWAPBYTE(pbuff);
 80060f4:	88cb      	ldrh	r3, [r1, #6]
 80060f6:	80c3      	strh	r3, [r0, #6]
}
 80060f8:	4770      	bx	lr
 80060fa:	bf00      	nop

080060fc <USBD_CtlError>:
{
 80060fc:	b510      	push	{r4, lr}
  (void)USBD_LL_StallEP(pdev, 0x80U);
 80060fe:	2180      	movs	r1, #128	@ 0x80
{
 8006100:	4604      	mov	r4, r0
  (void)USBD_LL_StallEP(pdev, 0x80U);
 8006102:	f000 fae1 	bl	80066c8 <USBD_LL_StallEP>
  (void)USBD_LL_StallEP(pdev, 0U);
 8006106:	4620      	mov	r0, r4
 8006108:	2100      	movs	r1, #0
}
 800610a:	e8bd 4010 	ldmia.w	sp!, {r4, lr}
  (void)USBD_LL_StallEP(pdev, 0U);
 800610e:	f000 badb 	b.w	80066c8 <USBD_LL_StallEP>
 8006112:	bf00      	nop

08006114 <USBD_GetString>:
void USBD_GetString(uint8_t *desc, uint8_t *unicode, uint16_t *len)
{
  uint8_t idx = 0U;
  uint8_t *pdesc;

  if (desc == NULL)
 8006114:	b330      	cbz	r0, 8006164 <USBD_GetString+0x50>
{
 8006116:	b570      	push	{r4, r5, r6, lr}
static uint8_t USBD_GetLen(uint8_t *buf)
{
  uint8_t  len = 0U;
  uint8_t *pbuff = buf;

  while (*pbuff != (uint8_t)'\0')
 8006118:	7803      	ldrb	r3, [r0, #0]
 800611a:	460e      	mov	r6, r1
 800611c:	4614      	mov	r4, r2
 800611e:	4605      	mov	r5, r0
 8006120:	b30b      	cbz	r3, 8006166 <USBD_GetString+0x52>
  uint8_t *pbuff = buf;
 8006122:	4603      	mov	r3, r0
  while (*pbuff != (uint8_t)'\0')
 8006124:	f813 1f01 	ldrb.w	r1, [r3, #1]!
 8006128:	2900      	cmp	r1, #0
 800612a:	d1fb      	bne.n	8006124 <USBD_GetString+0x10>
 800612c:	1c68      	adds	r0, r5, #1
 800612e:	f7fa f84b 	bl	80001c8 <strlen>
  *len = MIN(USBD_MAX_STR_DESC_SIZ, ((uint16_t)USBD_GetLen(pdesc) * 2U) + 2U);
 8006132:	1c43      	adds	r3, r0, #1
 8006134:	b2db      	uxtb	r3, r3
 8006136:	3301      	adds	r3, #1
 8006138:	005b      	lsls	r3, r3, #1
 800613a:	b2da      	uxtb	r2, r3
 800613c:	8023      	strh	r3, [r4, #0]
  unicode[idx] = USB_DESC_TYPE_STRING;
 800613e:	2303      	movs	r3, #3
  unicode[idx] = *(uint8_t *)len;
 8006140:	7032      	strb	r2, [r6, #0]
  unicode[idx] = USB_DESC_TYPE_STRING;
 8006142:	7073      	strb	r3, [r6, #1]
  while (*pdesc != (uint8_t)'\0')
 8006144:	782c      	ldrb	r4, [r5, #0]
 8006146:	b164      	cbz	r4, 8006162 <USBD_GetString+0x4e>
 8006148:	4628      	mov	r0, r5
  idx++;
 800614a:	2302      	movs	r3, #2
    unicode[idx] = 0U;
 800614c:	2100      	movs	r1, #0
    idx++;
 800614e:	1c5a      	adds	r2, r3, #1
    unicode[idx] = 0U;
 8006150:	b2d2      	uxtb	r2, r2
    unicode[idx] = *pdesc;
 8006152:	54f4      	strb	r4, [r6, r3]
    unicode[idx] = 0U;
 8006154:	54b1      	strb	r1, [r6, r2]
  while (*pdesc != (uint8_t)'\0')
 8006156:	f810 4f01 	ldrb.w	r4, [r0, #1]!
    idx++;
 800615a:	3302      	adds	r3, #2
 800615c:	b2db      	uxtb	r3, r3
  while (*pdesc != (uint8_t)'\0')
 800615e:	2c00      	cmp	r4, #0
 8006160:	d1f5      	bne.n	800614e <USBD_GetString+0x3a>
}
 8006162:	bd70      	pop	{r4, r5, r6, pc}
 8006164:	4770      	bx	lr
  while (*pbuff != (uint8_t)'\0')
 8006166:	2202      	movs	r2, #2
 8006168:	4613      	mov	r3, r2
 800616a:	e7e7      	b.n	800613c <USBD_GetString+0x28>

0800616c <USBD_CtlSendData>:
  * @param  len: length of data to be sent
  * @retval status
  */
USBD_StatusTypeDef USBD_CtlSendData(USBD_HandleTypeDef *pdev,
                                    uint8_t *pbuf, uint32_t len)
{
 800616c:	b508      	push	{r3, lr}
 800616e:	4613      	mov	r3, r2
 8006170:	460a      	mov	r2, r1
  /* Set EP0 State */
  pdev->ep0_state = USBD_EP0_DATA_IN;
 8006172:	2102      	movs	r1, #2
  pdev->ep_in[0].total_length = len;
 8006174:	e9c0 3305 	strd	r3, r3, [r0, #20]
  pdev->ep0_state = USBD_EP0_DATA_IN;
 8006178:	f8c0 1294 	str.w	r1, [r0, #660]	@ 0x294
  pdev->ep_in[0].pbuffer = pbuf;
 800617c:	6242      	str	r2, [r0, #36]	@ 0x24
#else
  pdev->ep_in[0].rem_length = len;
#endif /* USBD_AVOID_PACKET_SPLIT_MPS */

  /* Start the transfer */
  (void)USBD_LL_Transmit(pdev, 0x00U, pbuf, len);
 800617e:	2100      	movs	r1, #0
 8006180:	f000 fada 	bl	8006738 <USBD_LL_Transmit>

  return USBD_OK;
}
 8006184:	2000      	movs	r0, #0
 8006186:	bd08      	pop	{r3, pc}

08006188 <USBD_CtlContinueSendData>:
  * @param  len: length of data to be sent
  * @retval status
  */
USBD_StatusTypeDef USBD_CtlContinueSendData(USBD_HandleTypeDef *pdev,
                                            uint8_t *pbuf, uint32_t len)
{
 8006188:	b508      	push	{r3, lr}
 800618a:	4613      	mov	r3, r2
  /* Start the next transfer */
  (void)USBD_LL_Transmit(pdev, 0x00U, pbuf, len);
 800618c:	460a      	mov	r2, r1
 800618e:	2100      	movs	r1, #0
 8006190:	f000 fad2 	bl	8006738 <USBD_LL_Transmit>

  return USBD_OK;
}
 8006194:	2000      	movs	r0, #0
 8006196:	bd08      	pop	{r3, pc}

08006198 <USBD_CtlPrepareRx>:
  * @param  len: length of data to be received
  * @retval status
  */
USBD_StatusTypeDef USBD_CtlPrepareRx(USBD_HandleTypeDef *pdev,
                                     uint8_t *pbuf, uint32_t len)
{
 8006198:	b508      	push	{r3, lr}
 800619a:	4613      	mov	r3, r2
 800619c:	460a      	mov	r2, r1
  /* Set EP0 State */
  pdev->ep0_state = USBD_EP0_DATA_OUT;
 800619e:	2103      	movs	r1, #3
  pdev->ep_out[0].total_length = len;
 80061a0:	e9c0 3355 	strd	r3, r3, [r0, #340]	@ 0x154
  pdev->ep0_state = USBD_EP0_DATA_OUT;
 80061a4:	f8c0 1294 	str.w	r1, [r0, #660]	@ 0x294
  pdev->ep_out[0].pbuffer = pbuf;
 80061a8:	f8c0 2164 	str.w	r2, [r0, #356]	@ 0x164
#else
  pdev->ep_out[0].rem_length = len;
#endif /* USBD_AVOID_PACKET_SPLIT_MPS */

  /* Start the transfer */
  (void)USBD_LL_PrepareReceive(pdev, 0U, pbuf, len);
 80061ac:	2100      	movs	r1, #0
 80061ae:	f000 facf 	bl	8006750 <USBD_LL_PrepareReceive>

  return USBD_OK;
}
 80061b2:	2000      	movs	r0, #0
 80061b4:	bd08      	pop	{r3, pc}
 80061b6:	bf00      	nop

080061b8 <USBD_CtlContinueRx>:
  * @param  len: length of data to be received
  * @retval status
  */
USBD_StatusTypeDef USBD_CtlContinueRx(USBD_HandleTypeDef *pdev,
                                      uint8_t *pbuf, uint32_t len)
{
 80061b8:	b508      	push	{r3, lr}
 80061ba:	4613      	mov	r3, r2
  (void)USBD_LL_PrepareReceive(pdev, 0U, pbuf, len);
 80061bc:	460a      	mov	r2, r1
 80061be:	2100      	movs	r1, #0
 80061c0:	f000 fac6 	bl	8006750 <USBD_LL_PrepareReceive>

  return USBD_OK;
}
 80061c4:	2000      	movs	r0, #0
 80061c6:	bd08      	pop	{r3, pc}

080061c8 <USBD_CtlSendStatus>:
  *         send zero lzngth packet on the ctl pipe
  * @param  pdev: device instance
  * @retval status
  */
USBD_StatusTypeDef USBD_CtlSendStatus(USBD_HandleTypeDef *pdev)
{
 80061c8:	b508      	push	{r3, lr}
  /* Set EP0 State */
  pdev->ep0_state = USBD_EP0_STATUS_IN;
 80061ca:	2104      	movs	r1, #4

  /* Start the transfer */
  (void)USBD_LL_Transmit(pdev, 0x00U, NULL, 0U);
 80061cc:	2300      	movs	r3, #0
  pdev->ep0_state = USBD_EP0_STATUS_IN;
 80061ce:	f8c0 1294 	str.w	r1, [r0, #660]	@ 0x294
  (void)USBD_LL_Transmit(pdev, 0x00U, NULL, 0U);
 80061d2:	461a      	mov	r2, r3
 80061d4:	4619      	mov	r1, r3
 80061d6:	f000 faaf 	bl	8006738 <USBD_LL_Transmit>

  return USBD_OK;
}
 80061da:	2000      	movs	r0, #0
 80061dc:	bd08      	pop	{r3, pc}
 80061de:	bf00      	nop

080061e0 <USBD_CtlReceiveStatus>:
  *         receive zero lzngth packet on the ctl pipe
  * @param  pdev: device instance
  * @retval status
  */
USBD_StatusTypeDef USBD_CtlReceiveStatus(USBD_HandleTypeDef *pdev)
{
 80061e0:	b508      	push	{r3, lr}
  /* Set EP0 State */
  pdev->ep0_state = USBD_EP0_STATUS_OUT;
 80061e2:	2105      	movs	r1, #5

  /* Start the transfer */
  (void)USBD_LL_PrepareReceive(pdev, 0U, NULL, 0U);
 80061e4:	2300      	movs	r3, #0
  pdev->ep0_state = USBD_EP0_STATUS_OUT;
 80061e6:	f8c0 1294 	str.w	r1, [r0, #660]	@ 0x294
  (void)USBD_LL_PrepareReceive(pdev, 0U, NULL, 0U);
 80061ea:	461a      	mov	r2, r3
 80061ec:	4619      	mov	r1, r3
 80061ee:	f000 faaf 	bl	8006750 <USBD_LL_PrepareReceive>

  return USBD_OK;
}
 80061f2:	2000      	movs	r0, #0
 80061f4:	bd08      	pop	{r3, pc}
 80061f6:	bf00      	nop

080061f8 <MX_USB_DEVICE_Init>:
/**
  * Init USB device Library, add supported class and start the library
  * @retval None
  */
void MX_USB_DEVICE_Init(void)
{
 80061f8:	b508      	push	{r3, lr}
  /* USER CODE BEGIN USB_DEVICE_Init_PreTreatment */

  /* USER CODE END USB_DEVICE_Init_PreTreatment */

  /* Init Device Library, add supported class and start the library. */
  if (USBD_Init(&hUsbDeviceFS, &FS_Desc, DEVICE_FS) != USBD_OK)
 80061fa:	4918      	ldr	r1, [pc, #96]	@ (800625c <MX_USB_DEVICE_Init+0x64>)
 80061fc:	4818      	ldr	r0, [pc, #96]	@ (8006260 <MX_USB_DEVICE_Init+0x68>)
 80061fe:	2200      	movs	r2, #0
 8006200:	f7ff fb1e 	bl	8005840 <USBD_Init>
 8006204:	b970      	cbnz	r0, 8006224 <MX_USB_DEVICE_Init+0x2c>
  {
    Error_Handler();
  }
  if (USBD_RegisterClass(&hUsbDeviceFS, &USBD_AUDIO) != USBD_OK)
 8006206:	4917      	ldr	r1, [pc, #92]	@ (8006264 <MX_USB_DEVICE_Init+0x6c>)
 8006208:	4815      	ldr	r0, [pc, #84]	@ (8006260 <MX_USB_DEVICE_Init+0x68>)
 800620a:	f7ff fb2d 	bl	8005868 <USBD_RegisterClass>
 800620e:	b988      	cbnz	r0, 8006234 <MX_USB_DEVICE_Init+0x3c>
  {
    Error_Handler();
  }
  if (USBD_AUDIO_RegisterInterface(&hUsbDeviceFS, &USBD_AUDIO_fops_FS) != USBD_OK)
 8006210:	4915      	ldr	r1, [pc, #84]	@ (8006268 <MX_USB_DEVICE_Init+0x70>)
 8006212:	4813      	ldr	r0, [pc, #76]	@ (8006260 <MX_USB_DEVICE_Init+0x68>)
 8006214:	f7ff fb08 	bl	8005828 <USBD_AUDIO_RegisterInterface>
 8006218:	b9a0      	cbnz	r0, 8006244 <MX_USB_DEVICE_Init+0x4c>
  {
    Error_Handler();
  }
  if (USBD_Start(&hUsbDeviceFS) != USBD_OK)
 800621a:	4811      	ldr	r0, [pc, #68]	@ (8006260 <MX_USB_DEVICE_Init+0x68>)
 800621c:	f7ff fb40 	bl	80058a0 <USBD_Start>
 8006220:	b9b8      	cbnz	r0, 8006252 <MX_USB_DEVICE_Init+0x5a>
  }

  /* USER CODE BEGIN USB_DEVICE_Init_PostTreatment */

  /* USER CODE END USB_DEVICE_Init_PostTreatment */
}
 8006222:	bd08      	pop	{r3, pc}
    Error_Handler();
 8006224:	f7fb fafa 	bl	800181c <Error_Handler>
  if (USBD_RegisterClass(&hUsbDeviceFS, &USBD_AUDIO) != USBD_OK)
 8006228:	490e      	ldr	r1, [pc, #56]	@ (8006264 <MX_USB_DEVICE_Init+0x6c>)
 800622a:	480d      	ldr	r0, [pc, #52]	@ (8006260 <MX_USB_DEVICE_Init+0x68>)
 800622c:	f7ff fb1c 	bl	8005868 <USBD_RegisterClass>
 8006230:	2800      	cmp	r0, #0
 8006232:	d0ed      	beq.n	8006210 <MX_USB_DEVICE_Init+0x18>
    Error_Handler();
 8006234:	f7fb faf2 	bl	800181c <Error_Handler>
  if (USBD_AUDIO_RegisterInterface(&hUsbDeviceFS, &USBD_AUDIO_fops_FS) != USBD_OK)
 8006238:	490b      	ldr	r1, [pc, #44]	@ (8006268 <MX_USB_DEVICE_Init+0x70>)
 800623a:	4809      	ldr	r0, [pc, #36]	@ (8006260 <MX_USB_DEVICE_Init+0x68>)
 800623c:	f7ff faf4 	bl	8005828 <USBD_AUDIO_RegisterInterface>
 8006240:	2800      	cmp	r0, #0
 8006242:	d0ea      	beq.n	800621a <MX_USB_DEVICE_Init+0x22>
    Error_Handler();
 8006244:	f7fb faea 	bl	800181c <Error_Handler>
  if (USBD_Start(&hUsbDeviceFS) != USBD_OK)
 8006248:	4805      	ldr	r0, [pc, #20]	@ (8006260 <MX_USB_DEVICE_Init+0x68>)
 800624a:	f7ff fb29 	bl	80058a0 <USBD_Start>
 800624e:	2800      	cmp	r0, #0
 8006250:	d0e7      	beq.n	8006222 <MX_USB_DEVICE_Init+0x2a>
}
 8006252:	e8bd 4008 	ldmia.w	sp!, {r3, lr}
    Error_Handler();
 8006256:	f7fb bae1 	b.w	800181c <Error_Handler>
 800625a:	bf00      	nop
 800625c:	20000118 	.word	0x20000118
 8006260:	20018690 	.word	0x20018690
 8006264:	20000090 	.word	0x20000090
 8006268:	200000c8 	.word	0x200000c8

0800626c <AUDIO_DeInit_FS>:
{
  /* USER CODE BEGIN 1 */
  UNUSED(options);

  // BSP_AUDIO_OUT_Stop(CODEC_PDWN_SW); // SİLİNDİ
  current_audio_state = AUDIO_STATE_STOPPED;
 800626c:	4b01      	ldr	r3, [pc, #4]	@ (8006274 <AUDIO_DeInit_FS+0x8>)
 800626e:	2000      	movs	r0, #0
 8006270:	7018      	strb	r0, [r3, #0]

  return (USBD_OK);
  /* USER CODE END 1 */
}
 8006272:	4770      	bx	lr
 8006274:	2001896c 	.word	0x2001896c

08006278 <AUDIO_VolumeCtl_FS>:
{
  /* USER CODE BEGIN 3 */
  // BSP_AUDIO_OUT_SetVolume(vol); // MAX98357'de yazılımsal gain yoktur.
  return (USBD_OK);
  /* USER CODE END 3 */
}
 8006278:	2000      	movs	r0, #0
 800627a:	4770      	bx	lr

0800627c <AUDIO_GetState_FS>:
static int8_t AUDIO_GetState_FS(void)
{
  /* USER CODE BEGIN 6 */
  return (USBD_OK);
  /* USER CODE END 6 */
}
 800627c:	2000      	movs	r0, #0
 800627e:	4770      	bx	lr

08006280 <AUDIO_Init_FS>:
{
 8006280:	b508      	push	{r3, lr}
  AudioStream_Init();
 8006282:	f7fa fa75 	bl	8000770 <AudioStream_Init>
  current_audio_state = AUDIO_STATE_STOPPED;
 8006286:	4b02      	ldr	r3, [pc, #8]	@ (8006290 <AUDIO_Init_FS+0x10>)
 8006288:	2000      	movs	r0, #0
 800628a:	7018      	strb	r0, [r3, #0]
}
 800628c:	bd08      	pop	{r3, pc}
 800628e:	bf00      	nop
 8006290:	2001896c 	.word	0x2001896c

08006294 <AUDIO_PeriodicTC_FS>:
{
 8006294:	b510      	push	{r4, lr}
  if (current_audio_state == AUDIO_STATE_STOPPED) {
 8006296:	4c08      	ldr	r4, [pc, #32]	@ (80062b8 <AUDIO_PeriodicTC_FS+0x24>)
 8006298:	7823      	ldrb	r3, [r4, #0]
 800629a:	b90b      	cbnz	r3, 80062a0 <AUDIO_PeriodicTC_FS+0xc>
}
 800629c:	2000      	movs	r0, #0
 800629e:	bd10      	pop	{r4, pc}
  AudioStream_Write_USB_Packet(pbuf, size);
 80062a0:	f7fa fab0 	bl	8000804 <AudioStream_Write_USB_Packet>
  if (current_audio_state == AUDIO_STATE_BUFFERING)
 80062a4:	7823      	ldrb	r3, [r4, #0]
 80062a6:	2b01      	cmp	r3, #1
 80062a8:	d1f8      	bne.n	800629c <AUDIO_PeriodicTC_FS+0x8>
      if (AudioStream_Is_Ready_To_Play())
 80062aa:	f7fa facf 	bl	800084c <AudioStream_Is_Ready_To_Play>
 80062ae:	2800      	cmp	r0, #0
 80062b0:	d0f4      	beq.n	800629c <AUDIO_PeriodicTC_FS+0x8>
          current_audio_state = AUDIO_STATE_PLAYING;
 80062b2:	2302      	movs	r3, #2
 80062b4:	7023      	strb	r3, [r4, #0]
 80062b6:	e7f1      	b.n	800629c <AUDIO_PeriodicTC_FS+0x8>
 80062b8:	2001896c 	.word	0x2001896c

080062bc <AUDIO_AudioCmd_FS>:
  switch(cmd)
 80062bc:	2a02      	cmp	r2, #2
{
 80062be:	b510      	push	{r4, lr}
  switch(cmd)
 80062c0:	d00f      	beq.n	80062e2 <AUDIO_AudioCmd_FS+0x26>
 80062c2:	2a03      	cmp	r2, #3
 80062c4:	4614      	mov	r4, r2
 80062c6:	d007      	beq.n	80062d8 <AUDIO_AudioCmd_FS+0x1c>
 80062c8:	2a01      	cmp	r2, #1
 80062ca:	d103      	bne.n	80062d4 <AUDIO_AudioCmd_FS+0x18>
      AudioStream_Reset();
 80062cc:	f7fa fa7a 	bl	80007c4 <AudioStream_Reset>
      current_audio_state = AUDIO_STATE_BUFFERING;
 80062d0:	4b08      	ldr	r3, [pc, #32]	@ (80062f4 <AUDIO_AudioCmd_FS+0x38>)
 80062d2:	701c      	strb	r4, [r3, #0]
}
 80062d4:	2000      	movs	r0, #0
 80062d6:	bd10      	pop	{r4, pc}
      current_audio_state = AUDIO_STATE_STOPPED;
 80062d8:	4b06      	ldr	r3, [pc, #24]	@ (80062f4 <AUDIO_AudioCmd_FS+0x38>)
 80062da:	2200      	movs	r2, #0
 80062dc:	701a      	strb	r2, [r3, #0]
}
 80062de:	2000      	movs	r0, #0
 80062e0:	bd10      	pop	{r4, pc}
      if(current_audio_state == AUDIO_STATE_STOPPED) {
 80062e2:	4c04      	ldr	r4, [pc, #16]	@ (80062f4 <AUDIO_AudioCmd_FS+0x38>)
 80062e4:	7823      	ldrb	r3, [r4, #0]
 80062e6:	2b00      	cmp	r3, #0
 80062e8:	d1f4      	bne.n	80062d4 <AUDIO_AudioCmd_FS+0x18>
          AudioStream_Reset();
 80062ea:	f7fa fa6b 	bl	80007c4 <AudioStream_Reset>
          current_audio_state = AUDIO_STATE_BUFFERING;
 80062ee:	2301      	movs	r3, #1
 80062f0:	7023      	strb	r3, [r4, #0]
 80062f2:	e7ef      	b.n	80062d4 <AUDIO_AudioCmd_FS+0x18>
 80062f4:	2001896c 	.word	0x2001896c

080062f8 <AUDIO_MuteCtl_FS>:
static int8_t AUDIO_MuteCtl_FS(uint8_t cmd)
 80062f8:	2000      	movs	r0, #0
 80062fa:	4770      	bx	lr

080062fc <USBD_FS_DeviceDescriptor>:
  * @retval Pointer to descriptor buffer
  */
uint8_t * USBD_FS_DeviceDescriptor(USBD_SpeedTypeDef speed, uint16_t *length)
{
  UNUSED(speed);
  *length = sizeof(USBD_FS_DeviceDesc);
 80062fc:	2312      	movs	r3, #18
  return USBD_FS_DeviceDesc;
}
 80062fe:	4801      	ldr	r0, [pc, #4]	@ (8006304 <USBD_FS_DeviceDescriptor+0x8>)
  *length = sizeof(USBD_FS_DeviceDesc);
 8006300:	800b      	strh	r3, [r1, #0]
}
 8006302:	4770      	bx	lr
 8006304:	20000104 	.word	0x20000104

08006308 <USBD_FS_LangIDStrDescriptor>:
  * @retval Pointer to descriptor buffer
  */
uint8_t * USBD_FS_LangIDStrDescriptor(USBD_SpeedTypeDef speed, uint16_t *length)
{
  UNUSED(speed);
  *length = sizeof(USBD_LangIDDesc);
 8006308:	2304      	movs	r3, #4
  return USBD_LangIDDesc;
}
 800630a:	4801      	ldr	r0, [pc, #4]	@ (8006310 <USBD_FS_LangIDStrDescriptor+0x8>)
  *length = sizeof(USBD_LangIDDesc);
 800630c:	800b      	strh	r3, [r1, #0]
}
 800630e:	4770      	bx	lr
 8006310:	20000100 	.word	0x20000100

08006314 <USBD_FS_ManufacturerStrDescriptor>:
  * @param  speed : Current device speed
  * @param  length : Pointer to data length variable
  * @retval Pointer to descriptor buffer
  */
uint8_t * USBD_FS_ManufacturerStrDescriptor(USBD_SpeedTypeDef speed, uint16_t *length)
{
 8006314:	b510      	push	{r4, lr}
  UNUSED(speed);
  USBD_GetString((uint8_t *)USBD_MANUFACTURER_STRING, USBD_StrDesc, length);
 8006316:	4c04      	ldr	r4, [pc, #16]	@ (8006328 <USBD_FS_ManufacturerStrDescriptor+0x14>)
 8006318:	4804      	ldr	r0, [pc, #16]	@ (800632c <USBD_FS_ManufacturerStrDescriptor+0x18>)
{
 800631a:	460a      	mov	r2, r1
  USBD_GetString((uint8_t *)USBD_MANUFACTURER_STRING, USBD_StrDesc, length);
 800631c:	4621      	mov	r1, r4
 800631e:	f7ff fef9 	bl	8006114 <USBD_GetString>
  return USBD_StrDesc;
}
 8006322:	4620      	mov	r0, r4
 8006324:	bd10      	pop	{r4, pc}
 8006326:	bf00      	nop
 8006328:	20018970 	.word	0x20018970
 800632c:	080079e8 	.word	0x080079e8

08006330 <USBD_FS_ProductStrDescriptor>:
{
 8006330:	b510      	push	{r4, lr}
    USBD_GetString((uint8_t *)USBD_PRODUCT_STRING_FS, USBD_StrDesc, length);
 8006332:	4c04      	ldr	r4, [pc, #16]	@ (8006344 <USBD_FS_ProductStrDescriptor+0x14>)
 8006334:	4804      	ldr	r0, [pc, #16]	@ (8006348 <USBD_FS_ProductStrDescriptor+0x18>)
{
 8006336:	460a      	mov	r2, r1
    USBD_GetString((uint8_t *)USBD_PRODUCT_STRING_FS, USBD_StrDesc, length);
 8006338:	4621      	mov	r1, r4
 800633a:	f7ff feeb 	bl	8006114 <USBD_GetString>
}
 800633e:	4620      	mov	r0, r4
 8006340:	bd10      	pop	{r4, pc}
 8006342:	bf00      	nop
 8006344:	20018970 	.word	0x20018970
 8006348:	080079fc 	.word	0x080079fc

0800634c <USBD_FS_ConfigStrDescriptor>:
  * @param  speed : Current device speed
  * @param  length : Pointer to data length variable
  * @retval Pointer to descriptor buffer
  */
uint8_t * USBD_FS_ConfigStrDescriptor(USBD_SpeedTypeDef speed, uint16_t *length)
{
 800634c:	b510      	push	{r4, lr}
  if(speed == USBD_SPEED_HIGH)
  {
    USBD_GetString((uint8_t *)USBD_CONFIGURATION_STRING_FS, USBD_StrDesc, length);
 800634e:	4c04      	ldr	r4, [pc, #16]	@ (8006360 <USBD_FS_ConfigStrDescriptor+0x14>)
 8006350:	4804      	ldr	r0, [pc, #16]	@ (8006364 <USBD_FS_ConfigStrDescriptor+0x18>)
{
 8006352:	460a      	mov	r2, r1
    USBD_GetString((uint8_t *)USBD_CONFIGURATION_STRING_FS, USBD_StrDesc, length);
 8006354:	4621      	mov	r1, r4
 8006356:	f7ff fedd 	bl	8006114 <USBD_GetString>
  else
  {
    USBD_GetString((uint8_t *)USBD_CONFIGURATION_STRING_FS, USBD_StrDesc, length);
  }
  return USBD_StrDesc;
}
 800635a:	4620      	mov	r0, r4
 800635c:	bd10      	pop	{r4, pc}
 800635e:	bf00      	nop
 8006360:	20018970 	.word	0x20018970
 8006364:	08007a10 	.word	0x08007a10

08006368 <USBD_FS_InterfaceStrDescriptor>:
  * @param  speed : Current device speed
  * @param  length : Pointer to data length variable
  * @retval Pointer to descriptor buffer
  */
uint8_t * USBD_FS_InterfaceStrDescriptor(USBD_SpeedTypeDef speed, uint16_t *length)
{
 8006368:	b510      	push	{r4, lr}
  if(speed == 0)
  {
    USBD_GetString((uint8_t *)USBD_INTERFACE_STRING_FS, USBD_StrDesc, length);
 800636a:	4c04      	ldr	r4, [pc, #16]	@ (800637c <USBD_FS_InterfaceStrDescriptor+0x14>)
 800636c:	4804      	ldr	r0, [pc, #16]	@ (8006380 <USBD_FS_InterfaceStrDescriptor+0x18>)
{
 800636e:	460a      	mov	r2, r1
    USBD_GetString((uint8_t *)USBD_INTERFACE_STRING_FS, USBD_StrDesc, length);
 8006370:	4621      	mov	r1, r4
 8006372:	f7ff fecf 	bl	8006114 <USBD_GetString>
  else
  {
    USBD_GetString((uint8_t *)USBD_INTERFACE_STRING_FS, USBD_StrDesc, length);
  }
  return USBD_StrDesc;
}
 8006376:	4620      	mov	r0, r4
 8006378:	bd10      	pop	{r4, pc}
 800637a:	bf00      	nop
 800637c:	20018970 	.word	0x20018970
 8006380:	08007a20 	.word	0x08007a20

08006384 <USBD_FS_SerialStrDescriptor>:
{
  uint32_t deviceserial0;
  uint32_t deviceserial1;
  uint32_t deviceserial2;

  deviceserial0 = *(uint32_t *) DEVICE_ID1;
 8006384:	4a51      	ldr	r2, [pc, #324]	@ (80064cc <USBD_FS_SerialStrDescriptor+0x148>)
 8006386:	f8d2 3a10 	ldr.w	r3, [r2, #2576]	@ 0xa10
  deviceserial1 = *(uint32_t *) DEVICE_ID2;
  deviceserial2 = *(uint32_t *) DEVICE_ID3;

  deviceserial0 += deviceserial2;
 800638a:	f8d2 0a18 	ldr.w	r0, [r2, #2584]	@ 0xa18
  *length = USB_SIZ_STRING_SERIAL;
 800638e:	f04f 0c1a 	mov.w	ip, #26

  if (deviceserial0 != 0)
 8006392:	181b      	adds	r3, r3, r0
  *length = USB_SIZ_STRING_SERIAL;
 8006394:	f8a1 c000 	strh.w	ip, [r1]
  if (deviceserial0 != 0)
 8006398:	d101      	bne.n	800639e <USBD_FS_SerialStrDescriptor+0x1a>
}
 800639a:	484d      	ldr	r0, [pc, #308]	@ (80064d0 <USBD_FS_SerialStrDescriptor+0x14c>)
 800639c:	4770      	bx	lr
  deviceserial1 = *(uint32_t *) DEVICE_ID2;
 800639e:	f8d2 1a14 	ldr.w	r1, [r2, #2580]	@ 0xa14

  for (idx = 0; idx < len; idx++)
  {
    if (((value >> 28)) < 0xA)
    {
      pbuf[2 * idx] = (value >> 28) + '0';
 80063a2:	4a4b      	ldr	r2, [pc, #300]	@ (80064d0 <USBD_FS_SerialStrDescriptor+0x14c>)
 80063a4:	0f18      	lsrs	r0, r3, #28
    if (((value >> 28)) < 0xA)
 80063a6:	f1b3 4f20 	cmp.w	r3, #2684354560	@ 0xa0000000
      pbuf[2 * idx] = (value >> 28) + 'A' - 10;
    }

    value = value << 4;

    pbuf[2 * idx + 1] = 0;
 80063aa:	f04f 0c00 	mov.w	ip, #0
      pbuf[2 * idx] = (value >> 28) + 'A' - 10;
 80063ae:	bf2c      	ite	cs
 80063b0:	3037      	addcs	r0, #55	@ 0x37
      pbuf[2 * idx] = (value >> 28) + '0';
 80063b2:	3030      	addcc	r0, #48	@ 0x30
    pbuf[2 * idx + 1] = 0;
 80063b4:	f882 c003 	strb.w	ip, [r2, #3]
    if (((value >> 28)) < 0xA)
 80063b8:	f3c3 6c03 	ubfx	ip, r3, #24, #4
 80063bc:	f1bc 0f09 	cmp.w	ip, #9
      pbuf[2 * idx] = (value >> 28) + '0';
 80063c0:	7090      	strb	r0, [r2, #2]
 80063c2:	4660      	mov	r0, ip
    pbuf[2 * idx + 1] = 0;
 80063c4:	f04f 0c00 	mov.w	ip, #0
      pbuf[2 * idx] = (value >> 28) + 'A' - 10;
 80063c8:	bf8c      	ite	hi
 80063ca:	3037      	addhi	r0, #55	@ 0x37
      pbuf[2 * idx] = (value >> 28) + '0';
 80063cc:	3030      	addls	r0, #48	@ 0x30
    pbuf[2 * idx + 1] = 0;
 80063ce:	f882 c005 	strb.w	ip, [r2, #5]
    if (((value >> 28)) < 0xA)
 80063d2:	f3c3 5c03 	ubfx	ip, r3, #20, #4
 80063d6:	f1bc 0f09 	cmp.w	ip, #9
      pbuf[2 * idx] = (value >> 28) + '0';
 80063da:	7110      	strb	r0, [r2, #4]
 80063dc:	4660      	mov	r0, ip
    pbuf[2 * idx + 1] = 0;
 80063de:	f04f 0c00 	mov.w	ip, #0
      pbuf[2 * idx] = (value >> 28) + 'A' - 10;
 80063e2:	bf8c      	ite	hi
 80063e4:	3037      	addhi	r0, #55	@ 0x37
      pbuf[2 * idx] = (value >> 28) + '0';
 80063e6:	3030      	addls	r0, #48	@ 0x30
    pbuf[2 * idx + 1] = 0;
 80063e8:	f882 c007 	strb.w	ip, [r2, #7]
    if (((value >> 28)) < 0xA)
 80063ec:	f3c3 4c03 	ubfx	ip, r3, #16, #4
 80063f0:	f1bc 0f09 	cmp.w	ip, #9
      pbuf[2 * idx] = (value >> 28) + '0';
 80063f4:	7190      	strb	r0, [r2, #6]
 80063f6:	4660      	mov	r0, ip
    pbuf[2 * idx + 1] = 0;
 80063f8:	f04f 0c00 	mov.w	ip, #0
      pbuf[2 * idx] = (value >> 28) + 'A' - 10;
 80063fc:	bf8c      	ite	hi
 80063fe:	3037      	addhi	r0, #55	@ 0x37
      pbuf[2 * idx] = (value >> 28) + '0';
 8006400:	3030      	addls	r0, #48	@ 0x30
    pbuf[2 * idx + 1] = 0;
 8006402:	f882 c009 	strb.w	ip, [r2, #9]
    if (((value >> 28)) < 0xA)
 8006406:	f3c3 3c03 	ubfx	ip, r3, #12, #4
 800640a:	f1bc 0f09 	cmp.w	ip, #9
      pbuf[2 * idx] = (value >> 28) + '0';
 800640e:	7210      	strb	r0, [r2, #8]
 8006410:	4660      	mov	r0, ip
    pbuf[2 * idx + 1] = 0;
 8006412:	f04f 0c00 	mov.w	ip, #0
      pbuf[2 * idx] = (value >> 28) + 'A' - 10;
 8006416:	bf8c      	ite	hi
 8006418:	3037      	addhi	r0, #55	@ 0x37
      pbuf[2 * idx] = (value >> 28) + '0';
 800641a:	3030      	addls	r0, #48	@ 0x30
    pbuf[2 * idx + 1] = 0;
 800641c:	f882 c00b 	strb.w	ip, [r2, #11]
    if (((value >> 28)) < 0xA)
 8006420:	f3c3 2c03 	ubfx	ip, r3, #8, #4
 8006424:	f1bc 0f09 	cmp.w	ip, #9
      pbuf[2 * idx] = (value >> 28) + '0';
 8006428:	7290      	strb	r0, [r2, #10]
 800642a:	4660      	mov	r0, ip
    pbuf[2 * idx + 1] = 0;
 800642c:	f04f 0c00 	mov.w	ip, #0
      pbuf[2 * idx] = (value >> 28) + 'A' - 10;
 8006430:	bf8c      	ite	hi
 8006432:	3037      	addhi	r0, #55	@ 0x37
      pbuf[2 * idx] = (value >> 28) + '0';
 8006434:	3030      	addls	r0, #48	@ 0x30
    pbuf[2 * idx + 1] = 0;
 8006436:	f882 c00d 	strb.w	ip, [r2, #13]
    if (((value >> 28)) < 0xA)
 800643a:	f3c3 1c03 	ubfx	ip, r3, #4, #4
 800643e:	f1bc 0f09 	cmp.w	ip, #9
      pbuf[2 * idx] = (value >> 28) + '0';
 8006442:	7310      	strb	r0, [r2, #12]
 8006444:	4660      	mov	r0, ip
      pbuf[2 * idx] = (value >> 28) + 'A' - 10;
 8006446:	bf8c      	ite	hi
 8006448:	3037      	addhi	r0, #55	@ 0x37
      pbuf[2 * idx] = (value >> 28) + '0';
 800644a:	3030      	addls	r0, #48	@ 0x30
 800644c:	7390      	strb	r0, [r2, #14]
    if (((value >> 28)) < 0xA)
 800644e:	f003 000f 	and.w	r0, r3, #15
      pbuf[2 * idx] = (value >> 28) + '0';
 8006452:	4603      	mov	r3, r0
    if (((value >> 28)) < 0xA)
 8006454:	2809      	cmp	r0, #9
      pbuf[2 * idx] = (value >> 28) + '0';
 8006456:	bf94      	ite	ls
 8006458:	3330      	addls	r3, #48	@ 0x30
      pbuf[2 * idx] = (value >> 28) + 'A' - 10;
 800645a:	3337      	addhi	r3, #55	@ 0x37
    pbuf[2 * idx + 1] = 0;
 800645c:	2000      	movs	r0, #0
    if (((value >> 28)) < 0xA)
 800645e:	f1b1 4f20 	cmp.w	r1, #2684354560	@ 0xa0000000
      pbuf[2 * idx] = (value >> 28) + '0';
 8006462:	7413      	strb	r3, [r2, #16]
 8006464:	ea4f 7311 	mov.w	r3, r1, lsr #28
      pbuf[2 * idx] = (value >> 28) + 'A' - 10;
 8006468:	bf2c      	ite	cs
 800646a:	3337      	addcs	r3, #55	@ 0x37
      pbuf[2 * idx] = (value >> 28) + '0';
 800646c:	3330      	addcc	r3, #48	@ 0x30
    pbuf[2 * idx + 1] = 0;
 800646e:	7450      	strb	r0, [r2, #17]
    if (((value >> 28)) < 0xA)
 8006470:	f3c1 6003 	ubfx	r0, r1, #24, #4
 8006474:	2809      	cmp	r0, #9
      pbuf[2 * idx] = (value >> 28) + '0';
 8006476:	7493      	strb	r3, [r2, #18]
 8006478:	4603      	mov	r3, r0
      pbuf[2 * idx] = (value >> 28) + 'A' - 10;
 800647a:	bf8c      	ite	hi
 800647c:	3337      	addhi	r3, #55	@ 0x37
      pbuf[2 * idx] = (value >> 28) + '0';
 800647e:	3330      	addls	r3, #48	@ 0x30
    if (((value >> 28)) < 0xA)
 8006480:	f3c1 5003 	ubfx	r0, r1, #20, #4
 8006484:	2809      	cmp	r0, #9
    pbuf[2 * idx + 1] = 0;
 8006486:	f04f 0c00 	mov.w	ip, #0
      pbuf[2 * idx] = (value >> 28) + '0';
 800648a:	7513      	strb	r3, [r2, #20]
 800648c:	4603      	mov	r3, r0
      pbuf[2 * idx] = (value >> 28) + 'A' - 10;
 800648e:	bf8c      	ite	hi
 8006490:	3337      	addhi	r3, #55	@ 0x37
      pbuf[2 * idx] = (value >> 28) + '0';
 8006492:	3330      	addls	r3, #48	@ 0x30
    if (((value >> 28)) < 0xA)
 8006494:	f3c1 4003 	ubfx	r0, r1, #16, #4
    pbuf[2 * idx + 1] = 0;
 8006498:	f882 c00f 	strb.w	ip, [r2, #15]
 800649c:	f04f 0c00 	mov.w	ip, #0
    if (((value >> 28)) < 0xA)
 80064a0:	2809      	cmp	r0, #9
    pbuf[2 * idx + 1] = 0;
 80064a2:	f882 c013 	strb.w	ip, [r2, #19]
      pbuf[2 * idx] = (value >> 28) + '0';
 80064a6:	7593      	strb	r3, [r2, #22]
    pbuf[2 * idx + 1] = 0;
 80064a8:	f04f 0c00 	mov.w	ip, #0
      pbuf[2 * idx] = (value >> 28) + '0';
 80064ac:	4603      	mov	r3, r0
    pbuf[2 * idx + 1] = 0;
 80064ae:	f882 c015 	strb.w	ip, [r2, #21]
      pbuf[2 * idx] = (value >> 28) + '0';
 80064b2:	bf98      	it	ls
 80064b4:	3330      	addls	r3, #48	@ 0x30
    pbuf[2 * idx + 1] = 0;
 80064b6:	f04f 0c00 	mov.w	ip, #0
      pbuf[2 * idx] = (value >> 28) + 'A' - 10;
 80064ba:	bf88      	it	hi
 80064bc:	3337      	addhi	r3, #55	@ 0x37
    pbuf[2 * idx + 1] = 0;
 80064be:	2100      	movs	r1, #0
}
 80064c0:	4803      	ldr	r0, [pc, #12]	@ (80064d0 <USBD_FS_SerialStrDescriptor+0x14c>)
    pbuf[2 * idx + 1] = 0;
 80064c2:	f882 c017 	strb.w	ip, [r2, #23]
      pbuf[2 * idx] = (value >> 28) + '0';
 80064c6:	7613      	strb	r3, [r2, #24]
    pbuf[2 * idx + 1] = 0;
 80064c8:	7651      	strb	r1, [r2, #25]
}
 80064ca:	4770      	bx	lr
 80064cc:	1fff7000 	.word	0x1fff7000
 80064d0:	200000e4 	.word	0x200000e4

080064d4 <HAL_PCD_MspInit>:
                       LL Driver Callbacks (PCD -> USB Device Library)
*******************************************************************************/
/* MSP Init */

void HAL_PCD_MspInit(PCD_HandleTypeDef* pcdHandle)
{
 80064d4:	b530      	push	{r4, r5, lr}
  GPIO_InitTypeDef GPIO_InitStruct = {0};
  if(pcdHandle->Instance==USB_OTG_FS)
 80064d6:	6803      	ldr	r3, [r0, #0]
{
 80064d8:	b089      	sub	sp, #36	@ 0x24
  GPIO_InitTypeDef GPIO_InitStruct = {0};
 80064da:	2400      	movs	r4, #0
  if(pcdHandle->Instance==USB_OTG_FS)
 80064dc:	f1b3 4fa0 	cmp.w	r3, #1342177280	@ 0x50000000
  GPIO_InitTypeDef GPIO_InitStruct = {0};
 80064e0:	e9cd 4402 	strd	r4, r4, [sp, #8]
 80064e4:	e9cd 4404 	strd	r4, r4, [sp, #16]
 80064e8:	9406      	str	r4, [sp, #24]
  if(pcdHandle->Instance==USB_OTG_FS)
 80064ea:	d001      	beq.n	80064f0 <HAL_PCD_MspInit+0x1c>
    HAL_NVIC_EnableIRQ(OTG_FS_IRQn);
  /* USER CODE BEGIN USB_OTG_FS_MspInit 1 */

  /* USER CODE END USB_OTG_FS_MspInit 1 */
  }
}
 80064ec:	b009      	add	sp, #36	@ 0x24
 80064ee:	bd30      	pop	{r4, r5, pc}
    __HAL_RCC_GPIOA_CLK_ENABLE();
 80064f0:	4d17      	ldr	r5, [pc, #92]	@ (8006550 <HAL_PCD_MspInit+0x7c>)
 80064f2:	9400      	str	r4, [sp, #0]
 80064f4:	6b2b      	ldr	r3, [r5, #48]	@ 0x30
 80064f6:	f043 0301 	orr.w	r3, r3, #1
 80064fa:	632b      	str	r3, [r5, #48]	@ 0x30
 80064fc:	6b2b      	ldr	r3, [r5, #48]	@ 0x30
 80064fe:	f003 0301 	and.w	r3, r3, #1
 8006502:	9300      	str	r3, [sp, #0]
    GPIO_InitStruct.Pin = GPIO_PIN_11|GPIO_PIN_12;
 8006504:	f44f 52c0 	mov.w	r2, #6144	@ 0x1800
 8006508:	2302      	movs	r3, #2
 800650a:	e9cd 2302 	strd	r2, r3, [sp, #8]
    __HAL_RCC_GPIOA_CLK_ENABLE();
 800650e:	9800      	ldr	r0, [sp, #0]
    HAL_GPIO_Init(GPIOA, &GPIO_InitStruct);
 8006510:	4810      	ldr	r0, [pc, #64]	@ (8006554 <HAL_PCD_MspInit+0x80>)
 8006512:	a902      	add	r1, sp, #8
    GPIO_InitStruct.Speed = GPIO_SPEED_FREQ_VERY_HIGH;
 8006514:	2203      	movs	r2, #3
 8006516:	230a      	movs	r3, #10
 8006518:	e9cd 2305 	strd	r2, r3, [sp, #20]
    HAL_GPIO_Init(GPIOA, &GPIO_InitStruct);
 800651c:	f7fb ffb0 	bl	8002480 <HAL_GPIO_Init>
    __HAL_RCC_USB_OTG_FS_CLK_ENABLE();
 8006520:	6b6b      	ldr	r3, [r5, #52]	@ 0x34
 8006522:	f043 0380 	orr.w	r3, r3, #128	@ 0x80
 8006526:	636b      	str	r3, [r5, #52]	@ 0x34
 8006528:	9401      	str	r4, [sp, #4]
 800652a:	6c6b      	ldr	r3, [r5, #68]	@ 0x44
 800652c:	f443 4380 	orr.w	r3, r3, #16384	@ 0x4000
 8006530:	646b      	str	r3, [r5, #68]	@ 0x44
 8006532:	6c6b      	ldr	r3, [r5, #68]	@ 0x44
 8006534:	f403 4380 	and.w	r3, r3, #16384	@ 0x4000
    HAL_NVIC_SetPriority(OTG_FS_IRQn, 0, 0);
 8006538:	4622      	mov	r2, r4
 800653a:	4621      	mov	r1, r4
    __HAL_RCC_USB_OTG_FS_CLK_ENABLE();
 800653c:	9301      	str	r3, [sp, #4]
    HAL_NVIC_SetPriority(OTG_FS_IRQn, 0, 0);
 800653e:	2043      	movs	r0, #67	@ 0x43
    __HAL_RCC_USB_OTG_FS_CLK_ENABLE();
 8006540:	9b01      	ldr	r3, [sp, #4]
    HAL_NVIC_SetPriority(OTG_FS_IRQn, 0, 0);
 8006542:	f7fb fd81 	bl	8002048 <HAL_NVIC_SetPriority>
    HAL_NVIC_EnableIRQ(OTG_FS_IRQn);
 8006546:	2043      	movs	r0, #67	@ 0x43
 8006548:	f7fb fdba 	bl	80020c0 <HAL_NVIC_EnableIRQ>
}
 800654c:	b009      	add	sp, #36	@ 0x24
 800654e:	bd30      	pop	{r4, r5, pc}
 8006550:	40023800 	.word	0x40023800
 8006554:	40020000 	.word	0x40020000

08006558 <HAL_PCD_SetupStageCallback>:
static void PCD_SetupStageCallback(PCD_HandleTypeDef *hpcd)
#else
void HAL_PCD_SetupStageCallback(PCD_HandleTypeDef *hpcd)
#endif /* USE_HAL_PCD_REGISTER_CALLBACKS */
{
  USBD_LL_SetupStage((USBD_HandleTypeDef*)hpcd->pData, (uint8_t *)hpcd->Setup);
 8006558:	f200 419c 	addw	r1, r0, #1180	@ 0x49c
 800655c:	f8d0 04e0 	ldr.w	r0, [r0, #1248]	@ 0x4e0
 8006560:	f7ff b9b2 	b.w	80058c8 <USBD_LL_SetupStage>

08006564 <HAL_PCD_DataOutStageCallback>:
static void PCD_DataOutStageCallback(PCD_HandleTypeDef *hpcd, uint8_t epnum)
#else
void HAL_PCD_DataOutStageCallback(PCD_HandleTypeDef *hpcd, uint8_t epnum)
#endif /* USE_HAL_PCD_REGISTER_CALLBACKS */
{
  USBD_LL_DataOutStage((USBD_HandleTypeDef*)hpcd->pData, epnum, hpcd->OUT_ep[epnum].xfer_buff);
 8006564:	eb01 03c1 	add.w	r3, r1, r1, lsl #3
 8006568:	eb00 0383 	add.w	r3, r0, r3, lsl #2
 800656c:	f8d0 04e0 	ldr.w	r0, [r0, #1248]	@ 0x4e0
 8006570:	f8d3 2260 	ldr.w	r2, [r3, #608]	@ 0x260
 8006574:	f7ff b9d8 	b.w	8005928 <USBD_LL_DataOutStage>

08006578 <HAL_PCD_DataInStageCallback>:
static void PCD_DataInStageCallback(PCD_HandleTypeDef *hpcd, uint8_t epnum)
#else
void HAL_PCD_DataInStageCallback(PCD_HandleTypeDef *hpcd, uint8_t epnum)
#endif /* USE_HAL_PCD_REGISTER_CALLBACKS */
{
  USBD_LL_DataInStage((USBD_HandleTypeDef*)hpcd->pData, epnum, hpcd->IN_ep[epnum].xfer_buff);
 8006578:	eb01 03c1 	add.w	r3, r1, r1, lsl #3
 800657c:	eb00 0383 	add.w	r3, r0, r3, lsl #2
 8006580:	f8d0 04e0 	ldr.w	r0, [r0, #1248]	@ 0x4e0
 8006584:	6a1a      	ldr	r2, [r3, #32]
 8006586:	f7ff ba0f 	b.w	80059a8 <USBD_LL_DataInStage>
 800658a:	bf00      	nop

0800658c <HAL_PCD_SOFCallback>:
static void PCD_SOFCallback(PCD_HandleTypeDef *hpcd)
#else
void HAL_PCD_SOFCallback(PCD_HandleTypeDef *hpcd)
#endif /* USE_HAL_PCD_REGISTER_CALLBACKS */
{
  USBD_LL_SOF((USBD_HandleTypeDef*)hpcd->pData);
 800658c:	f8d0 04e0 	ldr.w	r0, [r0, #1248]	@ 0x4e0
 8006590:	f7ff bab0 	b.w	8005af4 <USBD_LL_SOF>

08006594 <HAL_PCD_ResetCallback>:
#if (USE_HAL_PCD_REGISTER_CALLBACKS == 1U)
static void PCD_ResetCallback(PCD_HandleTypeDef *hpcd)
#else
void HAL_PCD_ResetCallback(PCD_HandleTypeDef *hpcd)
#endif /* USE_HAL_PCD_REGISTER_CALLBACKS */
{
 8006594:	b510      	push	{r4, lr}
  USBD_SpeedTypeDef speed = USBD_SPEED_FULL;

  if ( hpcd->Init.speed == PCD_SPEED_HIGH)
 8006596:	79c1      	ldrb	r1, [r0, #7]
{
 8006598:	4604      	mov	r4, r0
  if ( hpcd->Init.speed == PCD_SPEED_HIGH)
 800659a:	b111      	cbz	r1, 80065a2 <HAL_PCD_ResetCallback+0xe>
  {
    speed = USBD_SPEED_HIGH;
  }
  else if ( hpcd->Init.speed == PCD_SPEED_FULL)
 800659c:	2902      	cmp	r1, #2
 800659e:	d10a      	bne.n	80065b6 <HAL_PCD_ResetCallback+0x22>
  {
    speed = USBD_SPEED_FULL;
 80065a0:	2101      	movs	r1, #1
  else
  {
    Error_Handler();
  }
    /* Set Speed. */
  USBD_LL_SetSpeed((USBD_HandleTypeDef*)hpcd->pData, speed);
 80065a2:	f8d4 04e0 	ldr.w	r0, [r4, #1248]	@ 0x4e0
 80065a6:	f7ff fa87 	bl	8005ab8 <USBD_LL_SetSpeed>

  /* Reset Device. */
  USBD_LL_Reset((USBD_HandleTypeDef*)hpcd->pData);
 80065aa:	f8d4 04e0 	ldr.w	r0, [r4, #1248]	@ 0x4e0
}
 80065ae:	e8bd 4010 	ldmia.w	sp!, {r4, lr}
  USBD_LL_Reset((USBD_HandleTypeDef*)hpcd->pData);
 80065b2:	f7ff ba53 	b.w	8005a5c <USBD_LL_Reset>
    Error_Handler();
 80065b6:	f7fb f931 	bl	800181c <Error_Handler>
    speed = USBD_SPEED_FULL;
 80065ba:	2101      	movs	r1, #1
 80065bc:	e7f1      	b.n	80065a2 <HAL_PCD_ResetCallback+0xe>
 80065be:	bf00      	nop

080065c0 <HAL_PCD_SuspendCallback>:
#if (USE_HAL_PCD_REGISTER_CALLBACKS == 1U)
static void PCD_SuspendCallback(PCD_HandleTypeDef *hpcd)
#else
void HAL_PCD_SuspendCallback(PCD_HandleTypeDef *hpcd)
#endif /* USE_HAL_PCD_REGISTER_CALLBACKS */
{
 80065c0:	b510      	push	{r4, lr}
 80065c2:	4604      	mov	r4, r0
  /* Inform USB library that core enters in suspend Mode. */
  USBD_LL_Suspend((USBD_HandleTypeDef*)hpcd->pData);
 80065c4:	f8d0 04e0 	ldr.w	r0, [r0, #1248]	@ 0x4e0
 80065c8:	f7ff fa7a 	bl	8005ac0 <USBD_LL_Suspend>
  __HAL_PCD_GATE_PHYCLOCK(hpcd);
 80065cc:	6822      	ldr	r2, [r4, #0]
 80065ce:	f8d2 3e00 	ldr.w	r3, [r2, #3584]	@ 0xe00
 80065d2:	f043 0301 	orr.w	r3, r3, #1
 80065d6:	f8c2 3e00 	str.w	r3, [r2, #3584]	@ 0xe00
  /* Enter in STOP mode. */
  /* USER CODE BEGIN 2 */
  if (hpcd->Init.low_power_enable)
 80065da:	7ae3      	ldrb	r3, [r4, #11]
 80065dc:	b123      	cbz	r3, 80065e8 <HAL_PCD_SuspendCallback+0x28>
  {
    /* Set SLEEPDEEP bit and SleepOnExit of Cortex System Control Register. */
    SCB->SCR |= (uint32_t)((uint32_t)(SCB_SCR_SLEEPDEEP_Msk | SCB_SCR_SLEEPONEXIT_Msk));
 80065de:	4a03      	ldr	r2, [pc, #12]	@ (80065ec <HAL_PCD_SuspendCallback+0x2c>)
 80065e0:	6913      	ldr	r3, [r2, #16]
 80065e2:	f043 0306 	orr.w	r3, r3, #6
 80065e6:	6113      	str	r3, [r2, #16]
  }
  /* USER CODE END 2 */
}
 80065e8:	bd10      	pop	{r4, pc}
 80065ea:	bf00      	nop
 80065ec:	e000ed00 	.word	0xe000ed00

080065f0 <HAL_PCD_ResumeCallback>:
#endif /* USE_HAL_PCD_REGISTER_CALLBACKS */
{
  /* USER CODE BEGIN 3 */

  /* USER CODE END 3 */
  USBD_LL_Resume((USBD_HandleTypeDef*)hpcd->pData);
 80065f0:	f8d0 04e0 	ldr.w	r0, [r0, #1248]	@ 0x4e0
 80065f4:	f7ff ba72 	b.w	8005adc <USBD_LL_Resume>

080065f8 <HAL_PCD_ISOOUTIncompleteCallback>:
static void PCD_ISOOUTIncompleteCallback(PCD_HandleTypeDef *hpcd, uint8_t epnum)
#else
void HAL_PCD_ISOOUTIncompleteCallback(PCD_HandleTypeDef *hpcd, uint8_t epnum)
#endif /* USE_HAL_PCD_REGISTER_CALLBACKS */
{
  USBD_LL_IsoOUTIncomplete((USBD_HandleTypeDef*)hpcd->pData, epnum);
 80065f8:	f8d0 04e0 	ldr.w	r0, [r0, #1248]	@ 0x4e0
 80065fc:	f7ff baa0 	b.w	8005b40 <USBD_LL_IsoOUTIncomplete>

08006600 <HAL_PCD_ISOINIncompleteCallback>:
static void PCD_ISOINIncompleteCallback(PCD_HandleTypeDef *hpcd, uint8_t epnum)
#else
void HAL_PCD_ISOINIncompleteCallback(PCD_HandleTypeDef *hpcd, uint8_t epnum)
#endif /* USE_HAL_PCD_REGISTER_CALLBACKS */
{
  USBD_LL_IsoINIncomplete((USBD_HandleTypeDef*)hpcd->pData, epnum);
 8006600:	f8d0 04e0 	ldr.w	r0, [r0, #1248]	@ 0x4e0
 8006604:	f7ff ba86 	b.w	8005b14 <USBD_LL_IsoINIncomplete>

08006608 <HAL_PCD_ConnectCallback>:
static void PCD_ConnectCallback(PCD_HandleTypeDef *hpcd)
#else
void HAL_PCD_ConnectCallback(PCD_HandleTypeDef *hpcd)
#endif /* USE_HAL_PCD_REGISTER_CALLBACKS */
{
  USBD_LL_DevConnected((USBD_HandleTypeDef*)hpcd->pData);
 8006608:	f8d0 04e0 	ldr.w	r0, [r0, #1248]	@ 0x4e0
 800660c:	f7ff baae 	b.w	8005b6c <USBD_LL_DevConnected>

08006610 <HAL_PCD_DisconnectCallback>:
static void PCD_DisconnectCallback(PCD_HandleTypeDef *hpcd)
#else
void HAL_PCD_DisconnectCallback(PCD_HandleTypeDef *hpcd)
#endif /* USE_HAL_PCD_REGISTER_CALLBACKS */
{
  USBD_LL_DevDisconnected((USBD_HandleTypeDef*)hpcd->pData);
 8006610:	f8d0 04e0 	ldr.w	r0, [r0, #1248]	@ 0x4e0
 8006614:	f7ff baac 	b.w	8005b70 <USBD_LL_DevDisconnected>

08006618 <USBD_LL_Init>:
  * @retval USBD status
  */
USBD_StatusTypeDef USBD_LL_Init(USBD_HandleTypeDef *pdev)
{
  /* Init USB Ip. */
  if (pdev->id == DEVICE_FS) {
 8006618:	7802      	ldrb	r2, [r0, #0]
 800661a:	b10a      	cbz	r2, 8006620 <USBD_LL_Init+0x8>
  HAL_PCDEx_SetRxFiFo(&hpcd_USB_OTG_FS, 0x80);
  HAL_PCDEx_SetTxFiFo(&hpcd_USB_OTG_FS, 0, 0x40);
  HAL_PCDEx_SetTxFiFo(&hpcd_USB_OTG_FS, 1, 0x80);
  }
  return USBD_OK;
}
 800661c:	2000      	movs	r0, #0
 800661e:	4770      	bx	lr
{
 8006620:	b508      	push	{r3, lr}
  hpcd_USB_OTG_FS.pData = pdev;
 8006622:	4b15      	ldr	r3, [pc, #84]	@ (8006678 <USBD_LL_Init+0x60>)
  hpcd_USB_OTG_FS.Instance = USB_OTG_FS;
 8006624:	f04f 41a0 	mov.w	r1, #1342177280	@ 0x50000000
  hpcd_USB_OTG_FS.pData = pdev;
 8006628:	f8c3 04e0 	str.w	r0, [r3, #1248]	@ 0x4e0
  pdev->pData = &hpcd_USB_OTG_FS;
 800662c:	f8c0 32c8 	str.w	r3, [r0, #712]	@ 0x2c8
  hpcd_USB_OTG_FS.Init.dma_enable = DISABLE;
 8006630:	f44f 7000 	mov.w	r0, #512	@ 0x200
  hpcd_USB_OTG_FS.Init.dev_endpoints = 4;
 8006634:	f04f 0c04 	mov.w	ip, #4
  hpcd_USB_OTG_FS.Instance = USB_OTG_FS;
 8006638:	6019      	str	r1, [r3, #0]
  hpcd_USB_OTG_FS.Init.dma_enable = DISABLE;
 800663a:	80d8      	strh	r0, [r3, #6]
  hpcd_USB_OTG_FS.Init.phy_itface = PCD_PHY_EMBEDDED;
 800663c:	2102      	movs	r1, #2
  if (HAL_PCD_Init(&hpcd_USB_OTG_FS) != HAL_OK)
 800663e:	4618      	mov	r0, r3
  hpcd_USB_OTG_FS.Init.dev_endpoints = 4;
 8006640:	f883 c004 	strb.w	ip, [r3, #4]
  hpcd_USB_OTG_FS.Init.phy_itface = PCD_PHY_EMBEDDED;
 8006644:	f8c3 1009 	str.w	r1, [r3, #9]
  hpcd_USB_OTG_FS.Init.vbus_sensing_enable = DISABLE;
 8006648:	81da      	strh	r2, [r3, #14]
  if (HAL_PCD_Init(&hpcd_USB_OTG_FS) != HAL_OK)
 800664a:	f7fc fbf5 	bl	8002e38 <HAL_PCD_Init>
 800664e:	b978      	cbnz	r0, 8006670 <USBD_LL_Init+0x58>
  HAL_PCDEx_SetRxFiFo(&hpcd_USB_OTG_FS, 0x80);
 8006650:	2180      	movs	r1, #128	@ 0x80
 8006652:	4809      	ldr	r0, [pc, #36]	@ (8006678 <USBD_LL_Init+0x60>)
 8006654:	f7fd fd6c 	bl	8004130 <HAL_PCDEx_SetRxFiFo>
  HAL_PCDEx_SetTxFiFo(&hpcd_USB_OTG_FS, 0, 0x40);
 8006658:	2240      	movs	r2, #64	@ 0x40
 800665a:	2100      	movs	r1, #0
 800665c:	4806      	ldr	r0, [pc, #24]	@ (8006678 <USBD_LL_Init+0x60>)
 800665e:	f7fd fce5 	bl	800402c <HAL_PCDEx_SetTxFiFo>
  HAL_PCDEx_SetTxFiFo(&hpcd_USB_OTG_FS, 1, 0x80);
 8006662:	2280      	movs	r2, #128	@ 0x80
 8006664:	2101      	movs	r1, #1
 8006666:	4804      	ldr	r0, [pc, #16]	@ (8006678 <USBD_LL_Init+0x60>)
 8006668:	f7fd fce0 	bl	800402c <HAL_PCDEx_SetTxFiFo>
}
 800666c:	2000      	movs	r0, #0
 800666e:	bd08      	pop	{r3, pc}
    Error_Handler( );
 8006670:	f7fb f8d4 	bl	800181c <Error_Handler>
 8006674:	e7ec      	b.n	8006650 <USBD_LL_Init+0x38>
 8006676:	bf00      	nop
 8006678:	2001c7c4 	.word	0x2001c7c4

0800667c <USBD_LL_Start>:
  * @brief  Starts the low level portion of the device driver.
  * @param  pdev: Device handle
  * @retval USBD status
  */
USBD_StatusTypeDef USBD_LL_Start(USBD_HandleTypeDef *pdev)
{
 800667c:	b508      	push	{r3, lr}
  HAL_StatusTypeDef hal_status = HAL_OK;
  USBD_StatusTypeDef usb_status = USBD_OK;

  hal_status = HAL_PCD_Start(pdev->pData);
 800667e:	f8d0 02c8 	ldr.w	r0, [r0, #712]	@ 0x2c8
 8006682:	f7fc fde3 	bl	800324c <HAL_PCD_Start>
  */
USBD_StatusTypeDef USBD_Get_USB_Status(HAL_StatusTypeDef hal_status)
{
  USBD_StatusTypeDef usb_status = USBD_OK;

  switch (hal_status)
 8006686:	b118      	cbz	r0, 8006690 <USBD_LL_Start+0x14>
 8006688:	2802      	cmp	r0, #2
 800668a:	bf0c      	ite	eq
 800668c:	2001      	moveq	r0, #1
 800668e:	2003      	movne	r0, #3
}
 8006690:	bd08      	pop	{r3, pc}
 8006692:	bf00      	nop

08006694 <USBD_LL_OpenEP>:
{
 8006694:	4694      	mov	ip, r2
 8006696:	b508      	push	{r3, lr}
 8006698:	461a      	mov	r2, r3
  hal_status = HAL_PCD_EP_Open(pdev->pData, ep_addr, ep_mps, ep_type);
 800669a:	f8d0 02c8 	ldr.w	r0, [r0, #712]	@ 0x2c8
 800669e:	4663      	mov	r3, ip
 80066a0:	f7fd fb86 	bl	8003db0 <HAL_PCD_EP_Open>
  switch (hal_status)
 80066a4:	b118      	cbz	r0, 80066ae <USBD_LL_OpenEP+0x1a>
 80066a6:	2802      	cmp	r0, #2
 80066a8:	bf0c      	ite	eq
 80066aa:	2001      	moveq	r0, #1
 80066ac:	2003      	movne	r0, #3
}
 80066ae:	bd08      	pop	{r3, pc}

080066b0 <USBD_LL_CloseEP>:
{
 80066b0:	b508      	push	{r3, lr}
  hal_status = HAL_PCD_EP_Close(pdev->pData, ep_addr);
 80066b2:	f8d0 02c8 	ldr.w	r0, [r0, #712]	@ 0x2c8
 80066b6:	f7fd fbbb 	bl	8003e30 <HAL_PCD_EP_Close>
  switch (hal_status)
 80066ba:	b118      	cbz	r0, 80066c4 <USBD_LL_CloseEP+0x14>
 80066bc:	2802      	cmp	r0, #2
 80066be:	bf0c      	ite	eq
 80066c0:	2001      	moveq	r0, #1
 80066c2:	2003      	movne	r0, #3
}
 80066c4:	bd08      	pop	{r3, pc}
 80066c6:	bf00      	nop

080066c8 <USBD_LL_StallEP>:
{
 80066c8:	b508      	push	{r3, lr}
  hal_status = HAL_PCD_EP_SetStall(pdev->pData, ep_addr);
 80066ca:	f8d0 02c8 	ldr.w	r0, [r0, #712]	@ 0x2c8
 80066ce:	f7fd fc33 	bl	8003f38 <HAL_PCD_EP_SetStall>
  switch (hal_status)
 80066d2:	b118      	cbz	r0, 80066dc <USBD_LL_StallEP+0x14>
 80066d4:	2802      	cmp	r0, #2
 80066d6:	bf0c      	ite	eq
 80066d8:	2001      	moveq	r0, #1
 80066da:	2003      	movne	r0, #3
}
 80066dc:	bd08      	pop	{r3, pc}
 80066de:	bf00      	nop

080066e0 <USBD_LL_ClearStallEP>:
{
 80066e0:	b508      	push	{r3, lr}
  hal_status = HAL_PCD_EP_ClrStall(pdev->pData, ep_addr);
 80066e2:	f8d0 02c8 	ldr.w	r0, [r0, #712]	@ 0x2c8
 80066e6:	f7fd fc69 	bl	8003fbc <HAL_PCD_EP_ClrStall>
  switch (hal_status)
 80066ea:	b118      	cbz	r0, 80066f4 <USBD_LL_ClearStallEP+0x14>
 80066ec:	2802      	cmp	r0, #2
 80066ee:	bf0c      	ite	eq
 80066f0:	2001      	moveq	r0, #1
 80066f2:	2003      	movne	r0, #3
}
 80066f4:	bd08      	pop	{r3, pc}
 80066f6:	bf00      	nop

080066f8 <USBD_LL_IsStallEP>:
  if((ep_addr & 0x80) == 0x80)
 80066f8:	060a      	lsls	r2, r1, #24
  PCD_HandleTypeDef *hpcd = (PCD_HandleTypeDef*) pdev->pData;
 80066fa:	f8d0 32c8 	ldr.w	r3, [r0, #712]	@ 0x2c8
  if((ep_addr & 0x80) == 0x80)
 80066fe:	d406      	bmi.n	800670e <USBD_LL_IsStallEP+0x16>
    return hpcd->OUT_ep[ep_addr & 0x7F].is_stall;
 8006700:	eb01 01c1 	add.w	r1, r1, r1, lsl #3
 8006704:	eb03 0381 	add.w	r3, r3, r1, lsl #2
 8006708:	f893 0256 	ldrb.w	r0, [r3, #598]	@ 0x256
}
 800670c:	4770      	bx	lr
    return hpcd->IN_ep[ep_addr & 0x7F].is_stall;
 800670e:	f001 017f 	and.w	r1, r1, #127	@ 0x7f
 8006712:	eb01 01c1 	add.w	r1, r1, r1, lsl #3
 8006716:	eb03 0381 	add.w	r3, r3, r1, lsl #2
 800671a:	7d98      	ldrb	r0, [r3, #22]
 800671c:	4770      	bx	lr
 800671e:	bf00      	nop

08006720 <USBD_LL_SetUSBAddress>:
{
 8006720:	b508      	push	{r3, lr}
  hal_status = HAL_PCD_SetAddress(pdev->pData, dev_addr);
 8006722:	f8d0 02c8 	ldr.w	r0, [r0, #712]	@ 0x2c8
 8006726:	f7fd fb2f 	bl	8003d88 <HAL_PCD_SetAddress>
  switch (hal_status)
 800672a:	b118      	cbz	r0, 8006734 <USBD_LL_SetUSBAddress+0x14>
 800672c:	2802      	cmp	r0, #2
 800672e:	bf0c      	ite	eq
 8006730:	2001      	moveq	r0, #1
 8006732:	2003      	movne	r0, #3
}
 8006734:	bd08      	pop	{r3, pc}
 8006736:	bf00      	nop

08006738 <USBD_LL_Transmit>:
{
 8006738:	b508      	push	{r3, lr}
  hal_status = HAL_PCD_EP_Transmit(pdev->pData, ep_addr, pbuf, size);
 800673a:	f8d0 02c8 	ldr.w	r0, [r0, #712]	@ 0x2c8
 800673e:	f7fd fbd7 	bl	8003ef0 <HAL_PCD_EP_Transmit>
  switch (hal_status)
 8006742:	b118      	cbz	r0, 800674c <USBD_LL_Transmit+0x14>
 8006744:	2802      	cmp	r0, #2
 8006746:	bf0c      	ite	eq
 8006748:	2001      	moveq	r0, #1
 800674a:	2003      	movne	r0, #3
}
 800674c:	bd08      	pop	{r3, pc}
 800674e:	bf00      	nop

08006750 <USBD_LL_PrepareReceive>:
{
 8006750:	b508      	push	{r3, lr}
  hal_status = HAL_PCD_EP_Receive(pdev->pData, ep_addr, pbuf, size);
 8006752:	f8d0 02c8 	ldr.w	r0, [r0, #712]	@ 0x2c8
 8006756:	f7fd fb9f 	bl	8003e98 <HAL_PCD_EP_Receive>
  switch (hal_status)
 800675a:	b118      	cbz	r0, 8006764 <USBD_LL_PrepareReceive+0x14>
 800675c:	2802      	cmp	r0, #2
 800675e:	bf0c      	ite	eq
 8006760:	2001      	moveq	r0, #1
 8006762:	2003      	movne	r0, #3
}
 8006764:	bd08      	pop	{r3, pc}
 8006766:	bf00      	nop

08006768 <USBD_LL_GetRxDataSize>:
  return HAL_PCD_EP_GetRxCount((PCD_HandleTypeDef*) pdev->pData, ep_addr);
 8006768:	f8d0 02c8 	ldr.w	r0, [r0, #712]	@ 0x2c8
 800676c:	f7fd bbb6 	b.w	8003edc <HAL_PCD_EP_GetRxCount>

08006770 <USBD_static_malloc>:
}
 8006770:	4800      	ldr	r0, [pc, #0]	@ (8006774 <USBD_static_malloc+0x4>)
 8006772:	4770      	bx	lr
 8006774:	20018b70 	.word	0x20018b70

08006778 <USBD_static_free>:
}
 8006778:	4770      	bx	lr
 800677a:	bf00      	nop

0800677c <memset>:
 800677c:	4402      	add	r2, r0
 800677e:	4603      	mov	r3, r0
 8006780:	4293      	cmp	r3, r2
 8006782:	d100      	bne.n	8006786 <memset+0xa>
 8006784:	4770      	bx	lr
 8006786:	f803 1b01 	strb.w	r1, [r3], #1
 800678a:	e7f9      	b.n	8006780 <memset+0x4>

0800678c <__errno>:
 800678c:	4b01      	ldr	r3, [pc, #4]	@ (8006794 <__errno+0x8>)
 800678e:	6818      	ldr	r0, [r3, #0]
 8006790:	4770      	bx	lr
 8006792:	bf00      	nop
 8006794:	20000134 	.word	0x20000134

08006798 <__libc_init_array>:
 8006798:	b570      	push	{r4, r5, r6, lr}
 800679a:	4d0d      	ldr	r5, [pc, #52]	@ (80067d0 <__libc_init_array+0x38>)
 800679c:	4c0d      	ldr	r4, [pc, #52]	@ (80067d4 <__libc_init_array+0x3c>)
 800679e:	1b64      	subs	r4, r4, r5
 80067a0:	10a4      	asrs	r4, r4, #2
 80067a2:	2600      	movs	r6, #0
 80067a4:	42a6      	cmp	r6, r4
 80067a6:	d109      	bne.n	80067bc <__libc_init_array+0x24>
 80067a8:	4d0b      	ldr	r5, [pc, #44]	@ (80067d8 <__libc_init_array+0x40>)
 80067aa:	4c0c      	ldr	r4, [pc, #48]	@ (80067dc <__libc_init_array+0x44>)
 80067ac:	f001 f8f8 	bl	80079a0 <_init>
 80067b0:	1b64      	subs	r4, r4, r5
 80067b2:	10a4      	asrs	r4, r4, #2
 80067b4:	2600      	movs	r6, #0
 80067b6:	42a6      	cmp	r6, r4
 80067b8:	d105      	bne.n	80067c6 <__libc_init_array+0x2e>
 80067ba:	bd70      	pop	{r4, r5, r6, pc}
 80067bc:	f855 3b04 	ldr.w	r3, [r5], #4
 80067c0:	4798      	blx	r3
 80067c2:	3601      	adds	r6, #1
 80067c4:	e7ee      	b.n	80067a4 <__libc_init_array+0xc>
 80067c6:	f855 3b04 	ldr.w	r3, [r5], #4
 80067ca:	4798      	blx	r3
 80067cc:	3601      	adds	r6, #1
 80067ce:	e7f2      	b.n	80067b6 <__libc_init_array+0x1e>
 80067d0:	08007e20 	.word	0x08007e20
 80067d4:	08007e20 	.word	0x08007e20
 80067d8:	08007e20 	.word	0x08007e20
 80067dc:	08007e24 	.word	0x08007e24

080067e0 <powf>:
 80067e0:	b508      	push	{r3, lr}
 80067e2:	ed2d 8b04 	vpush	{d8-d9}
 80067e6:	eeb0 8a60 	vmov.f32	s16, s1
 80067ea:	eeb0 9a40 	vmov.f32	s18, s0
 80067ee:	f000 f995 	bl	8006b1c <__ieee754_powf>
 80067f2:	eeb4 8a48 	vcmp.f32	s16, s16
 80067f6:	eef1 fa10 	vmrs	APSR_nzcv, fpscr
 80067fa:	eef0 8a40 	vmov.f32	s17, s0
 80067fe:	d63e      	bvs.n	800687e <powf+0x9e>
 8006800:	eeb5 9a40 	vcmp.f32	s18, #0.0
 8006804:	eef1 fa10 	vmrs	APSR_nzcv, fpscr
 8006808:	d112      	bne.n	8006830 <powf+0x50>
 800680a:	eeb5 8a40 	vcmp.f32	s16, #0.0
 800680e:	eef1 fa10 	vmrs	APSR_nzcv, fpscr
 8006812:	d039      	beq.n	8006888 <powf+0xa8>
 8006814:	eeb0 0a48 	vmov.f32	s0, s16
 8006818:	f000 f880 	bl	800691c <finitef>
 800681c:	b378      	cbz	r0, 800687e <powf+0x9e>
 800681e:	eeb5 8ac0 	vcmpe.f32	s16, #0.0
 8006822:	eef1 fa10 	vmrs	APSR_nzcv, fpscr
 8006826:	d52a      	bpl.n	800687e <powf+0x9e>
 8006828:	f7ff ffb0 	bl	800678c <__errno>
 800682c:	2322      	movs	r3, #34	@ 0x22
 800682e:	e014      	b.n	800685a <powf+0x7a>
 8006830:	f000 f874 	bl	800691c <finitef>
 8006834:	b998      	cbnz	r0, 800685e <powf+0x7e>
 8006836:	eeb0 0a49 	vmov.f32	s0, s18
 800683a:	f000 f86f 	bl	800691c <finitef>
 800683e:	b170      	cbz	r0, 800685e <powf+0x7e>
 8006840:	eeb0 0a48 	vmov.f32	s0, s16
 8006844:	f000 f86a 	bl	800691c <finitef>
 8006848:	b148      	cbz	r0, 800685e <powf+0x7e>
 800684a:	eef4 8a68 	vcmp.f32	s17, s17
 800684e:	eef1 fa10 	vmrs	APSR_nzcv, fpscr
 8006852:	d7e9      	bvc.n	8006828 <powf+0x48>
 8006854:	f7ff ff9a 	bl	800678c <__errno>
 8006858:	2321      	movs	r3, #33	@ 0x21
 800685a:	6003      	str	r3, [r0, #0]
 800685c:	e00f      	b.n	800687e <powf+0x9e>
 800685e:	eef5 8a40 	vcmp.f32	s17, #0.0
 8006862:	eef1 fa10 	vmrs	APSR_nzcv, fpscr
 8006866:	d10a      	bne.n	800687e <powf+0x9e>
 8006868:	eeb0 0a49 	vmov.f32	s0, s18
 800686c:	f000 f856 	bl	800691c <finitef>
 8006870:	b128      	cbz	r0, 800687e <powf+0x9e>
 8006872:	eeb0 0a48 	vmov.f32	s0, s16
 8006876:	f000 f851 	bl	800691c <finitef>
 800687a:	2800      	cmp	r0, #0
 800687c:	d1d4      	bne.n	8006828 <powf+0x48>
 800687e:	eeb0 0a68 	vmov.f32	s0, s17
 8006882:	ecbd 8b04 	vpop	{d8-d9}
 8006886:	bd08      	pop	{r3, pc}
 8006888:	eef7 8a00 	vmov.f32	s17, #112	@ 0x3f800000  1.0
 800688c:	e7f7      	b.n	800687e <powf+0x9e>
	...

08006890 <sinf>:
 8006890:	ee10 3a10 	vmov	r3, s0
 8006894:	b507      	push	{r0, r1, r2, lr}
 8006896:	4a1f      	ldr	r2, [pc, #124]	@ (8006914 <sinf+0x84>)
 8006898:	f023 4300 	bic.w	r3, r3, #2147483648	@ 0x80000000
 800689c:	4293      	cmp	r3, r2
 800689e:	d807      	bhi.n	80068b0 <sinf+0x20>
 80068a0:	eddf 0a1d 	vldr	s1, [pc, #116]	@ 8006918 <sinf+0x88>
 80068a4:	2000      	movs	r0, #0
 80068a6:	b003      	add	sp, #12
 80068a8:	f85d eb04 	ldr.w	lr, [sp], #4
 80068ac:	f000 b8ee 	b.w	8006a8c <__kernel_sinf>
 80068b0:	f1b3 4fff 	cmp.w	r3, #2139095040	@ 0x7f800000
 80068b4:	d304      	bcc.n	80068c0 <sinf+0x30>
 80068b6:	ee30 0a40 	vsub.f32	s0, s0, s0
 80068ba:	b003      	add	sp, #12
 80068bc:	f85d fb04 	ldr.w	pc, [sp], #4
 80068c0:	4668      	mov	r0, sp
 80068c2:	f000 fbf9 	bl	80070b8 <__ieee754_rem_pio2f>
 80068c6:	f000 0003 	and.w	r0, r0, #3
 80068ca:	2801      	cmp	r0, #1
 80068cc:	d00a      	beq.n	80068e4 <sinf+0x54>
 80068ce:	2802      	cmp	r0, #2
 80068d0:	d00f      	beq.n	80068f2 <sinf+0x62>
 80068d2:	b9c0      	cbnz	r0, 8006906 <sinf+0x76>
 80068d4:	eddd 0a01 	vldr	s1, [sp, #4]
 80068d8:	ed9d 0a00 	vldr	s0, [sp]
 80068dc:	2001      	movs	r0, #1
 80068de:	f000 f8d5 	bl	8006a8c <__kernel_sinf>
 80068e2:	e7ea      	b.n	80068ba <sinf+0x2a>
 80068e4:	eddd 0a01 	vldr	s1, [sp, #4]
 80068e8:	ed9d 0a00 	vldr	s0, [sp]
 80068ec:	f000 f876 	bl	80069dc <__kernel_cosf>
 80068f0:	e7e3      	b.n	80068ba <sinf+0x2a>
 80068f2:	eddd 0a01 	vldr	s1, [sp, #4]
 80068f6:	ed9d 0a00 	vldr	s0, [sp]
 80068fa:	2001      	movs	r0, #1
 80068fc:	f000 f8c6 	bl	8006a8c <__kernel_sinf>
 8006900:	eeb1 0a40 	vneg.f32	s0, s0
 8006904:	e7d9      	b.n	80068ba <sinf+0x2a>
 8006906:	eddd 0a01 	vldr	s1, [sp, #4]
 800690a:	ed9d 0a00 	vldr	s0, [sp]
 800690e:	f000 f865 	bl	80069dc <__kernel_cosf>
 8006912:	e7f5      	b.n	8006900 <sinf+0x70>
 8006914:	3f490fd8 	.word	0x3f490fd8
 8006918:	00000000 	.word	0x00000000

0800691c <finitef>:
 800691c:	ee10 3a10 	vmov	r3, s0
 8006920:	f023 4000 	bic.w	r0, r3, #2147483648	@ 0x80000000
 8006924:	f1b0 4fff 	cmp.w	r0, #2139095040	@ 0x7f800000
 8006928:	bfac      	ite	ge
 800692a:	2000      	movge	r0, #0
 800692c:	2001      	movlt	r0, #1
 800692e:	4770      	bx	lr

08006930 <fmaxf>:
 8006930:	b508      	push	{r3, lr}
 8006932:	ed2d 8b02 	vpush	{d8}
 8006936:	eeb0 8a40 	vmov.f32	s16, s0
 800693a:	eef0 8a60 	vmov.f32	s17, s1
 800693e:	f000 f831 	bl	80069a4 <__fpclassifyf>
 8006942:	b930      	cbnz	r0, 8006952 <fmaxf+0x22>
 8006944:	eeb0 8a68 	vmov.f32	s16, s17
 8006948:	eeb0 0a48 	vmov.f32	s0, s16
 800694c:	ecbd 8b02 	vpop	{d8}
 8006950:	bd08      	pop	{r3, pc}
 8006952:	eeb0 0a68 	vmov.f32	s0, s17
 8006956:	f000 f825 	bl	80069a4 <__fpclassifyf>
 800695a:	2800      	cmp	r0, #0
 800695c:	d0f4      	beq.n	8006948 <fmaxf+0x18>
 800695e:	eeb4 8ae8 	vcmpe.f32	s16, s17
 8006962:	eef1 fa10 	vmrs	APSR_nzcv, fpscr
 8006966:	dded      	ble.n	8006944 <fmaxf+0x14>
 8006968:	e7ee      	b.n	8006948 <fmaxf+0x18>

0800696a <fminf>:
 800696a:	b508      	push	{r3, lr}
 800696c:	ed2d 8b02 	vpush	{d8}
 8006970:	eeb0 8a40 	vmov.f32	s16, s0
 8006974:	eef0 8a60 	vmov.f32	s17, s1
 8006978:	f000 f814 	bl	80069a4 <__fpclassifyf>
 800697c:	b930      	cbnz	r0, 800698c <fminf+0x22>
 800697e:	eeb0 8a68 	vmov.f32	s16, s17
 8006982:	eeb0 0a48 	vmov.f32	s0, s16
 8006986:	ecbd 8b02 	vpop	{d8}
 800698a:	bd08      	pop	{r3, pc}
 800698c:	eeb0 0a68 	vmov.f32	s0, s17
 8006990:	f000 f808 	bl	80069a4 <__fpclassifyf>
 8006994:	2800      	cmp	r0, #0
 8006996:	d0f4      	beq.n	8006982 <fminf+0x18>
 8006998:	eeb4 8ae8 	vcmpe.f32	s16, s17
 800699c:	eef1 fa10 	vmrs	APSR_nzcv, fpscr
 80069a0:	d5ed      	bpl.n	800697e <fminf+0x14>
 80069a2:	e7ee      	b.n	8006982 <fminf+0x18>

080069a4 <__fpclassifyf>:
 80069a4:	ee10 3a10 	vmov	r3, s0
 80069a8:	f033 4000 	bics.w	r0, r3, #2147483648	@ 0x80000000
 80069ac:	d00d      	beq.n	80069ca <__fpclassifyf+0x26>
 80069ae:	f5a0 0300 	sub.w	r3, r0, #8388608	@ 0x800000
 80069b2:	f1b3 4ffe 	cmp.w	r3, #2130706432	@ 0x7f000000
 80069b6:	d30a      	bcc.n	80069ce <__fpclassifyf+0x2a>
 80069b8:	4b07      	ldr	r3, [pc, #28]	@ (80069d8 <__fpclassifyf+0x34>)
 80069ba:	1e42      	subs	r2, r0, #1
 80069bc:	429a      	cmp	r2, r3
 80069be:	d908      	bls.n	80069d2 <__fpclassifyf+0x2e>
 80069c0:	f1a0 43ff 	sub.w	r3, r0, #2139095040	@ 0x7f800000
 80069c4:	4258      	negs	r0, r3
 80069c6:	4158      	adcs	r0, r3
 80069c8:	4770      	bx	lr
 80069ca:	2002      	movs	r0, #2
 80069cc:	4770      	bx	lr
 80069ce:	2004      	movs	r0, #4
 80069d0:	4770      	bx	lr
 80069d2:	2003      	movs	r0, #3
 80069d4:	4770      	bx	lr
 80069d6:	bf00      	nop
 80069d8:	007ffffe 	.word	0x007ffffe

080069dc <__kernel_cosf>:
 80069dc:	ee10 3a10 	vmov	r3, s0
 80069e0:	f023 4300 	bic.w	r3, r3, #2147483648	@ 0x80000000
 80069e4:	f1b3 5f48 	cmp.w	r3, #838860800	@ 0x32000000
 80069e8:	eef0 6a40 	vmov.f32	s13, s0
 80069ec:	eeb7 0a00 	vmov.f32	s0, #112	@ 0x3f800000  1.0
 80069f0:	d204      	bcs.n	80069fc <__kernel_cosf+0x20>
 80069f2:	eefd 7ae6 	vcvt.s32.f32	s15, s13
 80069f6:	ee17 2a90 	vmov	r2, s15
 80069fa:	b342      	cbz	r2, 8006a4e <__kernel_cosf+0x72>
 80069fc:	ee26 7aa6 	vmul.f32	s14, s13, s13
 8006a00:	eddf 7a1a 	vldr	s15, [pc, #104]	@ 8006a6c <__kernel_cosf+0x90>
 8006a04:	ed9f 6a1a 	vldr	s12, [pc, #104]	@ 8006a70 <__kernel_cosf+0x94>
 8006a08:	4a1a      	ldr	r2, [pc, #104]	@ (8006a74 <__kernel_cosf+0x98>)
 8006a0a:	eea7 6a27 	vfma.f32	s12, s14, s15
 8006a0e:	4293      	cmp	r3, r2
 8006a10:	eddf 7a19 	vldr	s15, [pc, #100]	@ 8006a78 <__kernel_cosf+0x9c>
 8006a14:	eee6 7a07 	vfma.f32	s15, s12, s14
 8006a18:	ed9f 6a18 	vldr	s12, [pc, #96]	@ 8006a7c <__kernel_cosf+0xa0>
 8006a1c:	eea7 6a87 	vfma.f32	s12, s15, s14
 8006a20:	eddf 7a17 	vldr	s15, [pc, #92]	@ 8006a80 <__kernel_cosf+0xa4>
 8006a24:	eee6 7a07 	vfma.f32	s15, s12, s14
 8006a28:	ed9f 6a16 	vldr	s12, [pc, #88]	@ 8006a84 <__kernel_cosf+0xa8>
 8006a2c:	eea7 6a87 	vfma.f32	s12, s15, s14
 8006a30:	ee60 0ae6 	vnmul.f32	s1, s1, s13
 8006a34:	ee26 6a07 	vmul.f32	s12, s12, s14
 8006a38:	eef6 7a00 	vmov.f32	s15, #96	@ 0x3f000000  0.5
 8006a3c:	eee7 0a06 	vfma.f32	s1, s14, s12
 8006a40:	ee67 7a27 	vmul.f32	s15, s14, s15
 8006a44:	d804      	bhi.n	8006a50 <__kernel_cosf+0x74>
 8006a46:	ee77 7ae0 	vsub.f32	s15, s15, s1
 8006a4a:	ee30 0a67 	vsub.f32	s0, s0, s15
 8006a4e:	4770      	bx	lr
 8006a50:	4a0d      	ldr	r2, [pc, #52]	@ (8006a88 <__kernel_cosf+0xac>)
 8006a52:	4293      	cmp	r3, r2
 8006a54:	bf9a      	itte	ls
 8006a56:	f103 437f 	addls.w	r3, r3, #4278190080	@ 0xff000000
 8006a5a:	ee07 3a10 	vmovls	s14, r3
 8006a5e:	eeb5 7a02 	vmovhi.f32	s14, #82	@ 0x3e900000  0.2812500
 8006a62:	ee30 0a47 	vsub.f32	s0, s0, s14
 8006a66:	ee77 7ac7 	vsub.f32	s15, s15, s14
 8006a6a:	e7ec      	b.n	8006a46 <__kernel_cosf+0x6a>
 8006a6c:	ad47d74e 	.word	0xad47d74e
 8006a70:	310f74f6 	.word	0x310f74f6
 8006a74:	3e999999 	.word	0x3e999999
 8006a78:	b493f27c 	.word	0xb493f27c
 8006a7c:	37d00d01 	.word	0x37d00d01
 8006a80:	bab60b61 	.word	0xbab60b61
 8006a84:	3d2aaaab 	.word	0x3d2aaaab
 8006a88:	3f480000 	.word	0x3f480000

08006a8c <__kernel_sinf>:
 8006a8c:	ee10 3a10 	vmov	r3, s0
 8006a90:	f023 4300 	bic.w	r3, r3, #2147483648	@ 0x80000000
 8006a94:	f1b3 5f48 	cmp.w	r3, #838860800	@ 0x32000000
 8006a98:	d204      	bcs.n	8006aa4 <__kernel_sinf+0x18>
 8006a9a:	eefd 7ac0 	vcvt.s32.f32	s15, s0
 8006a9e:	ee17 3a90 	vmov	r3, s15
 8006aa2:	b35b      	cbz	r3, 8006afc <__kernel_sinf+0x70>
 8006aa4:	ee20 7a00 	vmul.f32	s14, s0, s0
 8006aa8:	eddf 7a15 	vldr	s15, [pc, #84]	@ 8006b00 <__kernel_sinf+0x74>
 8006aac:	ed9f 6a15 	vldr	s12, [pc, #84]	@ 8006b04 <__kernel_sinf+0x78>
 8006ab0:	eea7 6a27 	vfma.f32	s12, s14, s15
 8006ab4:	eddf 7a14 	vldr	s15, [pc, #80]	@ 8006b08 <__kernel_sinf+0x7c>
 8006ab8:	eee6 7a07 	vfma.f32	s15, s12, s14
 8006abc:	ed9f 6a13 	vldr	s12, [pc, #76]	@ 8006b0c <__kernel_sinf+0x80>
 8006ac0:	eea7 6a87 	vfma.f32	s12, s15, s14
 8006ac4:	eddf 7a12 	vldr	s15, [pc, #72]	@ 8006b10 <__kernel_sinf+0x84>
 8006ac8:	ee60 6a07 	vmul.f32	s13, s0, s14
 8006acc:	eee6 7a07 	vfma.f32	s15, s12, s14
 8006ad0:	b930      	cbnz	r0, 8006ae0 <__kernel_sinf+0x54>
 8006ad2:	ed9f 6a10 	vldr	s12, [pc, #64]	@ 8006b14 <__kernel_sinf+0x88>
 8006ad6:	eea7 6a27 	vfma.f32	s12, s14, s15
 8006ada:	eea6 0a26 	vfma.f32	s0, s12, s13
 8006ade:	4770      	bx	lr
 8006ae0:	ee67 7ae6 	vnmul.f32	s15, s15, s13
 8006ae4:	eeb6 6a00 	vmov.f32	s12, #96	@ 0x3f000000  0.5
 8006ae8:	eee0 7a86 	vfma.f32	s15, s1, s12
 8006aec:	eed7 0a87 	vfnms.f32	s1, s15, s14
 8006af0:	eddf 7a09 	vldr	s15, [pc, #36]	@ 8006b18 <__kernel_sinf+0x8c>
 8006af4:	eee6 0aa7 	vfma.f32	s1, s13, s15
 8006af8:	ee30 0a60 	vsub.f32	s0, s0, s1
 8006afc:	4770      	bx	lr
 8006afe:	bf00      	nop
 8006b00:	2f2ec9d3 	.word	0x2f2ec9d3
 8006b04:	b2d72f34 	.word	0xb2d72f34
 8006b08:	3638ef1b 	.word	0x3638ef1b
 8006b0c:	b9500d01 	.word	0xb9500d01
 8006b10:	3c088889 	.word	0x3c088889
 8006b14:	be2aaaab 	.word	0xbe2aaaab
 8006b18:	3e2aaaab 	.word	0x3e2aaaab

08006b1c <__ieee754_powf>:
 8006b1c:	e92d 43f8 	stmdb	sp!, {r3, r4, r5, r6, r7, r8, r9, lr}
 8006b20:	ee10 4a90 	vmov	r4, s1
 8006b24:	f034 4900 	bics.w	r9, r4, #2147483648	@ 0x80000000
 8006b28:	ed2d 8b02 	vpush	{d8}
 8006b2c:	ee10 6a10 	vmov	r6, s0
 8006b30:	eeb0 8a40 	vmov.f32	s16, s0
 8006b34:	eef0 8a60 	vmov.f32	s17, s1
 8006b38:	d10c      	bne.n	8006b54 <__ieee754_powf+0x38>
 8006b3a:	f486 0680 	eor.w	r6, r6, #4194304	@ 0x400000
 8006b3e:	0076      	lsls	r6, r6, #1
 8006b40:	f516 0f00 	cmn.w	r6, #8388608	@ 0x800000
 8006b44:	f240 8274 	bls.w	8007030 <__ieee754_powf+0x514>
 8006b48:	ee38 0a28 	vadd.f32	s0, s16, s17
 8006b4c:	ecbd 8b02 	vpop	{d8}
 8006b50:	e8bd 83f8 	ldmia.w	sp!, {r3, r4, r5, r6, r7, r8, r9, pc}
 8006b54:	f026 4800 	bic.w	r8, r6, #2147483648	@ 0x80000000
 8006b58:	f1b8 4fff 	cmp.w	r8, #2139095040	@ 0x7f800000
 8006b5c:	d802      	bhi.n	8006b64 <__ieee754_powf+0x48>
 8006b5e:	f1b9 4fff 	cmp.w	r9, #2139095040	@ 0x7f800000
 8006b62:	d908      	bls.n	8006b76 <__ieee754_powf+0x5a>
 8006b64:	f1b6 5f7e 	cmp.w	r6, #1065353216	@ 0x3f800000
 8006b68:	d1ee      	bne.n	8006b48 <__ieee754_powf+0x2c>
 8006b6a:	f484 0480 	eor.w	r4, r4, #4194304	@ 0x400000
 8006b6e:	0064      	lsls	r4, r4, #1
 8006b70:	f514 0f00 	cmn.w	r4, #8388608	@ 0x800000
 8006b74:	e7e6      	b.n	8006b44 <__ieee754_powf+0x28>
 8006b76:	2e00      	cmp	r6, #0
 8006b78:	da1f      	bge.n	8006bba <__ieee754_powf+0x9e>
 8006b7a:	f1b9 4f97 	cmp.w	r9, #1266679808	@ 0x4b800000
 8006b7e:	f080 8260 	bcs.w	8007042 <__ieee754_powf+0x526>
 8006b82:	f1b9 5f7e 	cmp.w	r9, #1065353216	@ 0x3f800000
 8006b86:	d32f      	bcc.n	8006be8 <__ieee754_powf+0xcc>
 8006b88:	ea4f 53e9 	mov.w	r3, r9, asr #23
 8006b8c:	f1c3 0396 	rsb	r3, r3, #150	@ 0x96
 8006b90:	fa49 f503 	asr.w	r5, r9, r3
 8006b94:	fa05 f303 	lsl.w	r3, r5, r3
 8006b98:	454b      	cmp	r3, r9
 8006b9a:	d123      	bne.n	8006be4 <__ieee754_powf+0xc8>
 8006b9c:	f005 0501 	and.w	r5, r5, #1
 8006ba0:	f1c5 0502 	rsb	r5, r5, #2
 8006ba4:	f1b9 5f7e 	cmp.w	r9, #1065353216	@ 0x3f800000
 8006ba8:	d11f      	bne.n	8006bea <__ieee754_powf+0xce>
 8006baa:	2c00      	cmp	r4, #0
 8006bac:	f280 8246 	bge.w	800703c <__ieee754_powf+0x520>
 8006bb0:	eef7 7a00 	vmov.f32	s15, #112	@ 0x3f800000  1.0
 8006bb4:	ee87 0a88 	vdiv.f32	s0, s15, s16
 8006bb8:	e7c8      	b.n	8006b4c <__ieee754_powf+0x30>
 8006bba:	f1b9 4fff 	cmp.w	r9, #2139095040	@ 0x7f800000
 8006bbe:	d111      	bne.n	8006be4 <__ieee754_powf+0xc8>
 8006bc0:	f1b8 5f7e 	cmp.w	r8, #1065353216	@ 0x3f800000
 8006bc4:	f000 8234 	beq.w	8007030 <__ieee754_powf+0x514>
 8006bc8:	d906      	bls.n	8006bd8 <__ieee754_powf+0xbc>
 8006bca:	ed9f 0ac5 	vldr	s0, [pc, #788]	@ 8006ee0 <__ieee754_powf+0x3c4>
 8006bce:	2c00      	cmp	r4, #0
 8006bd0:	bfa8      	it	ge
 8006bd2:	eeb0 0a68 	vmovge.f32	s0, s17
 8006bd6:	e7b9      	b.n	8006b4c <__ieee754_powf+0x30>
 8006bd8:	2c00      	cmp	r4, #0
 8006bda:	f280 822c 	bge.w	8007036 <__ieee754_powf+0x51a>
 8006bde:	eeb1 0a68 	vneg.f32	s0, s17
 8006be2:	e7b3      	b.n	8006b4c <__ieee754_powf+0x30>
 8006be4:	2500      	movs	r5, #0
 8006be6:	e7dd      	b.n	8006ba4 <__ieee754_powf+0x88>
 8006be8:	2500      	movs	r5, #0
 8006bea:	f1b4 4f80 	cmp.w	r4, #1073741824	@ 0x40000000
 8006bee:	d102      	bne.n	8006bf6 <__ieee754_powf+0xda>
 8006bf0:	ee28 0a08 	vmul.f32	s0, s16, s16
 8006bf4:	e7aa      	b.n	8006b4c <__ieee754_powf+0x30>
 8006bf6:	f1b4 5f7c 	cmp.w	r4, #1056964608	@ 0x3f000000
 8006bfa:	f040 8227 	bne.w	800704c <__ieee754_powf+0x530>
 8006bfe:	2e00      	cmp	r6, #0
 8006c00:	f2c0 8224 	blt.w	800704c <__ieee754_powf+0x530>
 8006c04:	eeb0 0a48 	vmov.f32	s0, s16
 8006c08:	ecbd 8b02 	vpop	{d8}
 8006c0c:	e8bd 43f8 	ldmia.w	sp!, {r3, r4, r5, r6, r7, r8, r9, lr}
 8006c10:	f000 bc16 	b.w	8007440 <__ieee754_sqrtf>
 8006c14:	2d01      	cmp	r5, #1
 8006c16:	d199      	bne.n	8006b4c <__ieee754_powf+0x30>
 8006c18:	eeb1 0a40 	vneg.f32	s0, s0
 8006c1c:	e796      	b.n	8006b4c <__ieee754_powf+0x30>
 8006c1e:	0ff0      	lsrs	r0, r6, #31
 8006c20:	3801      	subs	r0, #1
 8006c22:	ea55 0300 	orrs.w	r3, r5, r0
 8006c26:	d104      	bne.n	8006c32 <__ieee754_powf+0x116>
 8006c28:	ee38 8a48 	vsub.f32	s16, s16, s16
 8006c2c:	ee88 0a08 	vdiv.f32	s0, s16, s16
 8006c30:	e78c      	b.n	8006b4c <__ieee754_powf+0x30>
 8006c32:	f1b9 4f9a 	cmp.w	r9, #1291845632	@ 0x4d000000
 8006c36:	d96d      	bls.n	8006d14 <__ieee754_powf+0x1f8>
 8006c38:	4baa      	ldr	r3, [pc, #680]	@ (8006ee4 <__ieee754_powf+0x3c8>)
 8006c3a:	4598      	cmp	r8, r3
 8006c3c:	d808      	bhi.n	8006c50 <__ieee754_powf+0x134>
 8006c3e:	2c00      	cmp	r4, #0
 8006c40:	da0b      	bge.n	8006c5a <__ieee754_powf+0x13e>
 8006c42:	2000      	movs	r0, #0
 8006c44:	ecbd 8b02 	vpop	{d8}
 8006c48:	e8bd 43f8 	ldmia.w	sp!, {r3, r4, r5, r6, r7, r8, r9, lr}
 8006c4c:	f000 bbf2 	b.w	8007434 <__math_oflowf>
 8006c50:	4ba5      	ldr	r3, [pc, #660]	@ (8006ee8 <__ieee754_powf+0x3cc>)
 8006c52:	4598      	cmp	r8, r3
 8006c54:	d908      	bls.n	8006c68 <__ieee754_powf+0x14c>
 8006c56:	2c00      	cmp	r4, #0
 8006c58:	dcf3      	bgt.n	8006c42 <__ieee754_powf+0x126>
 8006c5a:	2000      	movs	r0, #0
 8006c5c:	ecbd 8b02 	vpop	{d8}
 8006c60:	e8bd 43f8 	ldmia.w	sp!, {r3, r4, r5, r6, r7, r8, r9, lr}
 8006c64:	f000 bbe0 	b.w	8007428 <__math_uflowf>
 8006c68:	eef7 7a00 	vmov.f32	s15, #112	@ 0x3f800000  1.0
 8006c6c:	ee30 0a67 	vsub.f32	s0, s0, s15
 8006c70:	eddf 6a9e 	vldr	s13, [pc, #632]	@ 8006eec <__ieee754_powf+0x3d0>
 8006c74:	eef5 7a00 	vmov.f32	s15, #80	@ 0x3e800000  0.250
 8006c78:	eee0 6a67 	vfms.f32	s13, s0, s15
 8006c7c:	eef6 7a00 	vmov.f32	s15, #96	@ 0x3f000000  0.5
 8006c80:	eee6 7ac0 	vfms.f32	s15, s13, s0
 8006c84:	ee20 7a00 	vmul.f32	s14, s0, s0
 8006c88:	eddf 6a99 	vldr	s13, [pc, #612]	@ 8006ef0 <__ieee754_powf+0x3d4>
 8006c8c:	ee27 7a27 	vmul.f32	s14, s14, s15
 8006c90:	eddf 7a98 	vldr	s15, [pc, #608]	@ 8006ef4 <__ieee754_powf+0x3d8>
 8006c94:	ee67 7ac7 	vnmul.f32	s15, s15, s14
 8006c98:	ed9f 7a97 	vldr	s14, [pc, #604]	@ 8006ef8 <__ieee754_powf+0x3dc>
 8006c9c:	eee0 7a07 	vfma.f32	s15, s0, s14
 8006ca0:	eeb0 7a67 	vmov.f32	s14, s15
 8006ca4:	eea0 7a26 	vfma.f32	s14, s0, s13
 8006ca8:	ee17 3a10 	vmov	r3, s14
 8006cac:	f36f 030b 	bfc	r3, #0, #12
 8006cb0:	ee07 3a10 	vmov	s14, r3
 8006cb4:	eeb0 6a47 	vmov.f32	s12, s14
 8006cb8:	eea0 6a66 	vfms.f32	s12, s0, s13
 8006cbc:	ee77 7ac6 	vsub.f32	s15, s15, s12
 8006cc0:	3d01      	subs	r5, #1
 8006cc2:	4305      	orrs	r5, r0
 8006cc4:	eef7 6a00 	vmov.f32	s13, #112	@ 0x3f800000  1.0
 8006cc8:	eebf 8a00 	vmov.f32	s16, #240	@ 0xbf800000 -1.0
 8006ccc:	f36f 040b 	bfc	r4, #0, #12
 8006cd0:	bf18      	it	ne
 8006cd2:	eeb0 8a66 	vmovne.f32	s16, s13
 8006cd6:	ee06 4a90 	vmov	s13, r4
 8006cda:	ee67 0aa8 	vmul.f32	s1, s15, s17
 8006cde:	ee38 6ae6 	vsub.f32	s12, s17, s13
 8006ce2:	ee67 7a26 	vmul.f32	s15, s14, s13
 8006ce6:	eee6 0a07 	vfma.f32	s1, s12, s14
 8006cea:	ee30 7aa7 	vadd.f32	s14, s1, s15
 8006cee:	ee17 1a10 	vmov	r1, s14
 8006cf2:	2900      	cmp	r1, #0
 8006cf4:	f021 4300 	bic.w	r3, r1, #2147483648	@ 0x80000000
 8006cf8:	f340 80dd 	ble.w	8006eb6 <__ieee754_powf+0x39a>
 8006cfc:	f1b3 4f86 	cmp.w	r3, #1124073472	@ 0x43000000
 8006d00:	f240 80ca 	bls.w	8006e98 <__ieee754_powf+0x37c>
 8006d04:	eeb5 8ac0 	vcmpe.f32	s16, #0.0
 8006d08:	eef1 fa10 	vmrs	APSR_nzcv, fpscr
 8006d0c:	bf4c      	ite	mi
 8006d0e:	2001      	movmi	r0, #1
 8006d10:	2000      	movpl	r0, #0
 8006d12:	e797      	b.n	8006c44 <__ieee754_powf+0x128>
 8006d14:	f016 4fff 	tst.w	r6, #2139095040	@ 0x7f800000
 8006d18:	bf01      	itttt	eq
 8006d1a:	eddf 7a78 	vldreq	s15, [pc, #480]	@ 8006efc <__ieee754_powf+0x3e0>
 8006d1e:	ee60 7a27 	vmuleq.f32	s15, s0, s15
 8006d22:	f06f 0317 	mvneq.w	r3, #23
 8006d26:	ee17 7a90 	vmoveq	r7, s15
 8006d2a:	ea4f 52e7 	mov.w	r2, r7, asr #23
 8006d2e:	bf18      	it	ne
 8006d30:	2300      	movne	r3, #0
 8006d32:	3a7f      	subs	r2, #127	@ 0x7f
 8006d34:	441a      	add	r2, r3
 8006d36:	4b72      	ldr	r3, [pc, #456]	@ (8006f00 <__ieee754_powf+0x3e4>)
 8006d38:	f3c7 0716 	ubfx	r7, r7, #0, #23
 8006d3c:	429f      	cmp	r7, r3
 8006d3e:	f047 517e 	orr.w	r1, r7, #1065353216	@ 0x3f800000
 8006d42:	dd06      	ble.n	8006d52 <__ieee754_powf+0x236>
 8006d44:	4b6f      	ldr	r3, [pc, #444]	@ (8006f04 <__ieee754_powf+0x3e8>)
 8006d46:	429f      	cmp	r7, r3
 8006d48:	f340 80a4 	ble.w	8006e94 <__ieee754_powf+0x378>
 8006d4c:	3201      	adds	r2, #1
 8006d4e:	f5a1 0100 	sub.w	r1, r1, #8388608	@ 0x800000
 8006d52:	2600      	movs	r6, #0
 8006d54:	4b6c      	ldr	r3, [pc, #432]	@ (8006f08 <__ieee754_powf+0x3ec>)
 8006d56:	eb03 0386 	add.w	r3, r3, r6, lsl #2
 8006d5a:	ee07 1a10 	vmov	s14, r1
 8006d5e:	edd3 5a00 	vldr	s11, [r3]
 8006d62:	4b6a      	ldr	r3, [pc, #424]	@ (8006f0c <__ieee754_powf+0x3f0>)
 8006d64:	ee75 7a87 	vadd.f32	s15, s11, s14
 8006d68:	eef7 6a00 	vmov.f32	s13, #112	@ 0x3f800000  1.0
 8006d6c:	eec6 4aa7 	vdiv.f32	s9, s13, s15
 8006d70:	1049      	asrs	r1, r1, #1
 8006d72:	f041 5100 	orr.w	r1, r1, #536870912	@ 0x20000000
 8006d76:	f501 2180 	add.w	r1, r1, #262144	@ 0x40000
 8006d7a:	eb01 5146 	add.w	r1, r1, r6, lsl #21
 8006d7e:	ee37 6a65 	vsub.f32	s12, s14, s11
 8006d82:	ee07 1a90 	vmov	s15, r1
 8006d86:	ee26 5a24 	vmul.f32	s10, s12, s9
 8006d8a:	ee77 5ae5 	vsub.f32	s11, s15, s11
 8006d8e:	ee15 7a10 	vmov	r7, s10
 8006d92:	401f      	ands	r7, r3
 8006d94:	ee06 7a90 	vmov	s13, r7
 8006d98:	eea6 6ae7 	vfms.f32	s12, s13, s15
 8006d9c:	ee37 7a65 	vsub.f32	s14, s14, s11
 8006da0:	ee65 7a05 	vmul.f32	s15, s10, s10
 8006da4:	eea6 6ac7 	vfms.f32	s12, s13, s14
 8006da8:	eddf 5a59 	vldr	s11, [pc, #356]	@ 8006f10 <__ieee754_powf+0x3f4>
 8006dac:	ed9f 7a59 	vldr	s14, [pc, #356]	@ 8006f14 <__ieee754_powf+0x3f8>
 8006db0:	eee7 5a87 	vfma.f32	s11, s15, s14
 8006db4:	ed9f 7a58 	vldr	s14, [pc, #352]	@ 8006f18 <__ieee754_powf+0x3fc>
 8006db8:	eea5 7aa7 	vfma.f32	s14, s11, s15
 8006dbc:	eddf 5a4b 	vldr	s11, [pc, #300]	@ 8006eec <__ieee754_powf+0x3d0>
 8006dc0:	eee7 5a27 	vfma.f32	s11, s14, s15
 8006dc4:	ed9f 7a55 	vldr	s14, [pc, #340]	@ 8006f1c <__ieee754_powf+0x400>
 8006dc8:	eea5 7aa7 	vfma.f32	s14, s11, s15
 8006dcc:	eddf 5a54 	vldr	s11, [pc, #336]	@ 8006f20 <__ieee754_powf+0x404>
 8006dd0:	ee26 6a24 	vmul.f32	s12, s12, s9
 8006dd4:	eee7 5a27 	vfma.f32	s11, s14, s15
 8006dd8:	ee35 7a26 	vadd.f32	s14, s10, s13
 8006ddc:	ee67 4aa7 	vmul.f32	s9, s15, s15
 8006de0:	ee27 7a06 	vmul.f32	s14, s14, s12
 8006de4:	eef0 7a08 	vmov.f32	s15, #8	@ 0x40400000  3.0
 8006de8:	eea4 7aa5 	vfma.f32	s14, s9, s11
 8006dec:	eef0 5a67 	vmov.f32	s11, s15
 8006df0:	eee6 5aa6 	vfma.f32	s11, s13, s13
 8006df4:	ee75 5a87 	vadd.f32	s11, s11, s14
 8006df8:	ee15 1a90 	vmov	r1, s11
 8006dfc:	4019      	ands	r1, r3
 8006dfe:	ee05 1a90 	vmov	s11, r1
 8006e02:	ee75 7ae7 	vsub.f32	s15, s11, s15
 8006e06:	eee6 7ae6 	vfms.f32	s15, s13, s13
 8006e0a:	ee77 7a67 	vsub.f32	s15, s14, s15
 8006e0e:	ee67 7a85 	vmul.f32	s15, s15, s10
 8006e12:	eee6 7a25 	vfma.f32	s15, s12, s11
 8006e16:	eeb0 6a67 	vmov.f32	s12, s15
 8006e1a:	eea6 6aa5 	vfma.f32	s12, s13, s11
 8006e1e:	ee16 1a10 	vmov	r1, s12
 8006e22:	4019      	ands	r1, r3
 8006e24:	ee06 1a10 	vmov	s12, r1
 8006e28:	eeb0 7a46 	vmov.f32	s14, s12
 8006e2c:	eea6 7ae5 	vfms.f32	s14, s13, s11
 8006e30:	493c      	ldr	r1, [pc, #240]	@ (8006f24 <__ieee754_powf+0x408>)
 8006e32:	eb01 0186 	add.w	r1, r1, r6, lsl #2
 8006e36:	ee77 7ac7 	vsub.f32	s15, s15, s14
 8006e3a:	ed9f 7a3b 	vldr	s14, [pc, #236]	@ 8006f28 <__ieee754_powf+0x40c>
 8006e3e:	eddf 5a3b 	vldr	s11, [pc, #236]	@ 8006f2c <__ieee754_powf+0x410>
 8006e42:	ee67 7a87 	vmul.f32	s15, s15, s14
 8006e46:	ed9f 7a3a 	vldr	s14, [pc, #232]	@ 8006f30 <__ieee754_powf+0x414>
 8006e4a:	eee6 7a07 	vfma.f32	s15, s12, s14
 8006e4e:	ed91 7a00 	vldr	s14, [r1]
 8006e52:	ee77 7a87 	vadd.f32	s15, s15, s14
 8006e56:	ee07 2a10 	vmov	s14, r2
 8006e5a:	4a36      	ldr	r2, [pc, #216]	@ (8006f34 <__ieee754_powf+0x418>)
 8006e5c:	eef8 6ac7 	vcvt.f32.s32	s13, s14
 8006e60:	eeb0 7a67 	vmov.f32	s14, s15
 8006e64:	eea6 7a25 	vfma.f32	s14, s12, s11
 8006e68:	eb02 0286 	add.w	r2, r2, r6, lsl #2
 8006e6c:	ed92 5a00 	vldr	s10, [r2]
 8006e70:	ee37 7a05 	vadd.f32	s14, s14, s10
 8006e74:	ee37 7a26 	vadd.f32	s14, s14, s13
 8006e78:	ee17 2a10 	vmov	r2, s14
 8006e7c:	401a      	ands	r2, r3
 8006e7e:	ee07 2a10 	vmov	s14, r2
 8006e82:	ee77 6a66 	vsub.f32	s13, s14, s13
 8006e86:	ee76 6ac5 	vsub.f32	s13, s13, s10
 8006e8a:	eee6 6a65 	vfms.f32	s13, s12, s11
 8006e8e:	ee77 7ae6 	vsub.f32	s15, s15, s13
 8006e92:	e715      	b.n	8006cc0 <__ieee754_powf+0x1a4>
 8006e94:	2601      	movs	r6, #1
 8006e96:	e75d      	b.n	8006d54 <__ieee754_powf+0x238>
 8006e98:	d152      	bne.n	8006f40 <__ieee754_powf+0x424>
 8006e9a:	eddf 6a27 	vldr	s13, [pc, #156]	@ 8006f38 <__ieee754_powf+0x41c>
 8006e9e:	ee37 7a67 	vsub.f32	s14, s14, s15
 8006ea2:	ee70 6aa6 	vadd.f32	s13, s1, s13
 8006ea6:	eef4 6ac7 	vcmpe.f32	s13, s14
 8006eaa:	eef1 fa10 	vmrs	APSR_nzcv, fpscr
 8006eae:	f73f af29 	bgt.w	8006d04 <__ieee754_powf+0x1e8>
 8006eb2:	2386      	movs	r3, #134	@ 0x86
 8006eb4:	e048      	b.n	8006f48 <__ieee754_powf+0x42c>
 8006eb6:	4a21      	ldr	r2, [pc, #132]	@ (8006f3c <__ieee754_powf+0x420>)
 8006eb8:	4293      	cmp	r3, r2
 8006eba:	d907      	bls.n	8006ecc <__ieee754_powf+0x3b0>
 8006ebc:	eeb5 8ac0 	vcmpe.f32	s16, #0.0
 8006ec0:	eef1 fa10 	vmrs	APSR_nzcv, fpscr
 8006ec4:	bf4c      	ite	mi
 8006ec6:	2001      	movmi	r0, #1
 8006ec8:	2000      	movpl	r0, #0
 8006eca:	e6c7      	b.n	8006c5c <__ieee754_powf+0x140>
 8006ecc:	d138      	bne.n	8006f40 <__ieee754_powf+0x424>
 8006ece:	ee37 7a67 	vsub.f32	s14, s14, s15
 8006ed2:	eeb4 7ae0 	vcmpe.f32	s14, s1
 8006ed6:	eef1 fa10 	vmrs	APSR_nzcv, fpscr
 8006eda:	dbea      	blt.n	8006eb2 <__ieee754_powf+0x396>
 8006edc:	e7ee      	b.n	8006ebc <__ieee754_powf+0x3a0>
 8006ede:	bf00      	nop
 8006ee0:	00000000 	.word	0x00000000
 8006ee4:	3f7ffff3 	.word	0x3f7ffff3
 8006ee8:	3f800007 	.word	0x3f800007
 8006eec:	3eaaaaab 	.word	0x3eaaaaab
 8006ef0:	3fb8aa00 	.word	0x3fb8aa00
 8006ef4:	3fb8aa3b 	.word	0x3fb8aa3b
 8006ef8:	36eca570 	.word	0x36eca570
 8006efc:	4b800000 	.word	0x4b800000
 8006f00:	001cc471 	.word	0x001cc471
 8006f04:	005db3d6 	.word	0x005db3d6
 8006f08:	08007a40 	.word	0x08007a40
 8006f0c:	fffff000 	.word	0xfffff000
 8006f10:	3e6c3255 	.word	0x3e6c3255
 8006f14:	3e53f142 	.word	0x3e53f142
 8006f18:	3e8ba305 	.word	0x3e8ba305
 8006f1c:	3edb6db7 	.word	0x3edb6db7
 8006f20:	3f19999a 	.word	0x3f19999a
 8006f24:	08007a30 	.word	0x08007a30
 8006f28:	3f76384f 	.word	0x3f76384f
 8006f2c:	3f763800 	.word	0x3f763800
 8006f30:	369dc3a0 	.word	0x369dc3a0
 8006f34:	08007a38 	.word	0x08007a38
 8006f38:	3338aa3c 	.word	0x3338aa3c
 8006f3c:	43160000 	.word	0x43160000
 8006f40:	f1b3 5f7c 	cmp.w	r3, #1056964608	@ 0x3f000000
 8006f44:	d96f      	bls.n	8007026 <__ieee754_powf+0x50a>
 8006f46:	15db      	asrs	r3, r3, #23
 8006f48:	3b7e      	subs	r3, #126	@ 0x7e
 8006f4a:	f44f 0000 	mov.w	r0, #8388608	@ 0x800000
 8006f4e:	4118      	asrs	r0, r3
 8006f50:	4408      	add	r0, r1
 8006f52:	f3c0 53c7 	ubfx	r3, r0, #23, #8
 8006f56:	4a4e      	ldr	r2, [pc, #312]	@ (8007090 <__ieee754_powf+0x574>)
 8006f58:	3b7f      	subs	r3, #127	@ 0x7f
 8006f5a:	411a      	asrs	r2, r3
 8006f5c:	4002      	ands	r2, r0
 8006f5e:	ee07 2a10 	vmov	s14, r2
 8006f62:	f3c0 0016 	ubfx	r0, r0, #0, #23
 8006f66:	f440 0000 	orr.w	r0, r0, #8388608	@ 0x800000
 8006f6a:	f1c3 0317 	rsb	r3, r3, #23
 8006f6e:	4118      	asrs	r0, r3
 8006f70:	2900      	cmp	r1, #0
 8006f72:	ee77 7ac7 	vsub.f32	s15, s15, s14
 8006f76:	bfb8      	it	lt
 8006f78:	4240      	neglt	r0, r0
 8006f7a:	ee77 6aa0 	vadd.f32	s13, s15, s1
 8006f7e:	ed9f 7a45 	vldr	s14, [pc, #276]	@ 8007094 <__ieee754_powf+0x578>
 8006f82:	ed9f 6a45 	vldr	s12, [pc, #276]	@ 8007098 <__ieee754_powf+0x57c>
 8006f86:	ee16 3a90 	vmov	r3, s13
 8006f8a:	f36f 030b 	bfc	r3, #0, #12
 8006f8e:	ee06 3a90 	vmov	s13, r3
 8006f92:	ee76 7ae7 	vsub.f32	s15, s13, s15
 8006f96:	eeb7 0a00 	vmov.f32	s0, #112	@ 0x3f800000  1.0
 8006f9a:	ee70 0ae7 	vsub.f32	s1, s1, s15
 8006f9e:	eddf 7a3f 	vldr	s15, [pc, #252]	@ 800709c <__ieee754_powf+0x580>
 8006fa2:	ee66 7aa7 	vmul.f32	s15, s13, s15
 8006fa6:	eee0 7a87 	vfma.f32	s15, s1, s14
 8006faa:	eeb0 7a67 	vmov.f32	s14, s15
 8006fae:	eea6 7a86 	vfma.f32	s14, s13, s12
 8006fb2:	eef0 5a47 	vmov.f32	s11, s14
 8006fb6:	eee6 5ac6 	vfms.f32	s11, s13, s12
 8006fba:	ee67 6a07 	vmul.f32	s13, s14, s14
 8006fbe:	ee77 7ae5 	vsub.f32	s15, s15, s11
 8006fc2:	ed9f 6a37 	vldr	s12, [pc, #220]	@ 80070a0 <__ieee754_powf+0x584>
 8006fc6:	eddf 5a37 	vldr	s11, [pc, #220]	@ 80070a4 <__ieee754_powf+0x588>
 8006fca:	eea6 6aa5 	vfma.f32	s12, s13, s11
 8006fce:	eddf 5a36 	vldr	s11, [pc, #216]	@ 80070a8 <__ieee754_powf+0x58c>
 8006fd2:	eee6 5a26 	vfma.f32	s11, s12, s13
 8006fd6:	ed9f 6a35 	vldr	s12, [pc, #212]	@ 80070ac <__ieee754_powf+0x590>
 8006fda:	eea5 6aa6 	vfma.f32	s12, s11, s13
 8006fde:	eddf 5a34 	vldr	s11, [pc, #208]	@ 80070b0 <__ieee754_powf+0x594>
 8006fe2:	eee6 5a26 	vfma.f32	s11, s12, s13
 8006fe6:	eeb0 6a47 	vmov.f32	s12, s14
 8006fea:	eea5 6ae6 	vfms.f32	s12, s11, s13
 8006fee:	eef0 6a00 	vmov.f32	s13, #0	@ 0x40000000  2.0
 8006ff2:	ee67 5a06 	vmul.f32	s11, s14, s12
 8006ff6:	ee36 6a66 	vsub.f32	s12, s12, s13
 8006ffa:	eee7 7a27 	vfma.f32	s15, s14, s15
 8006ffe:	eec5 6a86 	vdiv.f32	s13, s11, s12
 8007002:	ee76 7ae7 	vsub.f32	s15, s13, s15
 8007006:	ee77 7ac7 	vsub.f32	s15, s15, s14
 800700a:	ee30 0a67 	vsub.f32	s0, s0, s15
 800700e:	ee10 3a10 	vmov	r3, s0
 8007012:	eb03 53c0 	add.w	r3, r3, r0, lsl #23
 8007016:	f5b3 0f00 	cmp.w	r3, #8388608	@ 0x800000
 800701a:	da06      	bge.n	800702a <__ieee754_powf+0x50e>
 800701c:	f000 f984 	bl	8007328 <scalbnf>
 8007020:	ee20 0a08 	vmul.f32	s0, s0, s16
 8007024:	e592      	b.n	8006b4c <__ieee754_powf+0x30>
 8007026:	2000      	movs	r0, #0
 8007028:	e7a7      	b.n	8006f7a <__ieee754_powf+0x45e>
 800702a:	ee00 3a10 	vmov	s0, r3
 800702e:	e7f7      	b.n	8007020 <__ieee754_powf+0x504>
 8007030:	eeb7 0a00 	vmov.f32	s0, #112	@ 0x3f800000  1.0
 8007034:	e58a      	b.n	8006b4c <__ieee754_powf+0x30>
 8007036:	ed9f 0a1f 	vldr	s0, [pc, #124]	@ 80070b4 <__ieee754_powf+0x598>
 800703a:	e587      	b.n	8006b4c <__ieee754_powf+0x30>
 800703c:	eeb0 0a48 	vmov.f32	s0, s16
 8007040:	e584      	b.n	8006b4c <__ieee754_powf+0x30>
 8007042:	f1b9 4fff 	cmp.w	r9, #2139095040	@ 0x7f800000
 8007046:	f43f adbb 	beq.w	8006bc0 <__ieee754_powf+0xa4>
 800704a:	2502      	movs	r5, #2
 800704c:	eeb0 0a48 	vmov.f32	s0, s16
 8007050:	f000 f962 	bl	8007318 <fabsf>
 8007054:	f026 4340 	bic.w	r3, r6, #3221225472	@ 0xc0000000
 8007058:	f1b3 5f7e 	cmp.w	r3, #1065353216	@ 0x3f800000
 800705c:	4647      	mov	r7, r8
 800705e:	d003      	beq.n	8007068 <__ieee754_powf+0x54c>
 8007060:	f1b8 0f00 	cmp.w	r8, #0
 8007064:	f47f addb 	bne.w	8006c1e <__ieee754_powf+0x102>
 8007068:	2c00      	cmp	r4, #0
 800706a:	bfbc      	itt	lt
 800706c:	eef7 7a00 	vmovlt.f32	s15, #112	@ 0x3f800000  1.0
 8007070:	ee87 0a80 	vdivlt.f32	s0, s15, s0
 8007074:	2e00      	cmp	r6, #0
 8007076:	f6bf ad69 	bge.w	8006b4c <__ieee754_powf+0x30>
 800707a:	f1a8 587e 	sub.w	r8, r8, #1065353216	@ 0x3f800000
 800707e:	ea58 0805 	orrs.w	r8, r8, r5
 8007082:	f47f adc7 	bne.w	8006c14 <__ieee754_powf+0xf8>
 8007086:	ee70 7a40 	vsub.f32	s15, s0, s0
 800708a:	ee87 0aa7 	vdiv.f32	s0, s15, s15
 800708e:	e55d      	b.n	8006b4c <__ieee754_powf+0x30>
 8007090:	ff800000 	.word	0xff800000
 8007094:	3f317218 	.word	0x3f317218
 8007098:	3f317200 	.word	0x3f317200
 800709c:	35bfbe8c 	.word	0x35bfbe8c
 80070a0:	b5ddea0e 	.word	0xb5ddea0e
 80070a4:	3331bb4c 	.word	0x3331bb4c
 80070a8:	388ab355 	.word	0x388ab355
 80070ac:	bb360b61 	.word	0xbb360b61
 80070b0:	3e2aaaab 	.word	0x3e2aaaab
 80070b4:	00000000 	.word	0x00000000

080070b8 <__ieee754_rem_pio2f>:
 80070b8:	b5f0      	push	{r4, r5, r6, r7, lr}
 80070ba:	ee10 6a10 	vmov	r6, s0
 80070be:	4b88      	ldr	r3, [pc, #544]	@ (80072e0 <__ieee754_rem_pio2f+0x228>)
 80070c0:	f026 4500 	bic.w	r5, r6, #2147483648	@ 0x80000000
 80070c4:	429d      	cmp	r5, r3
 80070c6:	b087      	sub	sp, #28
 80070c8:	4604      	mov	r4, r0
 80070ca:	d805      	bhi.n	80070d8 <__ieee754_rem_pio2f+0x20>
 80070cc:	2300      	movs	r3, #0
 80070ce:	ed80 0a00 	vstr	s0, [r0]
 80070d2:	6043      	str	r3, [r0, #4]
 80070d4:	2000      	movs	r0, #0
 80070d6:	e022      	b.n	800711e <__ieee754_rem_pio2f+0x66>
 80070d8:	4b82      	ldr	r3, [pc, #520]	@ (80072e4 <__ieee754_rem_pio2f+0x22c>)
 80070da:	429d      	cmp	r5, r3
 80070dc:	d83a      	bhi.n	8007154 <__ieee754_rem_pio2f+0x9c>
 80070de:	f026 4300 	bic.w	r3, r6, #2147483648	@ 0x80000000
 80070e2:	2e00      	cmp	r6, #0
 80070e4:	ed9f 7a80 	vldr	s14, [pc, #512]	@ 80072e8 <__ieee754_rem_pio2f+0x230>
 80070e8:	4a80      	ldr	r2, [pc, #512]	@ (80072ec <__ieee754_rem_pio2f+0x234>)
 80070ea:	f023 030f 	bic.w	r3, r3, #15
 80070ee:	dd18      	ble.n	8007122 <__ieee754_rem_pio2f+0x6a>
 80070f0:	4293      	cmp	r3, r2
 80070f2:	ee70 7a47 	vsub.f32	s15, s0, s14
 80070f6:	bf09      	itett	eq
 80070f8:	ed9f 7a7d 	vldreq	s14, [pc, #500]	@ 80072f0 <__ieee754_rem_pio2f+0x238>
 80070fc:	eddf 6a7d 	vldrne	s13, [pc, #500]	@ 80072f4 <__ieee754_rem_pio2f+0x23c>
 8007100:	eddf 6a7d 	vldreq	s13, [pc, #500]	@ 80072f8 <__ieee754_rem_pio2f+0x240>
 8007104:	ee77 7ac7 	vsubeq.f32	s15, s15, s14
 8007108:	ee37 7ae6 	vsub.f32	s14, s15, s13
 800710c:	ee77 7ac7 	vsub.f32	s15, s15, s14
 8007110:	ed80 7a00 	vstr	s14, [r0]
 8007114:	ee77 7ae6 	vsub.f32	s15, s15, s13
 8007118:	edc0 7a01 	vstr	s15, [r0, #4]
 800711c:	2001      	movs	r0, #1
 800711e:	b007      	add	sp, #28
 8007120:	bdf0      	pop	{r4, r5, r6, r7, pc}
 8007122:	4293      	cmp	r3, r2
 8007124:	ee70 7a07 	vadd.f32	s15, s0, s14
 8007128:	bf09      	itett	eq
 800712a:	ed9f 7a71 	vldreq	s14, [pc, #452]	@ 80072f0 <__ieee754_rem_pio2f+0x238>
 800712e:	eddf 6a71 	vldrne	s13, [pc, #452]	@ 80072f4 <__ieee754_rem_pio2f+0x23c>
 8007132:	eddf 6a71 	vldreq	s13, [pc, #452]	@ 80072f8 <__ieee754_rem_pio2f+0x240>
 8007136:	ee77 7a87 	vaddeq.f32	s15, s15, s14
 800713a:	ee37 7aa6 	vadd.f32	s14, s15, s13
 800713e:	ee77 7ac7 	vsub.f32	s15, s15, s14
 8007142:	ed80 7a00 	vstr	s14, [r0]
 8007146:	ee77 7aa6 	vadd.f32	s15, s15, s13
 800714a:	edc0 7a01 	vstr	s15, [r0, #4]
 800714e:	f04f 30ff 	mov.w	r0, #4294967295
 8007152:	e7e4      	b.n	800711e <__ieee754_rem_pio2f+0x66>
 8007154:	4b69      	ldr	r3, [pc, #420]	@ (80072fc <__ieee754_rem_pio2f+0x244>)
 8007156:	429d      	cmp	r5, r3
 8007158:	d873      	bhi.n	8007242 <__ieee754_rem_pio2f+0x18a>
 800715a:	f000 f8dd 	bl	8007318 <fabsf>
 800715e:	ed9f 7a68 	vldr	s14, [pc, #416]	@ 8007300 <__ieee754_rem_pio2f+0x248>
 8007162:	eef6 7a00 	vmov.f32	s15, #96	@ 0x3f000000  0.5
 8007166:	eee0 7a07 	vfma.f32	s15, s0, s14
 800716a:	eefd 7ae7 	vcvt.s32.f32	s15, s15
 800716e:	eeb8 7ae7 	vcvt.f32.s32	s14, s15
 8007172:	ee17 0a90 	vmov	r0, s15
 8007176:	eddf 7a5c 	vldr	s15, [pc, #368]	@ 80072e8 <__ieee754_rem_pio2f+0x230>
 800717a:	eea7 0a67 	vfms.f32	s0, s14, s15
 800717e:	281f      	cmp	r0, #31
 8007180:	eddf 7a5c 	vldr	s15, [pc, #368]	@ 80072f4 <__ieee754_rem_pio2f+0x23c>
 8007184:	ee67 7a27 	vmul.f32	s15, s14, s15
 8007188:	eeb1 6a47 	vneg.f32	s12, s14
 800718c:	ee70 6a67 	vsub.f32	s13, s0, s15
 8007190:	ee16 1a90 	vmov	r1, s13
 8007194:	dc09      	bgt.n	80071aa <__ieee754_rem_pio2f+0xf2>
 8007196:	4a5b      	ldr	r2, [pc, #364]	@ (8007304 <__ieee754_rem_pio2f+0x24c>)
 8007198:	1e47      	subs	r7, r0, #1
 800719a:	f026 4300 	bic.w	r3, r6, #2147483648	@ 0x80000000
 800719e:	f852 2027 	ldr.w	r2, [r2, r7, lsl #2]
 80071a2:	f023 03ff 	bic.w	r3, r3, #255	@ 0xff
 80071a6:	4293      	cmp	r3, r2
 80071a8:	d107      	bne.n	80071ba <__ieee754_rem_pio2f+0x102>
 80071aa:	f3c1 52c7 	ubfx	r2, r1, #23, #8
 80071ae:	ebc2 52d5 	rsb	r2, r2, r5, lsr #23
 80071b2:	2a08      	cmp	r2, #8
 80071b4:	ea4f 53e5 	mov.w	r3, r5, asr #23
 80071b8:	dc14      	bgt.n	80071e4 <__ieee754_rem_pio2f+0x12c>
 80071ba:	6021      	str	r1, [r4, #0]
 80071bc:	ed94 7a00 	vldr	s14, [r4]
 80071c0:	ee30 0a47 	vsub.f32	s0, s0, s14
 80071c4:	2e00      	cmp	r6, #0
 80071c6:	ee30 0a67 	vsub.f32	s0, s0, s15
 80071ca:	ed84 0a01 	vstr	s0, [r4, #4]
 80071ce:	daa6      	bge.n	800711e <__ieee754_rem_pio2f+0x66>
 80071d0:	eeb1 7a47 	vneg.f32	s14, s14
 80071d4:	eeb1 0a40 	vneg.f32	s0, s0
 80071d8:	ed84 7a00 	vstr	s14, [r4]
 80071dc:	ed84 0a01 	vstr	s0, [r4, #4]
 80071e0:	4240      	negs	r0, r0
 80071e2:	e79c      	b.n	800711e <__ieee754_rem_pio2f+0x66>
 80071e4:	eddf 5a42 	vldr	s11, [pc, #264]	@ 80072f0 <__ieee754_rem_pio2f+0x238>
 80071e8:	eef0 6a40 	vmov.f32	s13, s0
 80071ec:	eee6 6a25 	vfma.f32	s13, s12, s11
 80071f0:	ee70 7a66 	vsub.f32	s15, s0, s13
 80071f4:	eee6 7a25 	vfma.f32	s15, s12, s11
 80071f8:	eddf 5a3f 	vldr	s11, [pc, #252]	@ 80072f8 <__ieee754_rem_pio2f+0x240>
 80071fc:	eed7 7a25 	vfnms.f32	s15, s14, s11
 8007200:	ee76 5ae7 	vsub.f32	s11, s13, s15
 8007204:	ee15 2a90 	vmov	r2, s11
 8007208:	f3c2 51c7 	ubfx	r1, r2, #23, #8
 800720c:	1a5b      	subs	r3, r3, r1
 800720e:	2b19      	cmp	r3, #25
 8007210:	dc04      	bgt.n	800721c <__ieee754_rem_pio2f+0x164>
 8007212:	edc4 5a00 	vstr	s11, [r4]
 8007216:	eeb0 0a66 	vmov.f32	s0, s13
 800721a:	e7cf      	b.n	80071bc <__ieee754_rem_pio2f+0x104>
 800721c:	eddf 5a3a 	vldr	s11, [pc, #232]	@ 8007308 <__ieee754_rem_pio2f+0x250>
 8007220:	eeb0 0a66 	vmov.f32	s0, s13
 8007224:	eea6 0a25 	vfma.f32	s0, s12, s11
 8007228:	ee76 7ac0 	vsub.f32	s15, s13, s0
 800722c:	eddf 6a37 	vldr	s13, [pc, #220]	@ 800730c <__ieee754_rem_pio2f+0x254>
 8007230:	eee6 7a25 	vfma.f32	s15, s12, s11
 8007234:	eed7 7a26 	vfnms.f32	s15, s14, s13
 8007238:	ee30 7a67 	vsub.f32	s14, s0, s15
 800723c:	ed84 7a00 	vstr	s14, [r4]
 8007240:	e7bc      	b.n	80071bc <__ieee754_rem_pio2f+0x104>
 8007242:	f1b5 4fff 	cmp.w	r5, #2139095040	@ 0x7f800000
 8007246:	d306      	bcc.n	8007256 <__ieee754_rem_pio2f+0x19e>
 8007248:	ee70 7a40 	vsub.f32	s15, s0, s0
 800724c:	edc0 7a01 	vstr	s15, [r0, #4]
 8007250:	edc0 7a00 	vstr	s15, [r0]
 8007254:	e73e      	b.n	80070d4 <__ieee754_rem_pio2f+0x1c>
 8007256:	15ea      	asrs	r2, r5, #23
 8007258:	3a86      	subs	r2, #134	@ 0x86
 800725a:	eba5 53c2 	sub.w	r3, r5, r2, lsl #23
 800725e:	ee07 3a90 	vmov	s15, r3
 8007262:	eebd 7ae7 	vcvt.s32.f32	s14, s15
 8007266:	eddf 6a2a 	vldr	s13, [pc, #168]	@ 8007310 <__ieee754_rem_pio2f+0x258>
 800726a:	eeb8 7ac7 	vcvt.f32.s32	s14, s14
 800726e:	ee77 7ac7 	vsub.f32	s15, s15, s14
 8007272:	ed8d 7a03 	vstr	s14, [sp, #12]
 8007276:	ee67 7aa6 	vmul.f32	s15, s15, s13
 800727a:	eebd 7ae7 	vcvt.s32.f32	s14, s15
 800727e:	eeb8 7ac7 	vcvt.f32.s32	s14, s14
 8007282:	ee77 7ac7 	vsub.f32	s15, s15, s14
 8007286:	ed8d 7a04 	vstr	s14, [sp, #16]
 800728a:	ee67 7aa6 	vmul.f32	s15, s15, s13
 800728e:	eef5 7a40 	vcmp.f32	s15, #0.0
 8007292:	eef1 fa10 	vmrs	APSR_nzcv, fpscr
 8007296:	edcd 7a05 	vstr	s15, [sp, #20]
 800729a:	d11e      	bne.n	80072da <__ieee754_rem_pio2f+0x222>
 800729c:	eeb5 7a40 	vcmp.f32	s14, #0.0
 80072a0:	eef1 fa10 	vmrs	APSR_nzcv, fpscr
 80072a4:	bf0c      	ite	eq
 80072a6:	2301      	moveq	r3, #1
 80072a8:	2302      	movne	r3, #2
 80072aa:	491a      	ldr	r1, [pc, #104]	@ (8007314 <__ieee754_rem_pio2f+0x25c>)
 80072ac:	9101      	str	r1, [sp, #4]
 80072ae:	2102      	movs	r1, #2
 80072b0:	9100      	str	r1, [sp, #0]
 80072b2:	a803      	add	r0, sp, #12
 80072b4:	4621      	mov	r1, r4
 80072b6:	f000 f8c7 	bl	8007448 <__kernel_rem_pio2f>
 80072ba:	2e00      	cmp	r6, #0
 80072bc:	f6bf af2f 	bge.w	800711e <__ieee754_rem_pio2f+0x66>
 80072c0:	edd4 7a00 	vldr	s15, [r4]
 80072c4:	eef1 7a67 	vneg.f32	s15, s15
 80072c8:	edc4 7a00 	vstr	s15, [r4]
 80072cc:	edd4 7a01 	vldr	s15, [r4, #4]
 80072d0:	eef1 7a67 	vneg.f32	s15, s15
 80072d4:	edc4 7a01 	vstr	s15, [r4, #4]
 80072d8:	e782      	b.n	80071e0 <__ieee754_rem_pio2f+0x128>
 80072da:	2303      	movs	r3, #3
 80072dc:	e7e5      	b.n	80072aa <__ieee754_rem_pio2f+0x1f2>
 80072de:	bf00      	nop
 80072e0:	3f490fd8 	.word	0x3f490fd8
 80072e4:	4016cbe3 	.word	0x4016cbe3
 80072e8:	3fc90f80 	.word	0x3fc90f80
 80072ec:	3fc90fd0 	.word	0x3fc90fd0
 80072f0:	37354400 	.word	0x37354400
 80072f4:	37354443 	.word	0x37354443
 80072f8:	2e85a308 	.word	0x2e85a308
 80072fc:	43490f80 	.word	0x43490f80
 8007300:	3f22f984 	.word	0x3f22f984
 8007304:	08007a48 	.word	0x08007a48
 8007308:	2e85a300 	.word	0x2e85a300
 800730c:	248d3132 	.word	0x248d3132
 8007310:	43800000 	.word	0x43800000
 8007314:	08007ac8 	.word	0x08007ac8

08007318 <fabsf>:
 8007318:	ee10 3a10 	vmov	r3, s0
 800731c:	f023 4300 	bic.w	r3, r3, #2147483648	@ 0x80000000
 8007320:	ee00 3a10 	vmov	s0, r3
 8007324:	4770      	bx	lr
	...

08007328 <scalbnf>:
 8007328:	ee10 3a10 	vmov	r3, s0
 800732c:	f033 4200 	bics.w	r2, r3, #2147483648	@ 0x80000000
 8007330:	d02b      	beq.n	800738a <scalbnf+0x62>
 8007332:	f1b2 4fff 	cmp.w	r2, #2139095040	@ 0x7f800000
 8007336:	d302      	bcc.n	800733e <scalbnf+0x16>
 8007338:	ee30 0a00 	vadd.f32	s0, s0, s0
 800733c:	4770      	bx	lr
 800733e:	f013 4fff 	tst.w	r3, #2139095040	@ 0x7f800000
 8007342:	d123      	bne.n	800738c <scalbnf+0x64>
 8007344:	4b24      	ldr	r3, [pc, #144]	@ (80073d8 <scalbnf+0xb0>)
 8007346:	eddf 7a25 	vldr	s15, [pc, #148]	@ 80073dc <scalbnf+0xb4>
 800734a:	4298      	cmp	r0, r3
 800734c:	ee20 0a27 	vmul.f32	s0, s0, s15
 8007350:	db17      	blt.n	8007382 <scalbnf+0x5a>
 8007352:	ee10 3a10 	vmov	r3, s0
 8007356:	f3c3 52c7 	ubfx	r2, r3, #23, #8
 800735a:	3a19      	subs	r2, #25
 800735c:	f24c 3150 	movw	r1, #50000	@ 0xc350
 8007360:	4288      	cmp	r0, r1
 8007362:	dd15      	ble.n	8007390 <scalbnf+0x68>
 8007364:	eddf 7a1e 	vldr	s15, [pc, #120]	@ 80073e0 <scalbnf+0xb8>
 8007368:	eddf 6a1e 	vldr	s13, [pc, #120]	@ 80073e4 <scalbnf+0xbc>
 800736c:	ee10 3a10 	vmov	r3, s0
 8007370:	eeb0 7a67 	vmov.f32	s14, s15
 8007374:	2b00      	cmp	r3, #0
 8007376:	bfb8      	it	lt
 8007378:	eef0 7a66 	vmovlt.f32	s15, s13
 800737c:	ee27 0a87 	vmul.f32	s0, s15, s14
 8007380:	4770      	bx	lr
 8007382:	eddf 7a19 	vldr	s15, [pc, #100]	@ 80073e8 <scalbnf+0xc0>
 8007386:	ee27 0a80 	vmul.f32	s0, s15, s0
 800738a:	4770      	bx	lr
 800738c:	0dd2      	lsrs	r2, r2, #23
 800738e:	e7e5      	b.n	800735c <scalbnf+0x34>
 8007390:	4410      	add	r0, r2
 8007392:	28fe      	cmp	r0, #254	@ 0xfe
 8007394:	dce6      	bgt.n	8007364 <scalbnf+0x3c>
 8007396:	2800      	cmp	r0, #0
 8007398:	dd06      	ble.n	80073a8 <scalbnf+0x80>
 800739a:	f023 43ff 	bic.w	r3, r3, #2139095040	@ 0x7f800000
 800739e:	ea43 53c0 	orr.w	r3, r3, r0, lsl #23
 80073a2:	ee00 3a10 	vmov	s0, r3
 80073a6:	4770      	bx	lr
 80073a8:	f110 0f16 	cmn.w	r0, #22
 80073ac:	da09      	bge.n	80073c2 <scalbnf+0x9a>
 80073ae:	eddf 7a0e 	vldr	s15, [pc, #56]	@ 80073e8 <scalbnf+0xc0>
 80073b2:	eddf 6a0e 	vldr	s13, [pc, #56]	@ 80073ec <scalbnf+0xc4>
 80073b6:	ee10 3a10 	vmov	r3, s0
 80073ba:	eeb0 7a67 	vmov.f32	s14, s15
 80073be:	2b00      	cmp	r3, #0
 80073c0:	e7d9      	b.n	8007376 <scalbnf+0x4e>
 80073c2:	3019      	adds	r0, #25
 80073c4:	f023 43ff 	bic.w	r3, r3, #2139095040	@ 0x7f800000
 80073c8:	ea43 53c0 	orr.w	r3, r3, r0, lsl #23
 80073cc:	ed9f 0a08 	vldr	s0, [pc, #32]	@ 80073f0 <scalbnf+0xc8>
 80073d0:	ee07 3a90 	vmov	s15, r3
 80073d4:	e7d7      	b.n	8007386 <scalbnf+0x5e>
 80073d6:	bf00      	nop
 80073d8:	ffff3cb0 	.word	0xffff3cb0
 80073dc:	4c000000 	.word	0x4c000000
 80073e0:	7149f2ca 	.word	0x7149f2ca
 80073e4:	f149f2ca 	.word	0xf149f2ca
 80073e8:	0da24260 	.word	0x0da24260
 80073ec:	8da24260 	.word	0x8da24260
 80073f0:	33000000 	.word	0x33000000

080073f4 <with_errnof>:
 80073f4:	b510      	push	{r4, lr}
 80073f6:	ed2d 8b02 	vpush	{d8}
 80073fa:	eeb0 8a40 	vmov.f32	s16, s0
 80073fe:	4604      	mov	r4, r0
 8007400:	f7ff f9c4 	bl	800678c <__errno>
 8007404:	eeb0 0a48 	vmov.f32	s0, s16
 8007408:	ecbd 8b02 	vpop	{d8}
 800740c:	6004      	str	r4, [r0, #0]
 800740e:	bd10      	pop	{r4, pc}

08007410 <xflowf>:
 8007410:	b130      	cbz	r0, 8007420 <xflowf+0x10>
 8007412:	eef1 7a40 	vneg.f32	s15, s0
 8007416:	ee27 0a80 	vmul.f32	s0, s15, s0
 800741a:	2022      	movs	r0, #34	@ 0x22
 800741c:	f7ff bfea 	b.w	80073f4 <with_errnof>
 8007420:	eef0 7a40 	vmov.f32	s15, s0
 8007424:	e7f7      	b.n	8007416 <xflowf+0x6>
	...

08007428 <__math_uflowf>:
 8007428:	ed9f 0a01 	vldr	s0, [pc, #4]	@ 8007430 <__math_uflowf+0x8>
 800742c:	f7ff bff0 	b.w	8007410 <xflowf>
 8007430:	10000000 	.word	0x10000000

08007434 <__math_oflowf>:
 8007434:	ed9f 0a01 	vldr	s0, [pc, #4]	@ 800743c <__math_oflowf+0x8>
 8007438:	f7ff bfea 	b.w	8007410 <xflowf>
 800743c:	70000000 	.word	0x70000000

08007440 <__ieee754_sqrtf>:
 8007440:	eeb1 0ac0 	vsqrt.f32	s0, s0
 8007444:	4770      	bx	lr
	...

08007448 <__kernel_rem_pio2f>:
 8007448:	e92d 4ff0 	stmdb	sp!, {r4, r5, r6, r7, r8, r9, sl, fp, lr}
 800744c:	ed2d 8b04 	vpush	{d8-d9}
 8007450:	b0d9      	sub	sp, #356	@ 0x164
 8007452:	4690      	mov	r8, r2
 8007454:	9001      	str	r0, [sp, #4]
 8007456:	4ab6      	ldr	r2, [pc, #728]	@ (8007730 <__kernel_rem_pio2f+0x2e8>)
 8007458:	9866      	ldr	r0, [sp, #408]	@ 0x198
 800745a:	f118 0f04 	cmn.w	r8, #4
 800745e:	f852 a020 	ldr.w	sl, [r2, r0, lsl #2]
 8007462:	460f      	mov	r7, r1
 8007464:	f103 3bff 	add.w	fp, r3, #4294967295
 8007468:	db26      	blt.n	80074b8 <__kernel_rem_pio2f+0x70>
 800746a:	f1b8 0203 	subs.w	r2, r8, #3
 800746e:	bf48      	it	mi
 8007470:	f108 0204 	addmi.w	r2, r8, #4
 8007474:	10d2      	asrs	r2, r2, #3
 8007476:	1c55      	adds	r5, r2, #1
 8007478:	9967      	ldr	r1, [sp, #412]	@ 0x19c
 800747a:	ed9f 7ab1 	vldr	s14, [pc, #708]	@ 8007740 <__kernel_rem_pio2f+0x2f8>
 800747e:	00e8      	lsls	r0, r5, #3
 8007480:	eba2 060b 	sub.w	r6, r2, fp
 8007484:	9002      	str	r0, [sp, #8]
 8007486:	eba8 05c5 	sub.w	r5, r8, r5, lsl #3
 800748a:	eb0a 0c0b 	add.w	ip, sl, fp
 800748e:	ac1c      	add	r4, sp, #112	@ 0x70
 8007490:	eb01 0e86 	add.w	lr, r1, r6, lsl #2
 8007494:	2000      	movs	r0, #0
 8007496:	4560      	cmp	r0, ip
 8007498:	dd10      	ble.n	80074bc <__kernel_rem_pio2f+0x74>
 800749a:	a91c      	add	r1, sp, #112	@ 0x70
 800749c:	eb01 0083 	add.w	r0, r1, r3, lsl #2
 80074a0:	f50d 7988 	add.w	r9, sp, #272	@ 0x110
 80074a4:	2600      	movs	r6, #0
 80074a6:	4556      	cmp	r6, sl
 80074a8:	dc24      	bgt.n	80074f4 <__kernel_rem_pio2f+0xac>
 80074aa:	f8dd e004 	ldr.w	lr, [sp, #4]
 80074ae:	eddf 7aa4 	vldr	s15, [pc, #656]	@ 8007740 <__kernel_rem_pio2f+0x2f8>
 80074b2:	4684      	mov	ip, r0
 80074b4:	2400      	movs	r4, #0
 80074b6:	e016      	b.n	80074e6 <__kernel_rem_pio2f+0x9e>
 80074b8:	2200      	movs	r2, #0
 80074ba:	e7dc      	b.n	8007476 <__kernel_rem_pio2f+0x2e>
 80074bc:	42c6      	cmn	r6, r0
 80074be:	bf5d      	ittte	pl
 80074c0:	f85e 1020 	ldrpl.w	r1, [lr, r0, lsl #2]
 80074c4:	ee07 1a90 	vmovpl	s15, r1
 80074c8:	eef8 7ae7 	vcvtpl.f32.s32	s15, s15
 80074cc:	eef0 7a47 	vmovmi.f32	s15, s14
 80074d0:	ece4 7a01 	vstmia	r4!, {s15}
 80074d4:	3001      	adds	r0, #1
 80074d6:	e7de      	b.n	8007496 <__kernel_rem_pio2f+0x4e>
 80074d8:	ecfe 6a01 	vldmia	lr!, {s13}
 80074dc:	ed3c 7a01 	vldmdb	ip!, {s14}
 80074e0:	eee6 7a87 	vfma.f32	s15, s13, s14
 80074e4:	3401      	adds	r4, #1
 80074e6:	455c      	cmp	r4, fp
 80074e8:	ddf6      	ble.n	80074d8 <__kernel_rem_pio2f+0x90>
 80074ea:	ece9 7a01 	vstmia	r9!, {s15}
 80074ee:	3601      	adds	r6, #1
 80074f0:	3004      	adds	r0, #4
 80074f2:	e7d8      	b.n	80074a6 <__kernel_rem_pio2f+0x5e>
 80074f4:	a908      	add	r1, sp, #32
 80074f6:	eb01 018a 	add.w	r1, r1, sl, lsl #2
 80074fa:	9104      	str	r1, [sp, #16]
 80074fc:	9967      	ldr	r1, [sp, #412]	@ 0x19c
 80074fe:	eddf 8a8f 	vldr	s17, [pc, #572]	@ 800773c <__kernel_rem_pio2f+0x2f4>
 8007502:	ed9f 9a8d 	vldr	s18, [pc, #564]	@ 8007738 <__kernel_rem_pio2f+0x2f0>
 8007506:	eb01 0282 	add.w	r2, r1, r2, lsl #2
 800750a:	9203      	str	r2, [sp, #12]
 800750c:	4654      	mov	r4, sl
 800750e:	00a2      	lsls	r2, r4, #2
 8007510:	9205      	str	r2, [sp, #20]
 8007512:	aa58      	add	r2, sp, #352	@ 0x160
 8007514:	eb02 0284 	add.w	r2, r2, r4, lsl #2
 8007518:	ed12 0a14 	vldr	s0, [r2, #-80]	@ 0xffffffb0
 800751c:	a944      	add	r1, sp, #272	@ 0x110
 800751e:	aa08      	add	r2, sp, #32
 8007520:	eb01 0084 	add.w	r0, r1, r4, lsl #2
 8007524:	4694      	mov	ip, r2
 8007526:	4626      	mov	r6, r4
 8007528:	2e00      	cmp	r6, #0
 800752a:	dc4c      	bgt.n	80075c6 <__kernel_rem_pio2f+0x17e>
 800752c:	4628      	mov	r0, r5
 800752e:	e9cd 2306 	strd	r2, r3, [sp, #24]
 8007532:	f7ff fef9 	bl	8007328 <scalbnf>
 8007536:	eeb0 8a40 	vmov.f32	s16, s0
 800753a:	eeb4 0a00 	vmov.f32	s0, #64	@ 0x3e000000  0.125
 800753e:	ee28 0a00 	vmul.f32	s0, s16, s0
 8007542:	f000 f9e9 	bl	8007918 <floorf>
 8007546:	eef2 7a00 	vmov.f32	s15, #32	@ 0x41000000  8.0
 800754a:	eea0 8a67 	vfms.f32	s16, s0, s15
 800754e:	2d00      	cmp	r5, #0
 8007550:	e9dd 2306 	ldrd	r2, r3, [sp, #24]
 8007554:	eefd 7ac8 	vcvt.s32.f32	s15, s16
 8007558:	ee17 9a90 	vmov	r9, s15
 800755c:	eef8 7ae7 	vcvt.f32.s32	s15, s15
 8007560:	ee38 8a67 	vsub.f32	s16, s16, s15
 8007564:	dd41      	ble.n	80075ea <__kernel_rem_pio2f+0x1a2>
 8007566:	f104 3cff 	add.w	ip, r4, #4294967295
 800756a:	a908      	add	r1, sp, #32
 800756c:	f1c5 0e08 	rsb	lr, r5, #8
 8007570:	f851 602c 	ldr.w	r6, [r1, ip, lsl #2]
 8007574:	fa46 f00e 	asr.w	r0, r6, lr
 8007578:	4481      	add	r9, r0
 800757a:	fa00 f00e 	lsl.w	r0, r0, lr
 800757e:	1a36      	subs	r6, r6, r0
 8007580:	f1c5 0007 	rsb	r0, r5, #7
 8007584:	f841 602c 	str.w	r6, [r1, ip, lsl #2]
 8007588:	4106      	asrs	r6, r0
 800758a:	2e00      	cmp	r6, #0
 800758c:	dd3c      	ble.n	8007608 <__kernel_rem_pio2f+0x1c0>
 800758e:	f04f 0e00 	mov.w	lr, #0
 8007592:	f109 0901 	add.w	r9, r9, #1
 8007596:	4670      	mov	r0, lr
 8007598:	4574      	cmp	r4, lr
 800759a:	dc68      	bgt.n	800766e <__kernel_rem_pio2f+0x226>
 800759c:	2d00      	cmp	r5, #0
 800759e:	dd03      	ble.n	80075a8 <__kernel_rem_pio2f+0x160>
 80075a0:	2d01      	cmp	r5, #1
 80075a2:	d074      	beq.n	800768e <__kernel_rem_pio2f+0x246>
 80075a4:	2d02      	cmp	r5, #2
 80075a6:	d07d      	beq.n	80076a4 <__kernel_rem_pio2f+0x25c>
 80075a8:	2e02      	cmp	r6, #2
 80075aa:	d12d      	bne.n	8007608 <__kernel_rem_pio2f+0x1c0>
 80075ac:	eeb7 0a00 	vmov.f32	s0, #112	@ 0x3f800000  1.0
 80075b0:	ee30 8a48 	vsub.f32	s16, s0, s16
 80075b4:	b340      	cbz	r0, 8007608 <__kernel_rem_pio2f+0x1c0>
 80075b6:	4628      	mov	r0, r5
 80075b8:	9306      	str	r3, [sp, #24]
 80075ba:	f7ff feb5 	bl	8007328 <scalbnf>
 80075be:	9b06      	ldr	r3, [sp, #24]
 80075c0:	ee38 8a40 	vsub.f32	s16, s16, s0
 80075c4:	e020      	b.n	8007608 <__kernel_rem_pio2f+0x1c0>
 80075c6:	ee60 7a28 	vmul.f32	s15, s0, s17
 80075ca:	3e01      	subs	r6, #1
 80075cc:	eefd 7ae7 	vcvt.s32.f32	s15, s15
 80075d0:	eef8 7ae7 	vcvt.f32.s32	s15, s15
 80075d4:	eea7 0ac9 	vfms.f32	s0, s15, s18
 80075d8:	eebd 0ac0 	vcvt.s32.f32	s0, s0
 80075dc:	ecac 0a01 	vstmia	ip!, {s0}
 80075e0:	ed30 0a01 	vldmdb	r0!, {s0}
 80075e4:	ee37 0a80 	vadd.f32	s0, s15, s0
 80075e8:	e79e      	b.n	8007528 <__kernel_rem_pio2f+0xe0>
 80075ea:	d105      	bne.n	80075f8 <__kernel_rem_pio2f+0x1b0>
 80075ec:	1e60      	subs	r0, r4, #1
 80075ee:	a908      	add	r1, sp, #32
 80075f0:	f851 6020 	ldr.w	r6, [r1, r0, lsl #2]
 80075f4:	11f6      	asrs	r6, r6, #7
 80075f6:	e7c8      	b.n	800758a <__kernel_rem_pio2f+0x142>
 80075f8:	eef6 7a00 	vmov.f32	s15, #96	@ 0x3f000000  0.5
 80075fc:	eeb4 8ae7 	vcmpe.f32	s16, s15
 8007600:	eef1 fa10 	vmrs	APSR_nzcv, fpscr
 8007604:	da31      	bge.n	800766a <__kernel_rem_pio2f+0x222>
 8007606:	2600      	movs	r6, #0
 8007608:	eeb5 8a40 	vcmp.f32	s16, #0.0
 800760c:	eef1 fa10 	vmrs	APSR_nzcv, fpscr
 8007610:	f040 8098 	bne.w	8007744 <__kernel_rem_pio2f+0x2fc>
 8007614:	1e60      	subs	r0, r4, #1
 8007616:	2200      	movs	r2, #0
 8007618:	4550      	cmp	r0, sl
 800761a:	da4b      	bge.n	80076b4 <__kernel_rem_pio2f+0x26c>
 800761c:	2a00      	cmp	r2, #0
 800761e:	d065      	beq.n	80076ec <__kernel_rem_pio2f+0x2a4>
 8007620:	3c01      	subs	r4, #1
 8007622:	ab08      	add	r3, sp, #32
 8007624:	3d08      	subs	r5, #8
 8007626:	f853 3024 	ldr.w	r3, [r3, r4, lsl #2]
 800762a:	2b00      	cmp	r3, #0
 800762c:	d0f8      	beq.n	8007620 <__kernel_rem_pio2f+0x1d8>
 800762e:	4628      	mov	r0, r5
 8007630:	eeb7 0a00 	vmov.f32	s0, #112	@ 0x3f800000  1.0
 8007634:	f7ff fe78 	bl	8007328 <scalbnf>
 8007638:	1c63      	adds	r3, r4, #1
 800763a:	aa44      	add	r2, sp, #272	@ 0x110
 800763c:	ed9f 7a3f 	vldr	s14, [pc, #252]	@ 800773c <__kernel_rem_pio2f+0x2f4>
 8007640:	0099      	lsls	r1, r3, #2
 8007642:	eb02 0283 	add.w	r2, r2, r3, lsl #2
 8007646:	4623      	mov	r3, r4
 8007648:	2b00      	cmp	r3, #0
 800764a:	f280 80a9 	bge.w	80077a0 <__kernel_rem_pio2f+0x358>
 800764e:	4623      	mov	r3, r4
 8007650:	2b00      	cmp	r3, #0
 8007652:	f2c0 80c7 	blt.w	80077e4 <__kernel_rem_pio2f+0x39c>
 8007656:	aa44      	add	r2, sp, #272	@ 0x110
 8007658:	eb02 0583 	add.w	r5, r2, r3, lsl #2
 800765c:	f8df c0d4 	ldr.w	ip, [pc, #212]	@ 8007734 <__kernel_rem_pio2f+0x2ec>
 8007660:	eddf 7a37 	vldr	s15, [pc, #220]	@ 8007740 <__kernel_rem_pio2f+0x2f8>
 8007664:	2000      	movs	r0, #0
 8007666:	1ae2      	subs	r2, r4, r3
 8007668:	e0b1      	b.n	80077ce <__kernel_rem_pio2f+0x386>
 800766a:	2602      	movs	r6, #2
 800766c:	e78f      	b.n	800758e <__kernel_rem_pio2f+0x146>
 800766e:	f852 1b04 	ldr.w	r1, [r2], #4
 8007672:	b948      	cbnz	r0, 8007688 <__kernel_rem_pio2f+0x240>
 8007674:	b121      	cbz	r1, 8007680 <__kernel_rem_pio2f+0x238>
 8007676:	f5c1 7180 	rsb	r1, r1, #256	@ 0x100
 800767a:	f842 1c04 	str.w	r1, [r2, #-4]
 800767e:	2101      	movs	r1, #1
 8007680:	f10e 0e01 	add.w	lr, lr, #1
 8007684:	4608      	mov	r0, r1
 8007686:	e787      	b.n	8007598 <__kernel_rem_pio2f+0x150>
 8007688:	f1c1 01ff 	rsb	r1, r1, #255	@ 0xff
 800768c:	e7f5      	b.n	800767a <__kernel_rem_pio2f+0x232>
 800768e:	f104 3cff 	add.w	ip, r4, #4294967295
 8007692:	aa08      	add	r2, sp, #32
 8007694:	f852 202c 	ldr.w	r2, [r2, ip, lsl #2]
 8007698:	f002 027f 	and.w	r2, r2, #127	@ 0x7f
 800769c:	a908      	add	r1, sp, #32
 800769e:	f841 202c 	str.w	r2, [r1, ip, lsl #2]
 80076a2:	e781      	b.n	80075a8 <__kernel_rem_pio2f+0x160>
 80076a4:	f104 3cff 	add.w	ip, r4, #4294967295
 80076a8:	aa08      	add	r2, sp, #32
 80076aa:	f852 202c 	ldr.w	r2, [r2, ip, lsl #2]
 80076ae:	f002 023f 	and.w	r2, r2, #63	@ 0x3f
 80076b2:	e7f3      	b.n	800769c <__kernel_rem_pio2f+0x254>
 80076b4:	a908      	add	r1, sp, #32
 80076b6:	f851 1020 	ldr.w	r1, [r1, r0, lsl #2]
 80076ba:	3801      	subs	r0, #1
 80076bc:	430a      	orrs	r2, r1
 80076be:	e7ab      	b.n	8007618 <__kernel_rem_pio2f+0x1d0>
 80076c0:	3201      	adds	r2, #1
 80076c2:	f850 6d04 	ldr.w	r6, [r0, #-4]!
 80076c6:	2e00      	cmp	r6, #0
 80076c8:	d0fa      	beq.n	80076c0 <__kernel_rem_pio2f+0x278>
 80076ca:	9905      	ldr	r1, [sp, #20]
 80076cc:	f501 71b0 	add.w	r1, r1, #352	@ 0x160
 80076d0:	eb0d 0001 	add.w	r0, sp, r1
 80076d4:	18e6      	adds	r6, r4, r3
 80076d6:	a91c      	add	r1, sp, #112	@ 0x70
 80076d8:	f104 0c01 	add.w	ip, r4, #1
 80076dc:	384c      	subs	r0, #76	@ 0x4c
 80076de:	eb01 0686 	add.w	r6, r1, r6, lsl #2
 80076e2:	4422      	add	r2, r4
 80076e4:	4562      	cmp	r2, ip
 80076e6:	da04      	bge.n	80076f2 <__kernel_rem_pio2f+0x2aa>
 80076e8:	4614      	mov	r4, r2
 80076ea:	e710      	b.n	800750e <__kernel_rem_pio2f+0xc6>
 80076ec:	9804      	ldr	r0, [sp, #16]
 80076ee:	2201      	movs	r2, #1
 80076f0:	e7e7      	b.n	80076c2 <__kernel_rem_pio2f+0x27a>
 80076f2:	9903      	ldr	r1, [sp, #12]
 80076f4:	f8dd e004 	ldr.w	lr, [sp, #4]
 80076f8:	f851 102c 	ldr.w	r1, [r1, ip, lsl #2]
 80076fc:	9105      	str	r1, [sp, #20]
 80076fe:	ee07 1a90 	vmov	s15, r1
 8007702:	eef8 7ae7 	vcvt.f32.s32	s15, s15
 8007706:	2400      	movs	r4, #0
 8007708:	ece6 7a01 	vstmia	r6!, {s15}
 800770c:	eddf 7a0c 	vldr	s15, [pc, #48]	@ 8007740 <__kernel_rem_pio2f+0x2f8>
 8007710:	46b1      	mov	r9, r6
 8007712:	455c      	cmp	r4, fp
 8007714:	dd04      	ble.n	8007720 <__kernel_rem_pio2f+0x2d8>
 8007716:	ece0 7a01 	vstmia	r0!, {s15}
 800771a:	f10c 0c01 	add.w	ip, ip, #1
 800771e:	e7e1      	b.n	80076e4 <__kernel_rem_pio2f+0x29c>
 8007720:	ecfe 6a01 	vldmia	lr!, {s13}
 8007724:	ed39 7a01 	vldmdb	r9!, {s14}
 8007728:	3401      	adds	r4, #1
 800772a:	eee6 7a87 	vfma.f32	s15, s13, s14
 800772e:	e7f0      	b.n	8007712 <__kernel_rem_pio2f+0x2ca>
 8007730:	08007e0c 	.word	0x08007e0c
 8007734:	08007de0 	.word	0x08007de0
 8007738:	43800000 	.word	0x43800000
 800773c:	3b800000 	.word	0x3b800000
 8007740:	00000000 	.word	0x00000000
 8007744:	9b02      	ldr	r3, [sp, #8]
 8007746:	eeb0 0a48 	vmov.f32	s0, s16
 800774a:	eba3 0008 	sub.w	r0, r3, r8
 800774e:	f7ff fdeb 	bl	8007328 <scalbnf>
 8007752:	ed1f 7a07 	vldr	s14, [pc, #-28]	@ 8007738 <__kernel_rem_pio2f+0x2f0>
 8007756:	eeb4 0ac7 	vcmpe.f32	s0, s14
 800775a:	eef1 fa10 	vmrs	APSR_nzcv, fpscr
 800775e:	db19      	blt.n	8007794 <__kernel_rem_pio2f+0x34c>
 8007760:	ed5f 7a0a 	vldr	s15, [pc, #-40]	@ 800773c <__kernel_rem_pio2f+0x2f4>
 8007764:	ee60 7a27 	vmul.f32	s15, s0, s15
 8007768:	aa08      	add	r2, sp, #32
 800776a:	eefd 7ae7 	vcvt.s32.f32	s15, s15
 800776e:	3508      	adds	r5, #8
 8007770:	eef8 7ae7 	vcvt.f32.s32	s15, s15
 8007774:	eea7 0ac7 	vfms.f32	s0, s15, s14
 8007778:	eefd 7ae7 	vcvt.s32.f32	s15, s15
 800777c:	eebd 0ac0 	vcvt.s32.f32	s0, s0
 8007780:	ee10 3a10 	vmov	r3, s0
 8007784:	f842 3024 	str.w	r3, [r2, r4, lsl #2]
 8007788:	ee17 3a90 	vmov	r3, s15
 800778c:	3401      	adds	r4, #1
 800778e:	f842 3024 	str.w	r3, [r2, r4, lsl #2]
 8007792:	e74c      	b.n	800762e <__kernel_rem_pio2f+0x1e6>
 8007794:	eebd 0ac0 	vcvt.s32.f32	s0, s0
 8007798:	aa08      	add	r2, sp, #32
 800779a:	ee10 3a10 	vmov	r3, s0
 800779e:	e7f6      	b.n	800778e <__kernel_rem_pio2f+0x346>
 80077a0:	a808      	add	r0, sp, #32
 80077a2:	f850 0023 	ldr.w	r0, [r0, r3, lsl #2]
 80077a6:	9001      	str	r0, [sp, #4]
 80077a8:	ee07 0a90 	vmov	s15, r0
 80077ac:	eef8 7ae7 	vcvt.f32.s32	s15, s15
 80077b0:	3b01      	subs	r3, #1
 80077b2:	ee67 7a80 	vmul.f32	s15, s15, s0
 80077b6:	ee20 0a07 	vmul.f32	s0, s0, s14
 80077ba:	ed62 7a01 	vstmdb	r2!, {s15}
 80077be:	e743      	b.n	8007648 <__kernel_rem_pio2f+0x200>
 80077c0:	ecfc 6a01 	vldmia	ip!, {s13}
 80077c4:	ecb5 7a01 	vldmia	r5!, {s14}
 80077c8:	eee6 7a87 	vfma.f32	s15, s13, s14
 80077cc:	3001      	adds	r0, #1
 80077ce:	4550      	cmp	r0, sl
 80077d0:	dc01      	bgt.n	80077d6 <__kernel_rem_pio2f+0x38e>
 80077d2:	4290      	cmp	r0, r2
 80077d4:	ddf4      	ble.n	80077c0 <__kernel_rem_pio2f+0x378>
 80077d6:	a858      	add	r0, sp, #352	@ 0x160
 80077d8:	eb00 0282 	add.w	r2, r0, r2, lsl #2
 80077dc:	ed42 7a28 	vstr	s15, [r2, #-160]	@ 0xffffff60
 80077e0:	3b01      	subs	r3, #1
 80077e2:	e735      	b.n	8007650 <__kernel_rem_pio2f+0x208>
 80077e4:	9b66      	ldr	r3, [sp, #408]	@ 0x198
 80077e6:	2b02      	cmp	r3, #2
 80077e8:	dc09      	bgt.n	80077fe <__kernel_rem_pio2f+0x3b6>
 80077ea:	2b00      	cmp	r3, #0
 80077ec:	dc27      	bgt.n	800783e <__kernel_rem_pio2f+0x3f6>
 80077ee:	d040      	beq.n	8007872 <__kernel_rem_pio2f+0x42a>
 80077f0:	f009 0007 	and.w	r0, r9, #7
 80077f4:	b059      	add	sp, #356	@ 0x164
 80077f6:	ecbd 8b04 	vpop	{d8-d9}
 80077fa:	e8bd 8ff0 	ldmia.w	sp!, {r4, r5, r6, r7, r8, r9, sl, fp, pc}
 80077fe:	9b66      	ldr	r3, [sp, #408]	@ 0x198
 8007800:	2b03      	cmp	r3, #3
 8007802:	d1f5      	bne.n	80077f0 <__kernel_rem_pio2f+0x3a8>
 8007804:	aa30      	add	r2, sp, #192	@ 0xc0
 8007806:	1f0b      	subs	r3, r1, #4
 8007808:	4413      	add	r3, r2
 800780a:	461a      	mov	r2, r3
 800780c:	4620      	mov	r0, r4
 800780e:	2800      	cmp	r0, #0
 8007810:	dc50      	bgt.n	80078b4 <__kernel_rem_pio2f+0x46c>
 8007812:	4622      	mov	r2, r4
 8007814:	2a01      	cmp	r2, #1
 8007816:	dc5d      	bgt.n	80078d4 <__kernel_rem_pio2f+0x48c>
 8007818:	ab30      	add	r3, sp, #192	@ 0xc0
 800781a:	ed5f 7a37 	vldr	s15, [pc, #-220]	@ 8007740 <__kernel_rem_pio2f+0x2f8>
 800781e:	440b      	add	r3, r1
 8007820:	2c01      	cmp	r4, #1
 8007822:	dc67      	bgt.n	80078f4 <__kernel_rem_pio2f+0x4ac>
 8007824:	eddd 6a30 	vldr	s13, [sp, #192]	@ 0xc0
 8007828:	ed9d 7a31 	vldr	s14, [sp, #196]	@ 0xc4
 800782c:	2e00      	cmp	r6, #0
 800782e:	d167      	bne.n	8007900 <__kernel_rem_pio2f+0x4b8>
 8007830:	edc7 6a00 	vstr	s13, [r7]
 8007834:	ed87 7a01 	vstr	s14, [r7, #4]
 8007838:	edc7 7a02 	vstr	s15, [r7, #8]
 800783c:	e7d8      	b.n	80077f0 <__kernel_rem_pio2f+0x3a8>
 800783e:	ab30      	add	r3, sp, #192	@ 0xc0
 8007840:	ed1f 7a41 	vldr	s14, [pc, #-260]	@ 8007740 <__kernel_rem_pio2f+0x2f8>
 8007844:	440b      	add	r3, r1
 8007846:	4622      	mov	r2, r4
 8007848:	2a00      	cmp	r2, #0
 800784a:	da24      	bge.n	8007896 <__kernel_rem_pio2f+0x44e>
 800784c:	b34e      	cbz	r6, 80078a2 <__kernel_rem_pio2f+0x45a>
 800784e:	eef1 7a47 	vneg.f32	s15, s14
 8007852:	edc7 7a00 	vstr	s15, [r7]
 8007856:	eddd 7a30 	vldr	s15, [sp, #192]	@ 0xc0
 800785a:	ee77 7ac7 	vsub.f32	s15, s15, s14
 800785e:	aa31      	add	r2, sp, #196	@ 0xc4
 8007860:	2301      	movs	r3, #1
 8007862:	429c      	cmp	r4, r3
 8007864:	da20      	bge.n	80078a8 <__kernel_rem_pio2f+0x460>
 8007866:	b10e      	cbz	r6, 800786c <__kernel_rem_pio2f+0x424>
 8007868:	eef1 7a67 	vneg.f32	s15, s15
 800786c:	edc7 7a01 	vstr	s15, [r7, #4]
 8007870:	e7be      	b.n	80077f0 <__kernel_rem_pio2f+0x3a8>
 8007872:	ab30      	add	r3, sp, #192	@ 0xc0
 8007874:	ed5f 7a4e 	vldr	s15, [pc, #-312]	@ 8007740 <__kernel_rem_pio2f+0x2f8>
 8007878:	440b      	add	r3, r1
 800787a:	2c00      	cmp	r4, #0
 800787c:	da05      	bge.n	800788a <__kernel_rem_pio2f+0x442>
 800787e:	b10e      	cbz	r6, 8007884 <__kernel_rem_pio2f+0x43c>
 8007880:	eef1 7a67 	vneg.f32	s15, s15
 8007884:	edc7 7a00 	vstr	s15, [r7]
 8007888:	e7b2      	b.n	80077f0 <__kernel_rem_pio2f+0x3a8>
 800788a:	ed33 7a01 	vldmdb	r3!, {s14}
 800788e:	3c01      	subs	r4, #1
 8007890:	ee77 7a87 	vadd.f32	s15, s15, s14
 8007894:	e7f1      	b.n	800787a <__kernel_rem_pio2f+0x432>
 8007896:	ed73 7a01 	vldmdb	r3!, {s15}
 800789a:	3a01      	subs	r2, #1
 800789c:	ee37 7a27 	vadd.f32	s14, s14, s15
 80078a0:	e7d2      	b.n	8007848 <__kernel_rem_pio2f+0x400>
 80078a2:	eef0 7a47 	vmov.f32	s15, s14
 80078a6:	e7d4      	b.n	8007852 <__kernel_rem_pio2f+0x40a>
 80078a8:	ecb2 7a01 	vldmia	r2!, {s14}
 80078ac:	3301      	adds	r3, #1
 80078ae:	ee77 7a87 	vadd.f32	s15, s15, s14
 80078b2:	e7d6      	b.n	8007862 <__kernel_rem_pio2f+0x41a>
 80078b4:	ed72 7a01 	vldmdb	r2!, {s15}
 80078b8:	edd2 6a01 	vldr	s13, [r2, #4]
 80078bc:	ee37 7aa6 	vadd.f32	s14, s15, s13
 80078c0:	3801      	subs	r0, #1
 80078c2:	ee77 7ac7 	vsub.f32	s15, s15, s14
 80078c6:	ed82 7a00 	vstr	s14, [r2]
 80078ca:	ee77 7aa6 	vadd.f32	s15, s15, s13
 80078ce:	edc2 7a01 	vstr	s15, [r2, #4]
 80078d2:	e79c      	b.n	800780e <__kernel_rem_pio2f+0x3c6>
 80078d4:	ed73 7a01 	vldmdb	r3!, {s15}
 80078d8:	edd3 6a01 	vldr	s13, [r3, #4]
 80078dc:	ee37 7aa6 	vadd.f32	s14, s15, s13
 80078e0:	3a01      	subs	r2, #1
 80078e2:	ee77 7ac7 	vsub.f32	s15, s15, s14
 80078e6:	ed83 7a00 	vstr	s14, [r3]
 80078ea:	ee77 7aa6 	vadd.f32	s15, s15, s13
 80078ee:	edc3 7a01 	vstr	s15, [r3, #4]
 80078f2:	e78f      	b.n	8007814 <__kernel_rem_pio2f+0x3cc>
 80078f4:	ed33 7a01 	vldmdb	r3!, {s14}
 80078f8:	3c01      	subs	r4, #1
 80078fa:	ee77 7a87 	vadd.f32	s15, s15, s14
 80078fe:	e78f      	b.n	8007820 <__kernel_rem_pio2f+0x3d8>
 8007900:	eef1 6a66 	vneg.f32	s13, s13
 8007904:	eeb1 7a47 	vneg.f32	s14, s14
 8007908:	edc7 6a00 	vstr	s13, [r7]
 800790c:	ed87 7a01 	vstr	s14, [r7, #4]
 8007910:	eef1 7a67 	vneg.f32	s15, s15
 8007914:	e790      	b.n	8007838 <__kernel_rem_pio2f+0x3f0>
 8007916:	bf00      	nop

08007918 <floorf>:
 8007918:	ee10 3a10 	vmov	r3, s0
 800791c:	f3c3 52c7 	ubfx	r2, r3, #23, #8
 8007920:	3a7f      	subs	r2, #127	@ 0x7f
 8007922:	2a16      	cmp	r2, #22
 8007924:	f023 4100 	bic.w	r1, r3, #2147483648	@ 0x80000000
 8007928:	dc2b      	bgt.n	8007982 <floorf+0x6a>
 800792a:	2a00      	cmp	r2, #0
 800792c:	da12      	bge.n	8007954 <floorf+0x3c>
 800792e:	eddf 7a19 	vldr	s15, [pc, #100]	@ 8007994 <floorf+0x7c>
 8007932:	ee30 0a27 	vadd.f32	s0, s0, s15
 8007936:	eeb5 0ac0 	vcmpe.f32	s0, #0.0
 800793a:	eef1 fa10 	vmrs	APSR_nzcv, fpscr
 800793e:	dd06      	ble.n	800794e <floorf+0x36>
 8007940:	2b00      	cmp	r3, #0
 8007942:	da24      	bge.n	800798e <floorf+0x76>
 8007944:	2900      	cmp	r1, #0
 8007946:	4b14      	ldr	r3, [pc, #80]	@ (8007998 <floorf+0x80>)
 8007948:	bf08      	it	eq
 800794a:	f04f 4300 	moveq.w	r3, #2147483648	@ 0x80000000
 800794e:	ee00 3a10 	vmov	s0, r3
 8007952:	4770      	bx	lr
 8007954:	4911      	ldr	r1, [pc, #68]	@ (800799c <floorf+0x84>)
 8007956:	4111      	asrs	r1, r2
 8007958:	420b      	tst	r3, r1
 800795a:	d0fa      	beq.n	8007952 <floorf+0x3a>
 800795c:	eddf 7a0d 	vldr	s15, [pc, #52]	@ 8007994 <floorf+0x7c>
 8007960:	ee30 0a27 	vadd.f32	s0, s0, s15
 8007964:	eeb5 0ac0 	vcmpe.f32	s0, #0.0
 8007968:	eef1 fa10 	vmrs	APSR_nzcv, fpscr
 800796c:	ddef      	ble.n	800794e <floorf+0x36>
 800796e:	2b00      	cmp	r3, #0
 8007970:	bfbe      	ittt	lt
 8007972:	f44f 0000 	movlt.w	r0, #8388608	@ 0x800000
 8007976:	fa40 f202 	asrlt.w	r2, r0, r2
 800797a:	189b      	addlt	r3, r3, r2
 800797c:	ea23 0301 	bic.w	r3, r3, r1
 8007980:	e7e5      	b.n	800794e <floorf+0x36>
 8007982:	f1b1 4fff 	cmp.w	r1, #2139095040	@ 0x7f800000
 8007986:	d3e4      	bcc.n	8007952 <floorf+0x3a>
 8007988:	ee30 0a00 	vadd.f32	s0, s0, s0
 800798c:	4770      	bx	lr
 800798e:	2300      	movs	r3, #0
 8007990:	e7dd      	b.n	800794e <floorf+0x36>
 8007992:	bf00      	nop
 8007994:	7149f2ca 	.word	0x7149f2ca
 8007998:	bf800000 	.word	0xbf800000
 800799c:	007fffff 	.word	0x007fffff

080079a0 <_init>:
 80079a0:	b5f8      	push	{r3, r4, r5, r6, r7, lr}
 80079a2:	bf00      	nop
 80079a4:	bcf8      	pop	{r3, r4, r5, r6, r7}
 80079a6:	bc08      	pop	{r3}
 80079a8:	469e      	mov	lr, r3
 80079aa:	4770      	bx	lr

080079ac <_fini>:
 80079ac:	b5f8      	push	{r3, r4, r5, r6, r7, lr}
 80079ae:	bf00      	nop
 80079b0:	bcf8      	pop	{r3, r4, r5, r6, r7}
 80079b2:	bc08      	pop	{r3}
 80079b4:	469e      	mov	lr, r3
 80079b6:	4770      	bx	lr
